
/tools/proj/core-v-verif-master/cv32e40p/tests/programs/custom/hello-world//hello-world.elf:     file format elf32-littleriscv


Disassembly of section .vectors:

00000000 <__vector_start>:
.section .vectors, "ax"
.option norvc
.global vector_table

vector_table:
	j u_sw_irq_handler
   0:	2000006f          	jal	x0,200 <u_sw_irq_handler>
	j __no_irq_handler
   4:	1c80006f          	jal	x0,1cc <__no_irq_handler>
	j __no_irq_handler
   8:	1c40006f          	jal	x0,1cc <__no_irq_handler>
	j m_software_irq_handler
   c:	1ce0006f          	jal	x0,1da <m_software_irq_handler>
	j __no_irq_handler
  10:	1bc0006f          	jal	x0,1cc <__no_irq_handler>
	j __no_irq_handler
  14:	1b80006f          	jal	x0,1cc <__no_irq_handler>
	j __no_irq_handler
  18:	1b40006f          	jal	x0,1cc <__no_irq_handler>
	j m_timer_irq_handler
  1c:	1c00006f          	jal	x0,1dc <m_timer_irq_handler>
	j __no_irq_handler
  20:	1ac0006f          	jal	x0,1cc <__no_irq_handler>
	j __no_irq_handler
  24:	1a80006f          	jal	x0,1cc <__no_irq_handler>
	j __no_irq_handler
  28:	1a40006f          	jal	x0,1cc <__no_irq_handler>
	j m_external_irq_handler
  2c:	1b20006f          	jal	x0,1de <m_external_irq_handler>
	j __no_irq_handler
  30:	19c0006f          	jal	x0,1cc <__no_irq_handler>
	j __no_irq_handler
  34:	1980006f          	jal	x0,1cc <__no_irq_handler>
	j __no_irq_handler
  38:	1940006f          	jal	x0,1cc <__no_irq_handler>
	j __no_irq_handler
  3c:	1900006f          	jal	x0,1cc <__no_irq_handler>
	j m_fast0_irq_handler
  40:	1a00006f          	jal	x0,1e0 <m_fast0_irq_handler>
	j m_fast1_irq_handler
  44:	19e0006f          	jal	x0,1e2 <m_fast1_irq_handler>
	j m_fast2_irq_handler
  48:	19c0006f          	jal	x0,1e4 <m_fast2_irq_handler>
	j m_fast3_irq_handler
  4c:	19a0006f          	jal	x0,1e6 <m_fast3_irq_handler>
	j m_fast4_irq_handler
  50:	1980006f          	jal	x0,1e8 <m_fast4_irq_handler>
	j m_fast5_irq_handler
  54:	1960006f          	jal	x0,1ea <m_fast5_irq_handler>
	j m_fast6_irq_handler
  58:	1940006f          	jal	x0,1ec <m_fast6_irq_handler>
	j m_fast7_irq_handler
  5c:	1920006f          	jal	x0,1ee <m_fast7_irq_handler>
	j m_fast8_irq_handler
  60:	1900006f          	jal	x0,1f0 <m_fast8_irq_handler>
	j m_fast9_irq_handler
  64:	18e0006f          	jal	x0,1f2 <m_fast9_irq_handler>
	j m_fast10_irq_handler
  68:	18c0006f          	jal	x0,1f4 <m_fast10_irq_handler>
	j m_fast11_irq_handler
  6c:	18a0006f          	jal	x0,1f6 <m_fast11_irq_handler>
	j m_fast12_irq_handler
  70:	1880006f          	jal	x0,1f8 <m_fast12_irq_handler>
	j m_fast13_irq_handler
  74:	1860006f          	jal	x0,1fa <m_fast13_irq_handler>
	j m_fast14_irq_handler
  78:	1840006f          	jal	x0,1fc <m_fast14_irq_handler>
	j m_fast15_irq_handler
  7c:	1820006f          	jal	x0,1fe <m_fast15_irq_handler>

Disassembly of section .init:

00000080 <_start>:

_start:
/* initialize global pointer */
.option push
.option norelax
1:	auipc gp, %pcrel_hi(__global_pointer$)
  80:	00013197          	auipc	x3,0x13
	addi  gp, gp, %pcrel_lo(1b)
  84:	c3018193          	addi	x3,x3,-976 # 12cb0 <__global_pointer$>
.option pop

/* initialize stack pointer */
	la sp, __stack_end
  88:	00400117          	auipc	x2,0x400
  8c:	f7810113          	addi	x2,x2,-136 # 400000 <__heap_end>

/* set vector table address */
	la a0, __vector_start
  90:	00000517          	auipc	x10,0x0
  94:	f7050513          	addi	x10,x10,-144 # 0 <__vector_start>
	ori a0, a0, 1 /*vector mode = vectored */
  98:	00156513          	ori	x10,x10,1
	csrw mtvec, a0
  9c:	30551073          	csrrw	x0,mtvec,x10

/* clear the bss segment */
	la a0, _edata
  a0:	f1018513          	addi	x10,x3,-240 # 12bc0 <__atexit>
	la a2, _end
  a4:	21c18613          	addi	x12,x3,540 # 12ecc <__bss_end>
	sub a2, a2, a0
  a8:	8e09                	c.sub	x12,x10
	li a1, 0
  aa:	4581                	c.li	x11,0
	call memset
  ac:	25c1                	c.jal	76c <memset>

/* new-style constructors and destructors */
	la a0, __libc_fini_array
  ae:	00000517          	auipc	x10,0x0
  b2:	66250513          	addi	x10,x10,1634 # 710 <__libc_fini_array>
	call atexit
  b6:	117000ef          	jal	x1,9cc <atexit>
	call __libc_init_array
  ba:	23c9                	c.jal	67c <__libc_init_array>
//	lw a0, 0(sp)                    /* a0 = argc */
//	addi a1, sp, __SIZEOF_POINTER__ /* a1 = argv */
//	li a2, 0                        /* a2 = envp = NULL */
// Initialize these variables to 0. Cannot use argc or argv
// since the stack is not initialized
	li a0, 0
  bc:	4501                	c.li	x10,0
	li a1, 0
  be:	4581                	c.li	x11,0
	li a2, 0
  c0:	4601                	c.li	x12,0

	call main
  c2:	2019                	c.jal	c8 <main>
	tail exit
  c4:	a991                	c.j	518 <exit>

000000c6 <_fini>:
.type   _fini, @function
_init:
_fini:
 /* These don't have to do anything since we use init_array/fini_array. Prevent
    missing symbol error */
	ret
  c6:	8082                	c.jr	x1

Disassembly of section .text:

000000c8 <main>:
#define EXP_MISA 0x40801104
#endif


int main(int argc, char *argv[])
{
      c8:	1141                	c.addi	x2,-16
      ca:	c606                	c.swsp	x1,12(x2)
      cc:	c422                	c.swsp	x8,8(x2)
             int reserved, tentative, nonstd, user, super;

    mxl = 0; reserved = 0; tentative = 0; nonstd = 0; user = 0; super = 0;

    /* inline assembly: read mvendorid and misa */
    __asm__ volatile("csrr %0, 0xF11" : "=r"(mvendorid_rval));
      ce:	f11025f3          	csrrs	x11,mvendorid,x0
    __asm__ volatile("csrr %0, 0x301" : "=r"(misa_rval));
      d2:	30102473          	csrrs	x8,misa,x0
    __asm__ volatile("csrr %0, 0xF12" : "=r"(marchid_rval));
      d6:	f1202773          	csrrs	x14,marchid,x0
    __asm__ volatile("csrr %0, 0xF13" : "=r"(mimpid_rval));
      da:	f13027f3          	csrrs	x15,mimpid,x0

    /* Check MVENDORID CSR: 0x602 is the value assigned by JEDEC to the OpenHW Group */
    if (mvendorid_rval != 0x00000602) {
      de:	60200693          	addi	x13,x0,1538
      e2:	00d58863          	beq	x11,x13,f2 <main+0x2a>
      printf("\tERROR: CSR MVENDORID reads as 0x%x - should be 0x00000602 for the OpenHW Group.\n\n", mvendorid_rval);
      e6:	6549                	c.lui	x10,0x12
      e8:	81050513          	addi	x10,x10,-2032 # 11810 <__clzsi2+0x94>
      return EXIT_FAILURE;
    }

    /* Check MARCHID CSR: 0x4 is the value assigned by the RISC-V Foundation to CV32E40P */
    if (marchid_rval != 0x00000004) {
      printf("\tERROR: CSR MARCHID reads as 0x%x - should be 0x00000004 for CV32E40P.\n\n", marchid_rval);
      ec:	79c000ef          	jal	x1,888 <printf>
      return EXIT_FAILURE;
      f0:	a829                	c.j	10a <main+0x42>
    if (misa_rval != EXP_MISA) {
      f2:	40001637          	lui	x12,0x40001
      f6:	10460613          	addi	x12,x12,260 # 40001104 <__heap_end+0x3fc01104>
      fa:	00c40d63          	beq	x8,x12,114 <main+0x4c>
      printf("\tERROR: CSR MISA reads as 0x%x - should be 0x%x for this release of CV32E40P!\n\n", misa_rval, EXP_MISA);
      fe:	6549                	c.lui	x10,0x12
     100:	85a2                	c.mv	x11,x8
     102:	86450513          	addi	x10,x10,-1948 # 11864 <__clzsi2+0xe8>
     106:	782000ef          	jal	x1,888 <printf>
      return EXIT_FAILURE;
     10a:	4505                	c.li	x10,1
    }
    else {
      printf("\n");
      return EXIT_SUCCESS;
    }
}
     10c:	40b2                	c.lwsp	x1,12(x2)
     10e:	4422                	c.lwsp	x8,8(x2)
     110:	0141                	c.addi	x2,16
     112:	8082                	c.jr	x1
    if (marchid_rval != 0x00000004) {
     114:	4691                	c.li	x13,4
     116:	00d70763          	beq	x14,x13,124 <main+0x5c>
      printf("\tERROR: CSR MARCHID reads as 0x%x - should be 0x00000004 for CV32E40P.\n\n", marchid_rval);
     11a:	6549                	c.lui	x10,0x12
     11c:	85ba                	c.mv	x11,x14
     11e:	8b450513          	addi	x10,x10,-1868 # 118b4 <__clzsi2+0x138>
     122:	b7e9                	c.j	ec <main+0x24>
    if (mimpid_rval != 0x00000000) {
     124:	c791                	c.beqz	x15,130 <main+0x68>
      printf("\tERROR: CSR MIMPID reads as 0x%x - should be 0x00000000 for this release of CV32E40P.\n\n", mimpid_rval);
     126:	6549                	c.lui	x10,0x12
     128:	85be                	c.mv	x11,x15
     12a:	90050513          	addi	x10,x10,-1792 # 11900 <__clzsi2+0x184>
     12e:	bf7d                	c.j	ec <main+0x24>
    printf("\nHELLO WORLD!!!\n");
     130:	6549                	c.lui	x10,0x12
     132:	95850513          	addi	x10,x10,-1704 # 11958 <__clzsi2+0x1dc>
     136:	08b000ef          	jal	x1,9c0 <puts>
    printf("This is the OpenHW Group CV32E40P CORE-V processor core.\n");
     13a:	6549                	c.lui	x10,0x12
     13c:	96850513          	addi	x10,x10,-1688 # 11968 <__clzsi2+0x1ec>
     140:	081000ef          	jal	x1,9c0 <puts>
    printf("CV32E40P is a RISC-V ISA compliant core with the following attributes:\n");
     144:	6549                	c.lui	x10,0x12
     146:	9a450513          	addi	x10,x10,-1628 # 119a4 <__clzsi2+0x228>
     14a:	077000ef          	jal	x1,9c0 <puts>
    printf("\tmvendorid = 0x%x\n", mvendorid_rval);
     14e:	6549                	c.lui	x10,0x12
     150:	60200593          	addi	x11,x0,1538
     154:	9ec50513          	addi	x10,x10,-1556 # 119ec <__clzsi2+0x270>
     158:	730000ef          	jal	x1,888 <printf>
    printf("\tmarchid   = 0x%x\n", marchid_rval);
     15c:	6549                	c.lui	x10,0x12
     15e:	4591                	c.li	x11,4
     160:	a0050513          	addi	x10,x10,-1536 # 11a00 <__clzsi2+0x284>
     164:	724000ef          	jal	x1,888 <printf>
    printf("\tmimpid    = 0x%x\n", mimpid_rval);
     168:	6549                	c.lui	x10,0x12
     16a:	4581                	c.li	x11,0
     16c:	a1450513          	addi	x10,x10,-1516 # 11a14 <__clzsi2+0x298>
     170:	2f21                	c.jal	888 <printf>
    printf("\tmisa      = 0x%x\n", misa_rval);
     172:	6549                	c.lui	x10,0x12
     174:	85a2                	c.mv	x11,x8
     176:	a2850513          	addi	x10,x10,-1496 # 11a28 <__clzsi2+0x2ac>
     17a:	2739                	c.jal	888 <printf>
      case 1:  printf("\tXLEN is 32-bits\n");
     17c:	6549                	c.lui	x10,0x12
     17e:	a3c50513          	addi	x10,x10,-1476 # 11a3c <__clzsi2+0x2c0>
     182:	03f000ef          	jal	x1,9c0 <puts>
    printf("\tSupported Instructions Extensions: ");
     186:	6549                	c.lui	x10,0x12
     188:	a5050513          	addi	x10,x10,-1456 # 11a50 <__clzsi2+0x2d4>
     18c:	2df5                	c.jal	888 <printf>
    if ((misa_rval >> 12) & 0x00000001) printf("M");
     18e:	04d00513          	addi	x10,x0,77
     192:	74a000ef          	jal	x1,8dc <putchar>
    if ((misa_rval >>  8) & 0x00000001) printf("I");
     196:	04900513          	addi	x10,x0,73
     19a:	742000ef          	jal	x1,8dc <putchar>
    if ((misa_rval >>  2) & 0x00000001) printf("C");
     19e:	04300513          	addi	x10,x0,67
     1a2:	73a000ef          	jal	x1,8dc <putchar>
    printf("\n");
     1a6:	4529                	c.li	x10,10
     1a8:	2f15                	c.jal	8dc <putchar>
      printf("\n");
     1aa:	4529                	c.li	x10,10
     1ac:	2f05                	c.jal	8dc <putchar>
      return EXIT_SUCCESS;
     1ae:	4501                	c.li	x10,0
     1b0:	bfb1                	c.j	10c <main+0x44>
	...

000001b4 <register_fini>:
     1b4:	00000793          	addi	x15,x0,0
     1b8:	00078863          	beq	x15,x0,1c8 <register_fini+0x14>
     1bc:	00000517          	auipc	x10,0x0
     1c0:	55450513          	addi	x10,x10,1364 # 710 <__libc_fini_array>
     1c4:	0090006f          	jal	x0,9cc <atexit>
     1c8:	00008067          	jalr	x0,0(x1)

000001cc <__no_irq_handler>:
.weak m_fast15_irq_handler


/* exception handling */
__no_irq_handler:
	la a0, no_exception_handler_msg
     1cc:	00012517          	auipc	x10,0x12
     1d0:	a9050513          	addi	x10,x10,-1392 # 11c5c <no_exception_handler_msg>
	jal ra, puts
     1d4:	7ec000ef          	jal	x1,9c0 <puts>
	j __no_irq_handler
     1d8:	bfd5                	c.j	1cc <__no_irq_handler>

000001da <m_software_irq_handler>:

m_software_irq_handler:
	j __no_irq_handler
     1da:	bfcd                	c.j	1cc <__no_irq_handler>

000001dc <m_timer_irq_handler>:

m_timer_irq_handler:
	j __no_irq_handler
     1dc:	bfc5                	c.j	1cc <__no_irq_handler>

000001de <m_external_irq_handler>:

m_external_irq_handler:
	j __no_irq_handler
     1de:	b7fd                	c.j	1cc <__no_irq_handler>

000001e0 <m_fast0_irq_handler>:

m_fast0_irq_handler:
	j __no_irq_handler
     1e0:	b7f5                	c.j	1cc <__no_irq_handler>

000001e2 <m_fast1_irq_handler>:

m_fast1_irq_handler:
	j __no_irq_handler
     1e2:	b7ed                	c.j	1cc <__no_irq_handler>

000001e4 <m_fast2_irq_handler>:

m_fast2_irq_handler:
	j __no_irq_handler
     1e4:	b7e5                	c.j	1cc <__no_irq_handler>

000001e6 <m_fast3_irq_handler>:

m_fast3_irq_handler:
	j __no_irq_handler
     1e6:	b7dd                	c.j	1cc <__no_irq_handler>

000001e8 <m_fast4_irq_handler>:

m_fast4_irq_handler:
	j __no_irq_handler
     1e8:	b7d5                	c.j	1cc <__no_irq_handler>

000001ea <m_fast5_irq_handler>:

m_fast5_irq_handler:
	j __no_irq_handler
     1ea:	b7cd                	c.j	1cc <__no_irq_handler>

000001ec <m_fast6_irq_handler>:

m_fast6_irq_handler:
	j __no_irq_handler
     1ec:	b7c5                	c.j	1cc <__no_irq_handler>

000001ee <m_fast7_irq_handler>:

m_fast7_irq_handler:
	j __no_irq_handler
     1ee:	bff9                	c.j	1cc <__no_irq_handler>

000001f0 <m_fast8_irq_handler>:

m_fast8_irq_handler:
	j __no_irq_handler
     1f0:	bff1                	c.j	1cc <__no_irq_handler>

000001f2 <m_fast9_irq_handler>:

m_fast9_irq_handler:
	j __no_irq_handler
     1f2:	bfe9                	c.j	1cc <__no_irq_handler>

000001f4 <m_fast10_irq_handler>:

m_fast10_irq_handler:
	j __no_irq_handler
     1f4:	bfe1                	c.j	1cc <__no_irq_handler>

000001f6 <m_fast11_irq_handler>:

m_fast11_irq_handler:
	j __no_irq_handler
     1f6:	bfd9                	c.j	1cc <__no_irq_handler>

000001f8 <m_fast12_irq_handler>:

m_fast12_irq_handler:
	j __no_irq_handler
     1f8:	bfd1                	c.j	1cc <__no_irq_handler>

000001fa <m_fast13_irq_handler>:

m_fast13_irq_handler:
	j __no_irq_handler
     1fa:	bfc9                	c.j	1cc <__no_irq_handler>

000001fc <m_fast14_irq_handler>:

m_fast14_irq_handler:
	j __no_irq_handler
     1fc:	bfc1                	c.j	1cc <__no_irq_handler>

000001fe <m_fast15_irq_handler>:

m_fast15_irq_handler:
	j __no_irq_handler
     1fe:	b7f9                	c.j	1cc <__no_irq_handler>

00000200 <u_sw_irq_handler>:

u_sw_irq_handler:
	/* While we are still using puts in handlers, save all caller saved
	   regs.  Eventually, some of these saves could be deferred.  */
	addi sp,sp,-64
     200:	7139                	c.addi16sp	x2,-64
	sw ra, 0(sp)
     202:	c006                	c.swsp	x1,0(x2)
	sw a0, 4(sp)
     204:	c22a                	c.swsp	x10,4(x2)
	sw a1, 8(sp)
     206:	c42e                	c.swsp	x11,8(x2)
	sw a2, 12(sp)
     208:	c632                	c.swsp	x12,12(x2)
	sw a3, 16(sp)
     20a:	c836                	c.swsp	x13,16(x2)
	sw a4, 20(sp)
     20c:	ca3a                	c.swsp	x14,20(x2)
	sw a5, 24(sp)
     20e:	cc3e                	c.swsp	x15,24(x2)
	sw a6, 28(sp)
     210:	ce42                	c.swsp	x16,28(x2)
	sw a7, 32(sp)
     212:	d046                	c.swsp	x17,32(x2)
	sw t0, 36(sp)
     214:	d216                	c.swsp	x5,36(x2)
	sw t1, 40(sp)
     216:	d41a                	c.swsp	x6,40(x2)
	sw t2, 44(sp)
     218:	d61e                	c.swsp	x7,44(x2)
	sw t3, 48(sp)
     21a:	d872                	c.swsp	x28,48(x2)
	sw t4, 52(sp)
     21c:	da76                	c.swsp	x29,52(x2)
	sw t5, 56(sp)
     21e:	dc7a                	c.swsp	x30,56(x2)
	sw t6, 60(sp)
     220:	de7e                	c.swsp	x31,60(x2)
	csrr t0, mcause
     222:	342022f3          	csrrs	x5,mcause,x0
	li t1, EXCEPTION_ILLEGAL_INSN
     226:	4309                	c.li	x6,2
	beq t0, t1, handle_illegal_insn
     228:	02628363          	beq	x5,x6,24e <handle_illegal_insn>
	li t1, EXCEPTION_ECALL_M
     22c:	432d                	c.li	x6,11
	beq t0, t1, handle_ecall
     22e:	00628663          	beq	x5,x6,23a <handle_ecall>
	li t1, EXCEPTION_BREAKPOINT
     232:	430d                	c.li	x6,3
	beq t0, t1, handle_ebreak
     234:	00628663          	beq	x5,x6,240 <handle_ebreak>
	j handle_unknown
     238:	a015                	c.j	25c <handle_unknown>

0000023a <handle_ecall>:

handle_ecall:
	jal ra, handle_syscall
     23a:	204000ef          	jal	x1,43e <handle_syscall>
	j end_handler_incr_mepc
     23e:	a035                	c.j	26a <end_handler_incr_mepc>

00000240 <handle_ebreak>:

handle_ebreak:
	/* TODO support debug handling requirements.  */
	la a0, ebreak_msg
     240:	00012517          	auipc	x10,0x12
     244:	9bb50513          	addi	x10,x10,-1605 # 11bfb <ebreak_msg>
	jal ra, puts
     248:	778000ef          	jal	x1,9c0 <puts>
	j end_handler_incr_mepc
     24c:	a839                	c.j	26a <end_handler_incr_mepc>

0000024e <handle_illegal_insn>:

handle_illegal_insn:
	la a0, illegal_insn_msg
     24e:	00012517          	auipc	x10,0x12
     252:	94150513          	addi	x10,x10,-1727 # 11b8f <illegal_insn_msg>
	jal ra, puts
     256:	76a000ef          	jal	x1,9c0 <puts>
	j end_handler_incr_mepc
     25a:	a801                	c.j	26a <end_handler_incr_mepc>

0000025c <handle_unknown>:

handle_unknown:
	la a0, unknown_msg
     25c:	00012517          	auipc	x10,0x12
     260:	9cf50513          	addi	x10,x10,-1585 # 11c2b <unknown_msg>
	jal ra, puts
     264:	75c000ef          	jal	x1,9c0 <puts>
	/* We don't know what interrupt/exception is being handled, so don't
	   increment mepc.  */
	j end_handler_ret
     268:	a831                	c.j	284 <end_handler_ret>

0000026a <end_handler_incr_mepc>:

end_handler_incr_mepc:
	csrr t0, mepc
     26a:	341022f3          	csrrs	x5,mepc,x0
	lb t1, 0(t0)
     26e:	00028303          	lb	x6,0(x5)
	li a0, 0x3
     272:	450d                	c.li	x10,3
	and t1, t1, a0
     274:	00a37333          	and	x6,x6,x10
	/* Increment mepc by 2 or 4 depending on whether the instruction at mepc
	   is compressed or not.  */
	bne t1, a0, end_handler_incr_mepc2
     278:	00a31363          	bne	x6,x10,27e <end_handler_incr_mepc2>
	addi t0, t0, 2
     27c:	0289                	c.addi	x5,2

0000027e <end_handler_incr_mepc2>:
end_handler_incr_mepc2:
	addi t0, t0, 2
     27e:	0289                	c.addi	x5,2
	csrw mepc, t0
     280:	34129073          	csrrw	x0,mepc,x5

00000284 <end_handler_ret>:
end_handler_ret:
	lw ra, 0(sp)
     284:	4082                	c.lwsp	x1,0(x2)
	lw a0, 4(sp)
     286:	4512                	c.lwsp	x10,4(x2)
	lw a1, 8(sp)
     288:	45a2                	c.lwsp	x11,8(x2)
	lw a2, 12(sp)
     28a:	4632                	c.lwsp	x12,12(x2)
	lw a3, 16(sp)
     28c:	46c2                	c.lwsp	x13,16(x2)
	lw a4, 20(sp)
     28e:	4752                	c.lwsp	x14,20(x2)
	lw a5, 24(sp)
     290:	47e2                	c.lwsp	x15,24(x2)
	lw a6, 28(sp)
     292:	4872                	c.lwsp	x16,28(x2)
	lw a7, 32(sp)
     294:	5882                	c.lwsp	x17,32(x2)
	lw t0, 36(sp)
     296:	5292                	c.lwsp	x5,36(x2)
	lw t1, 40(sp)
     298:	5322                	c.lwsp	x6,40(x2)
	lw t2, 44(sp)
     29a:	53b2                	c.lwsp	x7,44(x2)
	lw t3, 48(sp)
     29c:	5e42                	c.lwsp	x28,48(x2)
	lw t4, 52(sp)
     29e:	5ed2                	c.lwsp	x29,52(x2)
	lw t5, 56(sp)
     2a0:	5f62                	c.lwsp	x30,56(x2)
	lw t6, 60(sp)
     2a2:	5ff2                	c.lwsp	x31,60(x2)
	addi sp,sp,64
     2a4:	6121                	c.addi16sp	x2,64
	mret
     2a6:	30200073          	mret

000002aa <__syscall_error>:
#endif
/* Upstream newlib now defines this in libgloss/riscv/internal_syscall.h.  */
long
__syscall_error(long a0)
{
  errno = -a0;
     2aa:	40a00533          	sub	x10,x0,x10
     2ae:	f0a1aa23          	sw	x10,-236(x3) # 12bc4 <errno>
  return -1;
}
     2b2:	557d                	c.li	x10,-1
     2b4:	8082                	c.jr	x1

000002b6 <unimplemented_syscall>:

void unimplemented_syscall()
{
  const char *p = "BSP: Unimplemented system call called!\n";
     2b6:	67c9                	c.lui	x15,0x12
     2b8:	a7878793          	addi	x15,x15,-1416 # 11a78 <__clzsi2+0x2fc>
  while (*p)
    *(volatile int *)STDOUT_REG = *(p++);
     2bc:	100006b7          	lui	x13,0x10000
  while (*p)
     2c0:	0007c703          	lbu	x14,0(x15)
     2c4:	e311                	c.bnez	x14,2c8 <unimplemented_syscall+0x12>
}
     2c6:	8082                	c.jr	x1
    *(volatile int *)STDOUT_REG = *(p++);
     2c8:	0785                	c.addi	x15,1
     2ca:	c298                	c.sw	x14,0(x13)
     2cc:	bfd5                	c.j	2c0 <unimplemented_syscall+0xa>

000002ce <nanosleep>:

int nanosleep(const struct timespec *rqtp, struct timespec *rmtp)
{
  errno = ENOSYS;
     2ce:	05800713          	addi	x14,x0,88
     2d2:	f0e1aa23          	sw	x14,-236(x3) # 12bc4 <errno>
  return -1;
}
     2d6:	557d                	c.li	x10,-1
     2d8:	8082                	c.jr	x1

000002da <_access>:

int _access(const char *file, int mode)
{
  errno = ENOSYS;
     2da:	05800713          	addi	x14,x0,88
     2de:	f0e1aa23          	sw	x14,-236(x3) # 12bc4 <errno>
  return -1;
}
     2e2:	557d                	c.li	x10,-1
     2e4:	8082                	c.jr	x1

000002e6 <_chdir>:

int _chdir(const char *path)
{
  errno = ENOSYS;
     2e6:	05800713          	addi	x14,x0,88
     2ea:	f0e1aa23          	sw	x14,-236(x3) # 12bc4 <errno>
  return -1;
}
     2ee:	557d                	c.li	x10,-1
     2f0:	8082                	c.jr	x1

000002f2 <_chmod>:

int _chmod(const char *path, mode_t mode)
{
  errno = ENOSYS;
     2f2:	05800713          	addi	x14,x0,88
     2f6:	f0e1aa23          	sw	x14,-236(x3) # 12bc4 <errno>
  return -1;
}
     2fa:	557d                	c.li	x10,-1
     2fc:	8082                	c.jr	x1

000002fe <_chown>:

int _chown(const char *path, uid_t owner, gid_t group)
{
  errno = ENOSYS;
     2fe:	05800713          	addi	x14,x0,88
     302:	f0e1aa23          	sw	x14,-236(x3) # 12bc4 <errno>
  return -1;
}
     306:	557d                	c.li	x10,-1
     308:	8082                	c.jr	x1

0000030a <_close>:

int _close(int file)
{
  return -1;
}
     30a:	557d                	c.li	x10,-1
     30c:	8082                	c.jr	x1

0000030e <_execve>:

int _execve(const char *name, char *const argv[], char *const env[])
{
  errno = ENOMEM;
     30e:	4731                	c.li	x14,12
     310:	f0e1aa23          	sw	x14,-236(x3) # 12bc4 <errno>
  return -1;
}
     314:	557d                	c.li	x10,-1
     316:	8082                	c.jr	x1

00000318 <_exit>:

void _exit(int exit_status)
{
  *(volatile int *)EXIT_REG = exit_status;
     318:	200007b7          	lui	x15,0x20000
     31c:	c3c8                	c.sw	x10,4(x15)
  asm volatile("wfi");
     31e:	10500073          	wfi
  /* _exit should not return */
  while (1) {};
     322:	a001                	c.j	322 <_exit+0xa>

00000324 <_faccessat>:
}

int _faccessat(int dirfd, const char *file, int mode, int flags)
{
  errno = ENOSYS;
     324:	05800713          	addi	x14,x0,88
     328:	f0e1aa23          	sw	x14,-236(x3) # 12bc4 <errno>
  return -1;
}
     32c:	557d                	c.li	x10,-1
     32e:	8082                	c.jr	x1

00000330 <_fork>:

int _fork(void)
{
  errno = EAGAIN;
     330:	472d                	c.li	x14,11
     332:	f0e1aa23          	sw	x14,-236(x3) # 12bc4 <errno>
  return -1;
}
     336:	557d                	c.li	x10,-1
     338:	8082                	c.jr	x1

0000033a <_fstat>:

int _fstat(int file, struct stat *st)
{
  st->st_mode = S_IFCHR;
     33a:	6789                	c.lui	x15,0x2
     33c:	c1dc                	c.sw	x15,4(x11)
  return 0;
  // errno = -ENOSYS;
  // return -1;
}
     33e:	4501                	c.li	x10,0
     340:	8082                	c.jr	x1

00000342 <_fstatat>:

int _fstatat(int dirfd, const char *file, struct stat *st, int flags)
{
  errno = ENOSYS;
     342:	05800713          	addi	x14,x0,88
     346:	f0e1aa23          	sw	x14,-236(x3) # 12bc4 <errno>
  return -1;
}
     34a:	557d                	c.li	x10,-1
     34c:	8082                	c.jr	x1

0000034e <_ftime>:

int _ftime(struct timeb *tp)
     34e:	05800713          	addi	x14,x0,88
     352:	f0e1aa23          	sw	x14,-236(x3) # 12bc4 <errno>
     356:	557d                	c.li	x10,-1
     358:	8082                	c.jr	x1

0000035a <_getcwd>:
  return -1;
}

char *_getcwd(char *buf, size_t size)
{
  errno = -ENOSYS;
     35a:	fa800713          	addi	x14,x0,-88
     35e:	f0e1aa23          	sw	x14,-236(x3) # 12bc4 <errno>
  return NULL;
}
     362:	4501                	c.li	x10,0
     364:	8082                	c.jr	x1

00000366 <_getpid>:

int _getpid()
{
  return 1;
}
     366:	4505                	c.li	x10,1
     368:	8082                	c.jr	x1

0000036a <_gettimeofday>:

int _gettimeofday(struct timeval *tp, void *tzp)
{
  errno = -ENOSYS;
     36a:	fa800713          	addi	x14,x0,-88
     36e:	f0e1aa23          	sw	x14,-236(x3) # 12bc4 <errno>
  return -1;
}
     372:	557d                	c.li	x10,-1
     374:	8082                	c.jr	x1

00000376 <_isatty>:

int _isatty(int file)
{
  return (file == STDOUT_FILENO);
     376:	157d                	c.addi	x10,-1
}
     378:	00153513          	sltiu	x10,x10,1
     37c:	8082                	c.jr	x1

0000037e <_kill>:

int _kill(int pid, int sig)
{
  errno = EINVAL;
     37e:	4759                	c.li	x14,22
     380:	f0e1aa23          	sw	x14,-236(x3) # 12bc4 <errno>
  return -1;
}
     384:	557d                	c.li	x10,-1
     386:	8082                	c.jr	x1

00000388 <_link>:

int _link(const char *old_name, const char *new_name)
{
  errno = EMLINK;
     388:	477d                	c.li	x14,31
     38a:	f0e1aa23          	sw	x14,-236(x3) # 12bc4 <errno>
  return -1;
}
     38e:	557d                	c.li	x10,-1
     390:	8082                	c.jr	x1

00000392 <_lseek>:

off_t _lseek(int file, off_t ptr, int dir)
{
  return 0;
}
     392:	4501                	c.li	x10,0
     394:	8082                	c.jr	x1

00000396 <_lstat>:

int _lstat(const char *file, struct stat *st)
     396:	05800713          	addi	x14,x0,88
     39a:	f0e1aa23          	sw	x14,-236(x3) # 12bc4 <errno>
     39e:	557d                	c.li	x10,-1
     3a0:	8082                	c.jr	x1

000003a2 <_open>:
}

int _open(const char *name, int flags, int mode)
{
  return -1;
}
     3a2:	557d                	c.li	x10,-1
     3a4:	8082                	c.jr	x1

000003a6 <_openat>:

int _openat(int dirfd, const char *name, int flags, int mode)
     3a6:	05800713          	addi	x14,x0,88
     3aa:	f0e1aa23          	sw	x14,-236(x3) # 12bc4 <errno>
     3ae:	557d                	c.li	x10,-1
     3b0:	8082                	c.jr	x1

000003b2 <_read>:
}

ssize_t _read(int file, void *ptr, size_t len)
{
  return 0;
}
     3b2:	4501                	c.li	x10,0
     3b4:	8082                	c.jr	x1

000003b6 <_stat>:

int _stat(const char *file, struct stat *st)
{
  st->st_mode = S_IFCHR;
     3b6:	6789                	c.lui	x15,0x2
     3b8:	c1dc                	c.sw	x15,4(x11)
  return 0;
  // errno = ENOSYS;
  // return -1;
}
     3ba:	4501                	c.li	x10,0
     3bc:	8082                	c.jr	x1

000003be <_sysconf>:

long _sysconf(int name)
     3be:	557d                	c.li	x10,-1
     3c0:	8082                	c.jr	x1

000003c2 <_times>:
}

clock_t _times(struct tms *buf)
{
  return -1;
}
     3c2:	557d                	c.li	x10,-1
     3c4:	8082                	c.jr	x1

000003c6 <_unlink>:

int _unlink(const char *name)
{
  errno = ENOENT;
     3c6:	4709                	c.li	x14,2
     3c8:	f0e1aa23          	sw	x14,-236(x3) # 12bc4 <errno>
  return -1;
}
     3cc:	557d                	c.li	x10,-1
     3ce:	8082                	c.jr	x1

000003d0 <_utime>:

int _utime(const char *path, const struct utimbuf *times)
     3d0:	05800713          	addi	x14,x0,88
     3d4:	f0e1aa23          	sw	x14,-236(x3) # 12bc4 <errno>
     3d8:	557d                	c.li	x10,-1
     3da:	8082                	c.jr	x1

000003dc <_wait>:
  return -1;
}

int _wait(int *status)
{
  errno = ECHILD;
     3dc:	4729                	c.li	x14,10
     3de:	f0e1aa23          	sw	x14,-236(x3) # 12bc4 <errno>
  return -1;
}
     3e2:	557d                	c.li	x10,-1
     3e4:	8082                	c.jr	x1

000003e6 <_write>:

ssize_t _write(int file, const void *ptr, size_t len)
{
  const char *cptr = (char *)ptr;
  if (file != STDOUT_FILENO)
     3e6:	4685                	c.li	x13,1
    {
      errno = ENOSYS;
      return -1;
    }

  const void *eptr = cptr + len;
     3e8:	00c587b3          	add	x15,x11,x12
  while (cptr != eptr)
    *(volatile int *)STDOUT_REG = *cptr++;
     3ec:	10000737          	lui	x14,0x10000
  if (file != STDOUT_FILENO)
     3f0:	00d50c63          	beq	x10,x13,408 <_write+0x22>
      errno = ENOSYS;
     3f4:	05800713          	addi	x14,x0,88
     3f8:	f0e1aa23          	sw	x14,-236(x3) # 12bc4 <errno>
      return -1;
     3fc:	557d                	c.li	x10,-1
     3fe:	8082                	c.jr	x1
    *(volatile int *)STDOUT_REG = *cptr++;
     400:	0005c683          	lbu	x13,0(x11)
     404:	0585                	c.addi	x11,1
     406:	c314                	c.sw	x13,0(x14)
  while (cptr != eptr)
     408:	fef59ce3          	bne	x11,x15,400 <_write+0x1a>
  return len;
     40c:	8532                	c.mv	x10,x12
}
     40e:	8082                	c.jr	x1

00000410 <_brk>:
extern char __heap_end[];
static char *brk = __heap_start;

int _brk(void *addr)
{
  brk = addr;
     410:	f0a1a023          	sw	x10,-256(x3) # 12bb0 <brk>
  return 0;
}
     414:	4501                	c.li	x10,0
     416:	8082                	c.jr	x1

00000418 <_sbrk>:

void *_sbrk(ptrdiff_t incr)
{
     418:	87aa                	c.mv	x15,x10
  char *old_brk = brk;
     41a:	f001a503          	lw	x10,-256(x3) # 12bb0 <brk>
  register long sp asm("sp");

  char *new_brk = brk += incr;
     41e:	97aa                	c.add	x15,x10
     420:	f0f1a023          	sw	x15,-256(x3) # 12bb0 <brk>
  if (new_brk < (char *) sp && new_brk < __heap_end)
     424:	0027f863          	bgeu	x15,x2,434 <_sbrk+0x1c>
     428:	00400737          	lui	x14,0x400
     42c:	00070713          	addi	x14,x14,0 # 400000 <__heap_end>
     430:	00e7e663          	bltu	x15,x14,43c <_sbrk+0x24>

      return old_brk;
    }
  else
    {
      errno = ENOMEM;
     434:	4731                	c.li	x14,12
     436:	f0e1aa23          	sw	x14,-236(x3) # 12bc4 <errno>
      return (void *) -1;
     43a:	557d                	c.li	x10,-1
    }
}
     43c:	8082                	c.jr	x1

0000043e <handle_syscall>:
    register long syscall_id asm("t0");
  #else
    long syscall_id = a7;
  #endif

  switch (syscall_id) {
     43e:	08100793          	addi	x15,x0,129
     442:	0af88c63          	beq	x17,x15,4fa <handle_syscall+0xbc>
     446:	0717c763          	blt	x15,x17,4b4 <handle_syscall+0x76>
     44a:	04000793          	addi	x15,x0,64
     44e:	0517c663          	blt	x15,x17,49a <handle_syscall+0x5c>
     452:	02f00793          	addi	x15,x0,47
     456:	0317c563          	blt	x15,x17,480 <handle_syscall+0x42>
     45a:	47c5                	c.li	x15,17
     45c:	04f89b63          	bne	x17,x15,4b2 <handle_syscall+0x74>
  errno = -ENOSYS;
     460:	fa800713          	addi	x14,x0,-88
     464:	a861                	c.j	4fc <handle_syscall+0xbe>
  switch (syscall_id) {
     466:	c0088893          	addi	x17,x17,-1024
     46a:	47bd                	c.li	x15,15
     46c:	0517e363          	bltu	x15,x17,4b2 <handle_syscall+0x74>
     470:	67c9                	c.lui	x15,0x12
     472:	c8c78793          	addi	x15,x15,-884 # 11c8c <no_exception_handler_msg+0x30>
     476:	088a                	c.slli	x17,0x2
     478:	98be                	c.add	x17,x15
     47a:	0008a783          	lw	x15,0(x17)
     47e:	8782                	c.jr	x15
     480:	fd088893          	addi	x17,x17,-48
     484:	47c1                	c.li	x15,16
     486:	0317e663          	bltu	x15,x17,4b2 <handle_syscall+0x74>
     48a:	67c9                	c.lui	x15,0x12
     48c:	ccc78793          	addi	x15,x15,-820 # 11ccc <no_exception_handler_msg+0x70>
     490:	088a                	c.slli	x17,0x2
     492:	98be                	c.add	x17,x15
     494:	0008a783          	lw	x15,0(x17)
     498:	8782                	c.jr	x15
     49a:	05000793          	addi	x15,x0,80
     49e:	06f88963          	beq	x17,x15,510 <handle_syscall+0xd2>
     4a2:	05d00793          	addi	x15,x0,93
     4a6:	04f88363          	beq	x17,x15,4ec <handle_syscall+0xae>
     4aa:	04f00793          	addi	x15,x0,79
     4ae:	04f88a63          	beq	x17,x15,502 <handle_syscall+0xc4>
      break;
    case SYS_times:
      _times ((struct tms *) a0);
      break;
    default:
      unimplemented_syscall ();
     4b2:	b511                	c.j	2b6 <unimplemented_syscall>
  switch (syscall_id) {
     4b4:	40f00793          	addi	x15,x0,1039
     4b8:	ff17cde3          	blt	x15,x17,4b2 <handle_syscall+0x74>
     4bc:	3ff00793          	addi	x15,x0,1023
     4c0:	fb17c3e3          	blt	x15,x17,466 <handle_syscall+0x28>
     4c4:	0ac00793          	addi	x15,x0,172
     4c8:	04f88763          	beq	x17,x15,516 <handle_syscall+0xd8>
     4cc:	0117c963          	blt	x15,x17,4de <handle_syscall+0xa0>
     4d0:	09900793          	addi	x15,x0,153
     4d4:	04f88163          	beq	x17,x15,516 <handle_syscall+0xd8>
     4d8:	0a900793          	addi	x15,x0,169
     4dc:	b741                	c.j	45c <handle_syscall+0x1e>
     4de:	0d600793          	addi	x15,x0,214
     4e2:	fcf898e3          	bne	x17,x15,4b2 <handle_syscall+0x74>
  brk = addr;
     4e6:	f0a1a023          	sw	x10,-256(x3) # 12bb0 <brk>
  return 0;
     4ea:	8082                	c.jr	x1
  *(volatile int *)EXIT_REG = exit_status;
     4ec:	200007b7          	lui	x15,0x20000
     4f0:	c3c8                	c.sw	x10,4(x15)
  asm volatile("wfi");
     4f2:	10500073          	wfi
  while (1) {};
     4f6:	a001                	c.j	4f6 <handle_syscall+0xb8>
      _write (a0, (const void *) a1, a2);
     4f8:	b5fd                	c.j	3e6 <_write>
  errno = EINVAL;
     4fa:	4759                	c.li	x14,22
  errno = ENOSYS;
     4fc:	f0e1aa23          	sw	x14,-236(x3) # 12bc4 <errno>
  return -1;
     500:	8082                	c.jr	x1
  errno = ENOSYS;
     502:	05800713          	addi	x14,x0,88
     506:	bfdd                	c.j	4fc <handle_syscall+0xbe>
  errno = EMLINK;
     508:	477d                	c.li	x14,31
     50a:	bfcd                	c.j	4fc <handle_syscall+0xbe>
  errno = ENOENT;
     50c:	4709                	c.li	x14,2
     50e:	b7fd                	c.j	4fc <handle_syscall+0xbe>
  st->st_mode = S_IFCHR;
     510:	6789                	c.lui	x15,0x2
     512:	c1dc                	c.sw	x15,4(x11)
  return 0;
     514:	8082                	c.jr	x1
      break;
  }
}
     516:	8082                	c.jr	x1

00000518 <exit>:
     518:	ff010113          	addi	x2,x2,-16
     51c:	00000593          	addi	x11,x0,0
     520:	00812423          	sw	x8,8(x2)
     524:	00112623          	sw	x1,12(x2)
     528:	00050413          	addi	x8,x10,0
     52c:	018000ef          	jal	x1,544 <__call_exitprocs>
     530:	f181a783          	lw	x15,-232(x3) # 12bc8 <__stdio_exit_handler>
     534:	00078463          	beq	x15,x0,53c <exit+0x24>
     538:	000780e7          	jalr	x1,0(x15) # 2000 <_vfprintf_r+0x620>
     53c:	00040513          	addi	x10,x8,0
     540:	dd9ff0ef          	jal	x1,318 <_exit>

00000544 <__call_exitprocs>:
     544:	fd010113          	addi	x2,x2,-48
     548:	01412c23          	sw	x20,24(x2)
     54c:	f1018a13          	addi	x20,x3,-240 # 12bc0 <__atexit>
     550:	03212023          	sw	x18,32(x2)
     554:	000a2903          	lw	x18,0(x20)
     558:	02112623          	sw	x1,44(x2)
     55c:	06090c63          	beq	x18,x0,5d4 <__call_exitprocs+0x90>
     560:	01312e23          	sw	x19,28(x2)
     564:	01512a23          	sw	x21,20(x2)
     568:	01612823          	sw	x22,16(x2)
     56c:	01712623          	sw	x23,12(x2)
     570:	02812423          	sw	x8,40(x2)
     574:	02912223          	sw	x9,36(x2)
     578:	01812423          	sw	x24,8(x2)
     57c:	00050b13          	addi	x22,x10,0
     580:	00058b93          	addi	x23,x11,0
     584:	fff00993          	addi	x19,x0,-1
     588:	00100a93          	addi	x21,x0,1
     58c:	00492483          	lw	x9,4(x18)
     590:	fff48413          	addi	x8,x9,-1
     594:	02044263          	blt	x8,x0,5b8 <__call_exitprocs+0x74>
     598:	00249493          	slli	x9,x9,0x2
     59c:	009904b3          	add	x9,x18,x9
     5a0:	040b8463          	beq	x23,x0,5e8 <__call_exitprocs+0xa4>
     5a4:	1044a783          	lw	x15,260(x9)
     5a8:	05778063          	beq	x15,x23,5e8 <__call_exitprocs+0xa4>
     5ac:	fff40413          	addi	x8,x8,-1
     5b0:	ffc48493          	addi	x9,x9,-4
     5b4:	ff3418e3          	bne	x8,x19,5a4 <__call_exitprocs+0x60>
     5b8:	02812403          	lw	x8,40(x2)
     5bc:	02412483          	lw	x9,36(x2)
     5c0:	01c12983          	lw	x19,28(x2)
     5c4:	01412a83          	lw	x21,20(x2)
     5c8:	01012b03          	lw	x22,16(x2)
     5cc:	00c12b83          	lw	x23,12(x2)
     5d0:	00812c03          	lw	x24,8(x2)
     5d4:	02c12083          	lw	x1,44(x2)
     5d8:	02012903          	lw	x18,32(x2)
     5dc:	01812a03          	lw	x20,24(x2)
     5e0:	03010113          	addi	x2,x2,48
     5e4:	00008067          	jalr	x0,0(x1)
     5e8:	00492783          	lw	x15,4(x18)
     5ec:	0044a683          	lw	x13,4(x9)
     5f0:	fff78793          	addi	x15,x15,-1
     5f4:	06878a63          	beq	x15,x8,668 <__call_exitprocs+0x124>
     5f8:	0004a223          	sw	x0,4(x9)
     5fc:	02068663          	beq	x13,x0,628 <__call_exitprocs+0xe4>
     600:	18892783          	lw	x15,392(x18)
     604:	008a9733          	sll	x14,x21,x8
     608:	00492c03          	lw	x24,4(x18)
     60c:	00f777b3          	and	x15,x14,x15
     610:	02079463          	bne	x15,x0,638 <__call_exitprocs+0xf4>
     614:	000680e7          	jalr	x1,0(x13) # 10000000 <__heap_end+0xfc00000>
     618:	00492703          	lw	x14,4(x18)
     61c:	000a2783          	lw	x15,0(x20)
     620:	03871e63          	bne	x14,x24,65c <__call_exitprocs+0x118>
     624:	03279c63          	bne	x15,x18,65c <__call_exitprocs+0x118>
     628:	fff40413          	addi	x8,x8,-1
     62c:	ffc48493          	addi	x9,x9,-4
     630:	f73418e3          	bne	x8,x19,5a0 <__call_exitprocs+0x5c>
     634:	f85ff06f          	jal	x0,5b8 <__call_exitprocs+0x74>
     638:	18c92783          	lw	x15,396(x18)
     63c:	0844a583          	lw	x11,132(x9)
     640:	00f77733          	and	x14,x14,x15
     644:	02071663          	bne	x14,x0,670 <__call_exitprocs+0x12c>
     648:	000b0513          	addi	x10,x22,0
     64c:	000680e7          	jalr	x1,0(x13)
     650:	00492703          	lw	x14,4(x18)
     654:	000a2783          	lw	x15,0(x20)
     658:	fd8706e3          	beq	x14,x24,624 <__call_exitprocs+0xe0>
     65c:	f4078ee3          	beq	x15,x0,5b8 <__call_exitprocs+0x74>
     660:	00078913          	addi	x18,x15,0
     664:	f29ff06f          	jal	x0,58c <__call_exitprocs+0x48>
     668:	00892223          	sw	x8,4(x18)
     66c:	f91ff06f          	jal	x0,5fc <__call_exitprocs+0xb8>
     670:	00058513          	addi	x10,x11,0
     674:	000680e7          	jalr	x1,0(x13)
     678:	fa1ff06f          	jal	x0,618 <__call_exitprocs+0xd4>

0000067c <__libc_init_array>:
     67c:	ff010113          	addi	x2,x2,-16
     680:	00812423          	sw	x8,8(x2)
     684:	01212023          	sw	x18,0(x2)
     688:	00012797          	auipc	x15,0x12
     68c:	e2478793          	addi	x15,x15,-476 # 124ac <__init_array_start>
     690:	00012417          	auipc	x8,0x12
     694:	e1c40413          	addi	x8,x8,-484 # 124ac <__init_array_start>
     698:	00112623          	sw	x1,12(x2)
     69c:	00912223          	sw	x9,4(x2)
     6a0:	40878933          	sub	x18,x15,x8
     6a4:	02878063          	beq	x15,x8,6c4 <__libc_init_array+0x48>
     6a8:	40295913          	srai	x18,x18,0x2
     6ac:	00000493          	addi	x9,x0,0
     6b0:	00042783          	lw	x15,0(x8)
     6b4:	00148493          	addi	x9,x9,1
     6b8:	00440413          	addi	x8,x8,4
     6bc:	000780e7          	jalr	x1,0(x15)
     6c0:	ff24e8e3          	bltu	x9,x18,6b0 <__libc_init_array+0x34>
     6c4:	00012797          	auipc	x15,0x12
     6c8:	dec78793          	addi	x15,x15,-532 # 124b0 <_impure_data>
     6cc:	00012417          	auipc	x8,0x12
     6d0:	de040413          	addi	x8,x8,-544 # 124ac <__init_array_start>
     6d4:	40878933          	sub	x18,x15,x8
     6d8:	40295913          	srai	x18,x18,0x2
     6dc:	00878e63          	beq	x15,x8,6f8 <__libc_init_array+0x7c>
     6e0:	00000493          	addi	x9,x0,0
     6e4:	00042783          	lw	x15,0(x8)
     6e8:	00148493          	addi	x9,x9,1
     6ec:	00440413          	addi	x8,x8,4
     6f0:	000780e7          	jalr	x1,0(x15)
     6f4:	ff24e8e3          	bltu	x9,x18,6e4 <__libc_init_array+0x68>
     6f8:	00c12083          	lw	x1,12(x2)
     6fc:	00812403          	lw	x8,8(x2)
     700:	00412483          	lw	x9,4(x2)
     704:	00012903          	lw	x18,0(x2)
     708:	01010113          	addi	x2,x2,16
     70c:	00008067          	jalr	x0,0(x1)

00000710 <__libc_fini_array>:
     710:	ff010113          	addi	x2,x2,-16
     714:	00812423          	sw	x8,8(x2)
     718:	00012797          	auipc	x15,0x12
     71c:	d9878793          	addi	x15,x15,-616 # 124b0 <_impure_data>
     720:	00012417          	auipc	x8,0x12
     724:	d9040413          	addi	x8,x8,-624 # 124b0 <_impure_data>
     728:	40f40433          	sub	x8,x8,x15
     72c:	00912223          	sw	x9,4(x2)
     730:	00112623          	sw	x1,12(x2)
     734:	40245493          	srai	x9,x8,0x2
     738:	02048063          	beq	x9,x0,758 <__libc_fini_array+0x48>
     73c:	ffc40413          	addi	x8,x8,-4
     740:	00f40433          	add	x8,x8,x15
     744:	00042783          	lw	x15,0(x8)
     748:	fff48493          	addi	x9,x9,-1
     74c:	ffc40413          	addi	x8,x8,-4
     750:	000780e7          	jalr	x1,0(x15)
     754:	fe0498e3          	bne	x9,x0,744 <__libc_fini_array+0x34>
     758:	00c12083          	lw	x1,12(x2)
     75c:	00812403          	lw	x8,8(x2)
     760:	00412483          	lw	x9,4(x2)
     764:	01010113          	addi	x2,x2,16
     768:	00008067          	jalr	x0,0(x1)

0000076c <memset>:
     76c:	00f00313          	addi	x6,x0,15
     770:	00050713          	addi	x14,x10,0
     774:	02c37e63          	bgeu	x6,x12,7b0 <memset+0x44>
     778:	00f77793          	andi	x15,x14,15
     77c:	0a079063          	bne	x15,x0,81c <memset+0xb0>
     780:	08059263          	bne	x11,x0,804 <memset+0x98>
     784:	ff067693          	andi	x13,x12,-16
     788:	00f67613          	andi	x12,x12,15
     78c:	00e686b3          	add	x13,x13,x14
     790:	00b72023          	sw	x11,0(x14)
     794:	00b72223          	sw	x11,4(x14)
     798:	00b72423          	sw	x11,8(x14)
     79c:	00b72623          	sw	x11,12(x14)
     7a0:	01070713          	addi	x14,x14,16
     7a4:	fed766e3          	bltu	x14,x13,790 <memset+0x24>
     7a8:	00061463          	bne	x12,x0,7b0 <memset+0x44>
     7ac:	00008067          	jalr	x0,0(x1)
     7b0:	40c306b3          	sub	x13,x6,x12
     7b4:	00269693          	slli	x13,x13,0x2
     7b8:	00000297          	auipc	x5,0x0
     7bc:	005686b3          	add	x13,x13,x5
     7c0:	00c68067          	jalr	x0,12(x13)
     7c4:	00b70723          	sb	x11,14(x14)
     7c8:	00b706a3          	sb	x11,13(x14)
     7cc:	00b70623          	sb	x11,12(x14)
     7d0:	00b705a3          	sb	x11,11(x14)
     7d4:	00b70523          	sb	x11,10(x14)
     7d8:	00b704a3          	sb	x11,9(x14)
     7dc:	00b70423          	sb	x11,8(x14)
     7e0:	00b703a3          	sb	x11,7(x14)
     7e4:	00b70323          	sb	x11,6(x14)
     7e8:	00b702a3          	sb	x11,5(x14)
     7ec:	00b70223          	sb	x11,4(x14)
     7f0:	00b701a3          	sb	x11,3(x14)
     7f4:	00b70123          	sb	x11,2(x14)
     7f8:	00b700a3          	sb	x11,1(x14)
     7fc:	00b70023          	sb	x11,0(x14)
     800:	00008067          	jalr	x0,0(x1)
     804:	0ff5f593          	andi	x11,x11,255
     808:	00859693          	slli	x13,x11,0x8
     80c:	00d5e5b3          	or	x11,x11,x13
     810:	01059693          	slli	x13,x11,0x10
     814:	00d5e5b3          	or	x11,x11,x13
     818:	f6dff06f          	jal	x0,784 <memset+0x18>
     81c:	00279693          	slli	x13,x15,0x2
     820:	00000297          	auipc	x5,0x0
     824:	005686b3          	add	x13,x13,x5
     828:	00008293          	addi	x5,x1,0
     82c:	fa0680e7          	jalr	x1,-96(x13)
     830:	00028093          	addi	x1,x5,0 # 820 <memset+0xb4>
     834:	ff078793          	addi	x15,x15,-16
     838:	40f70733          	sub	x14,x14,x15
     83c:	00f60633          	add	x12,x12,x15
     840:	f6c378e3          	bgeu	x6,x12,7b0 <memset+0x44>
     844:	f3dff06f          	jal	x0,780 <memset+0x14>

00000848 <_printf_r>:
     848:	fc010113          	addi	x2,x2,-64
     84c:	02c12423          	sw	x12,40(x2)
     850:	02d12623          	sw	x13,44(x2)
     854:	02e12823          	sw	x14,48(x2)
     858:	02f12a23          	sw	x15,52(x2)
     85c:	03012c23          	sw	x16,56(x2)
     860:	03112e23          	sw	x17,60(x2)
     864:	00058613          	addi	x12,x11,0
     868:	00852583          	lw	x11,8(x10)
     86c:	02810693          	addi	x13,x2,40
     870:	00112e23          	sw	x1,28(x2)
     874:	00d12623          	sw	x13,12(x2)
     878:	168010ef          	jal	x1,19e0 <_vfprintf_r>
     87c:	01c12083          	lw	x1,28(x2)
     880:	04010113          	addi	x2,x2,64
     884:	00008067          	jalr	x0,0(x1)

00000888 <printf>:
     888:	fc010113          	addi	x2,x2,-64
     88c:	02c12423          	sw	x12,40(x2)
     890:	02d12623          	sw	x13,44(x2)
     894:	f041a303          	lw	x6,-252(x3) # 12bb4 <_impure_ptr>
     898:	02b12223          	sw	x11,36(x2)
     89c:	02e12823          	sw	x14,48(x2)
     8a0:	02f12a23          	sw	x15,52(x2)
     8a4:	03012c23          	sw	x16,56(x2)
     8a8:	03112e23          	sw	x17,60(x2)
     8ac:	00832583          	lw	x11,8(x6)
     8b0:	02410693          	addi	x13,x2,36
     8b4:	00050613          	addi	x12,x10,0
     8b8:	00030513          	addi	x10,x6,0
     8bc:	00112e23          	sw	x1,28(x2)
     8c0:	00d12623          	sw	x13,12(x2)
     8c4:	11c010ef          	jal	x1,19e0 <_vfprintf_r>
     8c8:	01c12083          	lw	x1,28(x2)
     8cc:	04010113          	addi	x2,x2,64
     8d0:	00008067          	jalr	x0,0(x1)

000008d4 <_putchar_r>:
     8d4:	00852603          	lw	x12,8(x10)
     8d8:	19c0606f          	jal	x0,6a74 <_putc_r>

000008dc <putchar>:
     8dc:	f041a783          	lw	x15,-252(x3) # 12bb4 <_impure_ptr>
     8e0:	0087a603          	lw	x12,8(x15)
     8e4:	00050593          	addi	x11,x10,0
     8e8:	00078513          	addi	x10,x15,0
     8ec:	1880606f          	jal	x0,6a74 <_putc_r>

000008f0 <_puts_r>:
     8f0:	fc010113          	addi	x2,x2,-64
     8f4:	02812c23          	sw	x8,56(x2)
     8f8:	00050413          	addi	x8,x10,0
     8fc:	00058513          	addi	x10,x11,0
     900:	02912a23          	sw	x9,52(x2)
     904:	02112e23          	sw	x1,60(x2)
     908:	00058493          	addi	x9,x11,0
     90c:	551050ef          	jal	x1,665c <strlen>
     910:	00150713          	addi	x14,x10,1
     914:	00011697          	auipc	x13,0x11
     918:	18c68693          	addi	x13,x13,396 # 11aa0 <__clzsi2+0x324>
     91c:	00e12e23          	sw	x14,28(x2)
     920:	03442783          	lw	x15,52(x8)
     924:	02010713          	addi	x14,x2,32
     928:	02d12423          	sw	x13,40(x2)
     92c:	00e12a23          	sw	x14,20(x2)
     930:	00100693          	addi	x13,x0,1
     934:	00200713          	addi	x14,x0,2
     938:	02912023          	sw	x9,32(x2)
     93c:	02a12223          	sw	x10,36(x2)
     940:	02d12623          	sw	x13,44(x2)
     944:	00e12c23          	sw	x14,24(x2)
     948:	00842583          	lw	x11,8(x8)
     94c:	06078063          	beq	x15,x0,9ac <_puts_r+0xbc>
     950:	00c59783          	lh	x15,12(x11)
     954:	01279713          	slli	x14,x15,0x12
     958:	02074263          	blt	x14,x0,97c <_puts_r+0x8c>
     95c:	0645a703          	lw	x14,100(x11)
     960:	000026b7          	lui	x13,0x2
     964:	00d7e7b3          	or	x15,x15,x13
     968:	ffffe6b7          	lui	x13,0xffffe
     96c:	fff68693          	addi	x13,x13,-1 # ffffdfff <__heap_end+0xffbfdfff>
     970:	00d77733          	and	x14,x14,x13
     974:	00f59623          	sh	x15,12(x11)
     978:	06e5a223          	sw	x14,100(x11)
     97c:	01410613          	addi	x12,x2,20
     980:	00040513          	addi	x10,x8,0
     984:	251000ef          	jal	x1,13d4 <__sfvwrite_r>
     988:	03c12083          	lw	x1,60(x2)
     98c:	03812403          	lw	x8,56(x2)
     990:	00153513          	sltiu	x10,x10,1
     994:	40a00533          	sub	x10,x0,x10
     998:	00b57513          	andi	x10,x10,11
     99c:	03412483          	lw	x9,52(x2)
     9a0:	fff50513          	addi	x10,x10,-1
     9a4:	04010113          	addi	x2,x2,64
     9a8:	00008067          	jalr	x0,0(x1)
     9ac:	00040513          	addi	x10,x8,0
     9b0:	00b12623          	sw	x11,12(x2)
     9b4:	3f4000ef          	jal	x1,da8 <__sinit>
     9b8:	00c12583          	lw	x11,12(x2)
     9bc:	f95ff06f          	jal	x0,950 <_puts_r+0x60>

000009c0 <puts>:
     9c0:	00050593          	addi	x11,x10,0
     9c4:	f041a503          	lw	x10,-252(x3) # 12bb4 <_impure_ptr>
     9c8:	f29ff06f          	jal	x0,8f0 <_puts_r>

000009cc <atexit>:
     9cc:	00050593          	addi	x11,x10,0
     9d0:	00000693          	addi	x13,x0,0
     9d4:	00000613          	addi	x12,x0,0
     9d8:	00000513          	addi	x10,x0,0
     9dc:	7650406f          	jal	x0,5940 <__register_exitproc>

000009e0 <_reclaim_reent>:
     9e0:	f041a783          	lw	x15,-252(x3) # 12bb4 <_impure_ptr>
     9e4:	0aa78e63          	beq	x15,x10,aa0 <_reclaim_reent+0xc0>
     9e8:	04452583          	lw	x11,68(x10)
     9ec:	fe010113          	addi	x2,x2,-32
     9f0:	00912a23          	sw	x9,20(x2)
     9f4:	00112e23          	sw	x1,28(x2)
     9f8:	00050493          	addi	x9,x10,0
     9fc:	04058c63          	beq	x11,x0,a54 <_reclaim_reent+0x74>
     a00:	01212823          	sw	x18,16(x2)
     a04:	01312623          	sw	x19,12(x2)
     a08:	00812c23          	sw	x8,24(x2)
     a0c:	00000913          	addi	x18,x0,0
     a10:	08000993          	addi	x19,x0,128
     a14:	012587b3          	add	x15,x11,x18
     a18:	0007a403          	lw	x8,0(x15)
     a1c:	00040e63          	beq	x8,x0,a38 <_reclaim_reent+0x58>
     a20:	00040593          	addi	x11,x8,0
     a24:	00042403          	lw	x8,0(x8)
     a28:	00048513          	addi	x10,x9,0
     a2c:	508000ef          	jal	x1,f34 <_free_r>
     a30:	fe0418e3          	bne	x8,x0,a20 <_reclaim_reent+0x40>
     a34:	0444a583          	lw	x11,68(x9)
     a38:	00490913          	addi	x18,x18,4
     a3c:	fd391ce3          	bne	x18,x19,a14 <_reclaim_reent+0x34>
     a40:	00048513          	addi	x10,x9,0
     a44:	4f0000ef          	jal	x1,f34 <_free_r>
     a48:	01812403          	lw	x8,24(x2)
     a4c:	01012903          	lw	x18,16(x2)
     a50:	00c12983          	lw	x19,12(x2)
     a54:	0384a583          	lw	x11,56(x9)
     a58:	00058663          	beq	x11,x0,a64 <_reclaim_reent+0x84>
     a5c:	00048513          	addi	x10,x9,0
     a60:	4d4000ef          	jal	x1,f34 <_free_r>
     a64:	04c4a583          	lw	x11,76(x9)
     a68:	00058663          	beq	x11,x0,a74 <_reclaim_reent+0x94>
     a6c:	00048513          	addi	x10,x9,0
     a70:	4c4000ef          	jal	x1,f34 <_free_r>
     a74:	0344a783          	lw	x15,52(x9)
     a78:	00078c63          	beq	x15,x0,a90 <_reclaim_reent+0xb0>
     a7c:	01c12083          	lw	x1,28(x2)
     a80:	00048513          	addi	x10,x9,0
     a84:	01412483          	lw	x9,20(x2)
     a88:	02010113          	addi	x2,x2,32
     a8c:	00078067          	jalr	x0,0(x15)
     a90:	01c12083          	lw	x1,28(x2)
     a94:	01412483          	lw	x9,20(x2)
     a98:	02010113          	addi	x2,x2,32
     a9c:	00008067          	jalr	x0,0(x1)
     aa0:	00008067          	jalr	x0,0(x1)

00000aa4 <__fp_lock>:
     aa4:	00000513          	addi	x10,x0,0
     aa8:	00008067          	jalr	x0,0(x1)

00000aac <stdio_exit_handler>:
     aac:	92018613          	addi	x12,x3,-1760 # 125d0 <__sglue>
     ab0:	00005597          	auipc	x11,0x5
     ab4:	7d858593          	addi	x11,x11,2008 # 6288 <_fclose_r>
     ab8:	00012517          	auipc	x10,0x12
     abc:	9f850513          	addi	x10,x10,-1544 # 124b0 <_impure_data>
     ac0:	66d0006f          	jal	x0,192c <_fwalk_sglue>

00000ac4 <cleanup_stdio>:
     ac4:	00452583          	lw	x11,4(x10)
     ac8:	ff010113          	addi	x2,x2,-16
     acc:	00812423          	sw	x8,8(x2)
     ad0:	00112623          	sw	x1,12(x2)
     ad4:	f2c18793          	addi	x15,x3,-212 # 12bdc <__sf>
     ad8:	00050413          	addi	x8,x10,0
     adc:	00f58463          	beq	x11,x15,ae4 <cleanup_stdio+0x20>
     ae0:	7a8050ef          	jal	x1,6288 <_fclose_r>
     ae4:	00842583          	lw	x11,8(x8)
     ae8:	f9418793          	addi	x15,x3,-108 # 12c44 <__sf+0x68>
     aec:	00f58663          	beq	x11,x15,af8 <cleanup_stdio+0x34>
     af0:	00040513          	addi	x10,x8,0
     af4:	794050ef          	jal	x1,6288 <_fclose_r>
     af8:	00c42583          	lw	x11,12(x8)
     afc:	ffc18793          	addi	x15,x3,-4 # 12cac <__sf+0xd0>
     b00:	00f58c63          	beq	x11,x15,b18 <cleanup_stdio+0x54>
     b04:	00040513          	addi	x10,x8,0
     b08:	00812403          	lw	x8,8(x2)
     b0c:	00c12083          	lw	x1,12(x2)
     b10:	01010113          	addi	x2,x2,16
     b14:	7740506f          	jal	x0,6288 <_fclose_r>
     b18:	00c12083          	lw	x1,12(x2)
     b1c:	00812403          	lw	x8,8(x2)
     b20:	01010113          	addi	x2,x2,16
     b24:	00008067          	jalr	x0,0(x1)

00000b28 <__fp_unlock>:
     b28:	00000513          	addi	x10,x0,0
     b2c:	00008067          	jalr	x0,0(x1)

00000b30 <global_stdio_init.part.0>:
     b30:	fe010113          	addi	x2,x2,-32
     b34:	00000797          	auipc	x15,0x0
     b38:	f7878793          	addi	x15,x15,-136 # aac <stdio_exit_handler>
     b3c:	00112e23          	sw	x1,28(x2)
     b40:	00812c23          	sw	x8,24(x2)
     b44:	00912a23          	sw	x9,20(x2)
     b48:	f2c18413          	addi	x8,x3,-212 # 12bdc <__sf>
     b4c:	01212823          	sw	x18,16(x2)
     b50:	01312623          	sw	x19,12(x2)
     b54:	01412423          	sw	x20,8(x2)
     b58:	00800613          	addi	x12,x0,8
     b5c:	00000593          	addi	x11,x0,0
     b60:	f0f1ac23          	sw	x15,-232(x3) # 12bc8 <__stdio_exit_handler>
     b64:	f8818513          	addi	x10,x3,-120 # 12c38 <__sf+0x5c>
     b68:	00400793          	addi	x15,x0,4
     b6c:	00f42623          	sw	x15,12(x8)
     b70:	00042023          	sw	x0,0(x8)
     b74:	00042223          	sw	x0,4(x8)
     b78:	00042423          	sw	x0,8(x8)
     b7c:	06042223          	sw	x0,100(x8)
     b80:	00042823          	sw	x0,16(x8)
     b84:	00042a23          	sw	x0,20(x8)
     b88:	00042c23          	sw	x0,24(x8)
     b8c:	be1ff0ef          	jal	x1,76c <memset>
     b90:	000107b7          	lui	x15,0x10
     b94:	00000a17          	auipc	x20,0x0
     b98:	698a0a13          	addi	x20,x20,1688 # 122c <__sread>
     b9c:	00000997          	auipc	x19,0x0
     ba0:	6f498993          	addi	x19,x19,1780 # 1290 <__swrite>
     ba4:	00000917          	auipc	x18,0x0
     ba8:	77490913          	addi	x18,x18,1908 # 1318 <__sseek>
     bac:	00000497          	auipc	x9,0x0
     bb0:	7d048493          	addi	x9,x9,2000 # 137c <__sclose>
     bb4:	00978793          	addi	x15,x15,9 # 10009 <__subtf3+0x579>
     bb8:	00800613          	addi	x12,x0,8
     bbc:	00000593          	addi	x11,x0,0
     bc0:	ff018513          	addi	x10,x3,-16 # 12ca0 <__sf+0xc4>
     bc4:	03442023          	sw	x20,32(x8)
     bc8:	03342223          	sw	x19,36(x8)
     bcc:	03242423          	sw	x18,40(x8)
     bd0:	02942623          	sw	x9,44(x8)
     bd4:	06f42a23          	sw	x15,116(x8)
     bd8:	00842e23          	sw	x8,28(x8)
     bdc:	06042423          	sw	x0,104(x8)
     be0:	06042623          	sw	x0,108(x8)
     be4:	06042823          	sw	x0,112(x8)
     be8:	0c042623          	sw	x0,204(x8)
     bec:	06042c23          	sw	x0,120(x8)
     bf0:	06042e23          	sw	x0,124(x8)
     bf4:	08042023          	sw	x0,128(x8)
     bf8:	b75ff0ef          	jal	x1,76c <memset>
     bfc:	f9418793          	addi	x15,x3,-108 # 12c44 <__sf+0x68>
     c00:	08f42223          	sw	x15,132(x8)
     c04:	000207b7          	lui	x15,0x20
     c08:	01278793          	addi	x15,x15,18 # 20012 <__heap_start+0xd142>
     c0c:	00800613          	addi	x12,x0,8
     c10:	00000593          	addi	x11,x0,0
     c14:	05818513          	addi	x10,x3,88 # 12d08 <__global_pointer$+0x58>
     c18:	09442423          	sw	x20,136(x8)
     c1c:	09342623          	sw	x19,140(x8)
     c20:	09242823          	sw	x18,144(x8)
     c24:	08942a23          	sw	x9,148(x8)
     c28:	0cf42e23          	sw	x15,220(x8)
     c2c:	0c042823          	sw	x0,208(x8)
     c30:	0c042a23          	sw	x0,212(x8)
     c34:	0c042c23          	sw	x0,216(x8)
     c38:	12042a23          	sw	x0,308(x8)
     c3c:	0e042023          	sw	x0,224(x8)
     c40:	0e042223          	sw	x0,228(x8)
     c44:	0e042423          	sw	x0,232(x8)
     c48:	b25ff0ef          	jal	x1,76c <memset>
     c4c:	ffc18793          	addi	x15,x3,-4 # 12cac <__sf+0xd0>
     c50:	0f442823          	sw	x20,240(x8)
     c54:	0f342a23          	sw	x19,244(x8)
     c58:	0f242c23          	sw	x18,248(x8)
     c5c:	0e942e23          	sw	x9,252(x8)
     c60:	01c12083          	lw	x1,28(x2)
     c64:	0ef42623          	sw	x15,236(x8)
     c68:	01812403          	lw	x8,24(x2)
     c6c:	01412483          	lw	x9,20(x2)
     c70:	01012903          	lw	x18,16(x2)
     c74:	00c12983          	lw	x19,12(x2)
     c78:	00812a03          	lw	x20,8(x2)
     c7c:	02010113          	addi	x2,x2,32
     c80:	00008067          	jalr	x0,0(x1)

00000c84 <__sfp>:
     c84:	fe010113          	addi	x2,x2,-32
     c88:	01312623          	sw	x19,12(x2)
     c8c:	00112e23          	sw	x1,28(x2)
     c90:	00812c23          	sw	x8,24(x2)
     c94:	00912a23          	sw	x9,20(x2)
     c98:	01212823          	sw	x18,16(x2)
     c9c:	f181a783          	lw	x15,-232(x3) # 12bc8 <__stdio_exit_handler>
     ca0:	00050993          	addi	x19,x10,0
     ca4:	0e078663          	beq	x15,x0,d90 <__sfp+0x10c>
     ca8:	92018913          	addi	x18,x3,-1760 # 125d0 <__sglue>
     cac:	fff00493          	addi	x9,x0,-1
     cb0:	00492783          	lw	x15,4(x18)
     cb4:	00892403          	lw	x8,8(x18)
     cb8:	fff78793          	addi	x15,x15,-1
     cbc:	0007d863          	bge	x15,x0,ccc <__sfp+0x48>
     cc0:	0800006f          	jal	x0,d40 <__sfp+0xbc>
     cc4:	06840413          	addi	x8,x8,104
     cc8:	06978c63          	beq	x15,x9,d40 <__sfp+0xbc>
     ccc:	00c41703          	lh	x14,12(x8)
     cd0:	fff78793          	addi	x15,x15,-1
     cd4:	fe0718e3          	bne	x14,x0,cc4 <__sfp+0x40>
     cd8:	ffff07b7          	lui	x15,0xffff0
     cdc:	00178793          	addi	x15,x15,1 # ffff0001 <__heap_end+0xffbf0001>
     ce0:	00f42623          	sw	x15,12(x8)
     ce4:	06042223          	sw	x0,100(x8)
     ce8:	00042023          	sw	x0,0(x8)
     cec:	00042423          	sw	x0,8(x8)
     cf0:	00042223          	sw	x0,4(x8)
     cf4:	00042823          	sw	x0,16(x8)
     cf8:	00042a23          	sw	x0,20(x8)
     cfc:	00042c23          	sw	x0,24(x8)
     d00:	00800613          	addi	x12,x0,8
     d04:	00000593          	addi	x11,x0,0
     d08:	05c40513          	addi	x10,x8,92
     d0c:	a61ff0ef          	jal	x1,76c <memset>
     d10:	02042823          	sw	x0,48(x8)
     d14:	02042a23          	sw	x0,52(x8)
     d18:	04042223          	sw	x0,68(x8)
     d1c:	04042423          	sw	x0,72(x8)
     d20:	01c12083          	lw	x1,28(x2)
     d24:	00040513          	addi	x10,x8,0
     d28:	01812403          	lw	x8,24(x2)
     d2c:	01412483          	lw	x9,20(x2)
     d30:	01012903          	lw	x18,16(x2)
     d34:	00c12983          	lw	x19,12(x2)
     d38:	02010113          	addi	x2,x2,32
     d3c:	00008067          	jalr	x0,0(x1)
     d40:	00092403          	lw	x8,0(x18)
     d44:	00040663          	beq	x8,x0,d50 <__sfp+0xcc>
     d48:	00040913          	addi	x18,x8,0
     d4c:	f65ff06f          	jal	x0,cb0 <__sfp+0x2c>
     d50:	1ac00593          	addi	x11,x0,428
     d54:	00098513          	addi	x10,x19,0
     d58:	481040ef          	jal	x1,59d8 <_malloc_r>
     d5c:	00050413          	addi	x8,x10,0
     d60:	02050c63          	beq	x10,x0,d98 <__sfp+0x114>
     d64:	00c50513          	addi	x10,x10,12
     d68:	00400793          	addi	x15,x0,4
     d6c:	00042023          	sw	x0,0(x8)
     d70:	00f42223          	sw	x15,4(x8)
     d74:	00a42423          	sw	x10,8(x8)
     d78:	1a000613          	addi	x12,x0,416
     d7c:	00000593          	addi	x11,x0,0
     d80:	9edff0ef          	jal	x1,76c <memset>
     d84:	00892023          	sw	x8,0(x18)
     d88:	00040913          	addi	x18,x8,0
     d8c:	f25ff06f          	jal	x0,cb0 <__sfp+0x2c>
     d90:	da1ff0ef          	jal	x1,b30 <global_stdio_init.part.0>
     d94:	f15ff06f          	jal	x0,ca8 <__sfp+0x24>
     d98:	00092023          	sw	x0,0(x18)
     d9c:	00c00793          	addi	x15,x0,12
     da0:	00f9a023          	sw	x15,0(x19)
     da4:	f7dff06f          	jal	x0,d20 <__sfp+0x9c>

00000da8 <__sinit>:
     da8:	03452783          	lw	x15,52(x10)
     dac:	00078463          	beq	x15,x0,db4 <__sinit+0xc>
     db0:	00008067          	jalr	x0,0(x1)
     db4:	00000797          	auipc	x15,0x0
     db8:	d1078793          	addi	x15,x15,-752 # ac4 <cleanup_stdio>
     dbc:	02f52a23          	sw	x15,52(x10)
     dc0:	f181a783          	lw	x15,-232(x3) # 12bc8 <__stdio_exit_handler>
     dc4:	fe0796e3          	bne	x15,x0,db0 <__sinit+0x8>
     dc8:	d69ff06f          	jal	x0,b30 <global_stdio_init.part.0>

00000dcc <__sfp_lock_acquire>:
     dcc:	00008067          	jalr	x0,0(x1)

00000dd0 <__sfp_lock_release>:
     dd0:	00008067          	jalr	x0,0(x1)

00000dd4 <__fp_lock_all>:
     dd4:	92018613          	addi	x12,x3,-1760 # 125d0 <__sglue>
     dd8:	00000597          	auipc	x11,0x0
     ddc:	ccc58593          	addi	x11,x11,-820 # aa4 <__fp_lock>
     de0:	00000513          	addi	x10,x0,0
     de4:	3490006f          	jal	x0,192c <_fwalk_sglue>

00000de8 <__fp_unlock_all>:
     de8:	92018613          	addi	x12,x3,-1760 # 125d0 <__sglue>
     dec:	00000597          	auipc	x11,0x0
     df0:	d3c58593          	addi	x11,x11,-708 # b28 <__fp_unlock>
     df4:	00000513          	addi	x10,x0,0
     df8:	3350006f          	jal	x0,192c <_fwalk_sglue>

00000dfc <_malloc_trim_r>:
     dfc:	fe010113          	addi	x2,x2,-32
     e00:	00812c23          	sw	x8,24(x2)
     e04:	00912a23          	sw	x9,20(x2)
     e08:	01212823          	sw	x18,16(x2)
     e0c:	01312623          	sw	x19,12(x2)
     e10:	01412423          	sw	x20,8(x2)
     e14:	00058993          	addi	x19,x11,0
     e18:	00112e23          	sw	x1,28(x2)
     e1c:	00050913          	addi	x18,x10,0
     e20:	00011a17          	auipc	x20,0x11
     e24:	7bca0a13          	addi	x20,x20,1980 # 125dc <__malloc_av_>
     e28:	581050ef          	jal	x1,6ba8 <__malloc_lock>
     e2c:	008a2783          	lw	x15,8(x20)
     e30:	00001437          	lui	x8,0x1
     e34:	fef40413          	addi	x8,x8,-17 # fef <_free_r+0xbb>
     e38:	0047a483          	lw	x9,4(x15)
     e3c:	000017b7          	lui	x15,0x1
     e40:	ffc4f493          	andi	x9,x9,-4
     e44:	00848433          	add	x8,x9,x8
     e48:	41340433          	sub	x8,x8,x19
     e4c:	00c45413          	srli	x8,x8,0xc
     e50:	fff40413          	addi	x8,x8,-1
     e54:	00c41413          	slli	x8,x8,0xc
     e58:	00f44e63          	blt	x8,x15,e74 <_malloc_trim_r+0x78>
     e5c:	00000593          	addi	x11,x0,0
     e60:	00090513          	addi	x10,x18,0
     e64:	520000ef          	jal	x1,1384 <_sbrk_r>
     e68:	008a2783          	lw	x15,8(x20)
     e6c:	009787b3          	add	x15,x15,x9
     e70:	02f50863          	beq	x10,x15,ea0 <_malloc_trim_r+0xa4>
     e74:	00090513          	addi	x10,x18,0
     e78:	535050ef          	jal	x1,6bac <__malloc_unlock>
     e7c:	01c12083          	lw	x1,28(x2)
     e80:	01812403          	lw	x8,24(x2)
     e84:	01412483          	lw	x9,20(x2)
     e88:	01012903          	lw	x18,16(x2)
     e8c:	00c12983          	lw	x19,12(x2)
     e90:	00812a03          	lw	x20,8(x2)
     e94:	00000513          	addi	x10,x0,0
     e98:	02010113          	addi	x2,x2,32
     e9c:	00008067          	jalr	x0,0(x1)
     ea0:	408005b3          	sub	x11,x0,x8
     ea4:	00090513          	addi	x10,x18,0
     ea8:	4dc000ef          	jal	x1,1384 <_sbrk_r>
     eac:	fff00793          	addi	x15,x0,-1
     eb0:	04f50863          	beq	x10,x15,f00 <_malloc_trim_r+0x104>
     eb4:	1f418713          	addi	x14,x3,500 # 12ea4 <__malloc_current_mallinfo>
     eb8:	00072783          	lw	x15,0(x14)
     ebc:	008a2683          	lw	x13,8(x20)
     ec0:	408484b3          	sub	x9,x9,x8
     ec4:	0014e493          	ori	x9,x9,1
     ec8:	408787b3          	sub	x15,x15,x8
     ecc:	00090513          	addi	x10,x18,0
     ed0:	0096a223          	sw	x9,4(x13)
     ed4:	00f72023          	sw	x15,0(x14)
     ed8:	4d5050ef          	jal	x1,6bac <__malloc_unlock>
     edc:	01c12083          	lw	x1,28(x2)
     ee0:	01812403          	lw	x8,24(x2)
     ee4:	01412483          	lw	x9,20(x2)
     ee8:	01012903          	lw	x18,16(x2)
     eec:	00c12983          	lw	x19,12(x2)
     ef0:	00812a03          	lw	x20,8(x2)
     ef4:	00100513          	addi	x10,x0,1
     ef8:	02010113          	addi	x2,x2,32
     efc:	00008067          	jalr	x0,0(x1)
     f00:	00000593          	addi	x11,x0,0
     f04:	00090513          	addi	x10,x18,0
     f08:	47c000ef          	jal	x1,1384 <_sbrk_r>
     f0c:	008a2703          	lw	x14,8(x20)
     f10:	00f00693          	addi	x13,x0,15
     f14:	40e507b3          	sub	x15,x10,x14
     f18:	f4f6dee3          	bge	x13,x15,e74 <_malloc_trim_r+0x78>
     f1c:	f081a683          	lw	x13,-248(x3) # 12bb8 <__malloc_sbrk_base>
     f20:	40d50533          	sub	x10,x10,x13
     f24:	0017e793          	ori	x15,x15,1
     f28:	1ea1aa23          	sw	x10,500(x3) # 12ea4 <__malloc_current_mallinfo>
     f2c:	00f72223          	sw	x15,4(x14)
     f30:	f45ff06f          	jal	x0,e74 <_malloc_trim_r+0x78>

00000f34 <_free_r>:
     f34:	16058e63          	beq	x11,x0,10b0 <_free_r+0x17c>
     f38:	ff010113          	addi	x2,x2,-16
     f3c:	00812423          	sw	x8,8(x2)
     f40:	00912223          	sw	x9,4(x2)
     f44:	00058413          	addi	x8,x11,0
     f48:	00050493          	addi	x9,x10,0
     f4c:	00112623          	sw	x1,12(x2)
     f50:	459050ef          	jal	x1,6ba8 <__malloc_lock>
     f54:	ffc42583          	lw	x11,-4(x8)
     f58:	ff840713          	addi	x14,x8,-8
     f5c:	00011817          	auipc	x16,0x11
     f60:	68080813          	addi	x16,x16,1664 # 125dc <__malloc_av_>
     f64:	ffe5f793          	andi	x15,x11,-2
     f68:	00f70633          	add	x12,x14,x15
     f6c:	00462683          	lw	x13,4(x12)
     f70:	00882503          	lw	x10,8(x16)
     f74:	0015f593          	andi	x11,x11,1
     f78:	ffc6f693          	andi	x13,x13,-4
     f7c:	18c50c63          	beq	x10,x12,1114 <_free_r+0x1e0>
     f80:	00d62223          	sw	x13,4(x12)
     f84:	00d60533          	add	x10,x12,x13
     f88:	00452503          	lw	x10,4(x10)
     f8c:	00157513          	andi	x10,x10,1
     f90:	08059c63          	bne	x11,x0,1028 <_free_r+0xf4>
     f94:	ff842303          	lw	x6,-8(x8)
     f98:	00011897          	auipc	x17,0x11
     f9c:	64c88893          	addi	x17,x17,1612 # 125e4 <__malloc_av_+0x8>
     fa0:	40670733          	sub	x14,x14,x6
     fa4:	00872583          	lw	x11,8(x14)
     fa8:	006787b3          	add	x15,x15,x6
     fac:	13158e63          	beq	x11,x17,10e8 <_free_r+0x1b4>
     fb0:	00c72303          	lw	x6,12(x14)
     fb4:	0065a623          	sw	x6,12(x11)
     fb8:	00b32423          	sw	x11,8(x6)
     fbc:	1a050063          	beq	x10,x0,115c <_free_r+0x228>
     fc0:	0017e693          	ori	x13,x15,1
     fc4:	00d72223          	sw	x13,4(x14)
     fc8:	00f62023          	sw	x15,0(x12)
     fcc:	1ff00693          	addi	x13,x0,511
     fd0:	06f6e863          	bltu	x13,x15,1040 <_free_r+0x10c>
     fd4:	ff87f693          	andi	x13,x15,-8
     fd8:	00868693          	addi	x13,x13,8
     fdc:	00482583          	lw	x11,4(x16)
     fe0:	00d806b3          	add	x13,x16,x13
     fe4:	0006a603          	lw	x12,0(x13)
     fe8:	0057d513          	srli	x10,x15,0x5
     fec:	00100793          	addi	x15,x0,1
     ff0:	00a797b3          	sll	x15,x15,x10
     ff4:	00b7e7b3          	or	x15,x15,x11
     ff8:	ff868593          	addi	x11,x13,-8
     ffc:	00b72623          	sw	x11,12(x14)
    1000:	00c72423          	sw	x12,8(x14)
    1004:	00f82223          	sw	x15,4(x16)
    1008:	00e6a023          	sw	x14,0(x13)
    100c:	00e62623          	sw	x14,12(x12)
    1010:	00812403          	lw	x8,8(x2)
    1014:	00c12083          	lw	x1,12(x2)
    1018:	00048513          	addi	x10,x9,0
    101c:	00412483          	lw	x9,4(x2)
    1020:	01010113          	addi	x2,x2,16
    1024:	3890506f          	jal	x0,6bac <__malloc_unlock>
    1028:	08050663          	beq	x10,x0,10b4 <_free_r+0x180>
    102c:	0017e693          	ori	x13,x15,1
    1030:	fed42e23          	sw	x13,-4(x8)
    1034:	00f62023          	sw	x15,0(x12)
    1038:	1ff00693          	addi	x13,x0,511
    103c:	f8f6fce3          	bgeu	x13,x15,fd4 <_free_r+0xa0>
    1040:	0097d693          	srli	x13,x15,0x9
    1044:	00400613          	addi	x12,x0,4
    1048:	10d66e63          	bltu	x12,x13,1164 <_free_r+0x230>
    104c:	0067d693          	srli	x13,x15,0x6
    1050:	03968593          	addi	x11,x13,57
    1054:	03868613          	addi	x12,x13,56
    1058:	00359593          	slli	x11,x11,0x3
    105c:	00b805b3          	add	x11,x16,x11
    1060:	0005a683          	lw	x13,0(x11)
    1064:	ff858593          	addi	x11,x11,-8
    1068:	00d59863          	bne	x11,x13,1078 <_free_r+0x144>
    106c:	1500006f          	jal	x0,11bc <_free_r+0x288>
    1070:	0086a683          	lw	x13,8(x13)
    1074:	00d58863          	beq	x11,x13,1084 <_free_r+0x150>
    1078:	0046a603          	lw	x12,4(x13)
    107c:	ffc67613          	andi	x12,x12,-4
    1080:	fec7e8e3          	bltu	x15,x12,1070 <_free_r+0x13c>
    1084:	00c6a583          	lw	x11,12(x13)
    1088:	00b72623          	sw	x11,12(x14)
    108c:	00d72423          	sw	x13,8(x14)
    1090:	00812403          	lw	x8,8(x2)
    1094:	00c12083          	lw	x1,12(x2)
    1098:	00e5a423          	sw	x14,8(x11)
    109c:	00048513          	addi	x10,x9,0
    10a0:	00412483          	lw	x9,4(x2)
    10a4:	00e6a623          	sw	x14,12(x13)
    10a8:	01010113          	addi	x2,x2,16
    10ac:	3010506f          	jal	x0,6bac <__malloc_unlock>
    10b0:	00008067          	jalr	x0,0(x1)
    10b4:	00d787b3          	add	x15,x15,x13
    10b8:	00011897          	auipc	x17,0x11
    10bc:	52c88893          	addi	x17,x17,1324 # 125e4 <__malloc_av_+0x8>
    10c0:	00862683          	lw	x13,8(x12)
    10c4:	0d168a63          	beq	x13,x17,1198 <_free_r+0x264>
    10c8:	00c62503          	lw	x10,12(x12)
    10cc:	0017e593          	ori	x11,x15,1
    10d0:	00f70633          	add	x12,x14,x15
    10d4:	00a6a623          	sw	x10,12(x13)
    10d8:	00d52423          	sw	x13,8(x10)
    10dc:	00b72223          	sw	x11,4(x14)
    10e0:	00f62023          	sw	x15,0(x12)
    10e4:	ee9ff06f          	jal	x0,fcc <_free_r+0x98>
    10e8:	12051a63          	bne	x10,x0,121c <_free_r+0x2e8>
    10ec:	00862583          	lw	x11,8(x12)
    10f0:	00c62603          	lw	x12,12(x12)
    10f4:	00f686b3          	add	x13,x13,x15
    10f8:	0016e793          	ori	x15,x13,1
    10fc:	00c5a623          	sw	x12,12(x11)
    1100:	00b62423          	sw	x11,8(x12)
    1104:	00f72223          	sw	x15,4(x14)
    1108:	00d70733          	add	x14,x14,x13
    110c:	00d72023          	sw	x13,0(x14)
    1110:	f01ff06f          	jal	x0,1010 <_free_r+0xdc>
    1114:	00d786b3          	add	x13,x15,x13
    1118:	02059063          	bne	x11,x0,1138 <_free_r+0x204>
    111c:	ff842583          	lw	x11,-8(x8)
    1120:	40b70733          	sub	x14,x14,x11
    1124:	00c72783          	lw	x15,12(x14)
    1128:	00872603          	lw	x12,8(x14)
    112c:	00b686b3          	add	x13,x13,x11
    1130:	00f62623          	sw	x15,12(x12)
    1134:	00c7a423          	sw	x12,8(x15) # 1008 <_free_r+0xd4>
    1138:	0016e793          	ori	x15,x13,1
    113c:	00f72223          	sw	x15,4(x14)
    1140:	00e82423          	sw	x14,8(x16)
    1144:	f0c1a783          	lw	x15,-244(x3) # 12bbc <__malloc_trim_threshold>
    1148:	ecf6e4e3          	bltu	x13,x15,1010 <_free_r+0xdc>
    114c:	f241a583          	lw	x11,-220(x3) # 12bd4 <__malloc_top_pad>
    1150:	00048513          	addi	x10,x9,0
    1154:	ca9ff0ef          	jal	x1,dfc <_malloc_trim_r>
    1158:	eb9ff06f          	jal	x0,1010 <_free_r+0xdc>
    115c:	00d787b3          	add	x15,x15,x13
    1160:	f61ff06f          	jal	x0,10c0 <_free_r+0x18c>
    1164:	01400613          	addi	x12,x0,20
    1168:	02d67063          	bgeu	x12,x13,1188 <_free_r+0x254>
    116c:	05400613          	addi	x12,x0,84
    1170:	06d66463          	bltu	x12,x13,11d8 <_free_r+0x2a4>
    1174:	00c7d693          	srli	x13,x15,0xc
    1178:	06f68593          	addi	x11,x13,111
    117c:	06e68613          	addi	x12,x13,110
    1180:	00359593          	slli	x11,x11,0x3
    1184:	ed9ff06f          	jal	x0,105c <_free_r+0x128>
    1188:	05c68593          	addi	x11,x13,92
    118c:	05b68613          	addi	x12,x13,91
    1190:	00359593          	slli	x11,x11,0x3
    1194:	ec9ff06f          	jal	x0,105c <_free_r+0x128>
    1198:	00e82a23          	sw	x14,20(x16)
    119c:	00e82823          	sw	x14,16(x16)
    11a0:	0017e693          	ori	x13,x15,1
    11a4:	01172623          	sw	x17,12(x14)
    11a8:	01172423          	sw	x17,8(x14)
    11ac:	00d72223          	sw	x13,4(x14)
    11b0:	00f70733          	add	x14,x14,x15
    11b4:	00f72023          	sw	x15,0(x14)
    11b8:	e59ff06f          	jal	x0,1010 <_free_r+0xdc>
    11bc:	00482503          	lw	x10,4(x16)
    11c0:	40265613          	srai	x12,x12,0x2
    11c4:	00100793          	addi	x15,x0,1
    11c8:	00c797b3          	sll	x15,x15,x12
    11cc:	00a7e7b3          	or	x15,x15,x10
    11d0:	00f82223          	sw	x15,4(x16)
    11d4:	eb5ff06f          	jal	x0,1088 <_free_r+0x154>
    11d8:	15400613          	addi	x12,x0,340
    11dc:	00d66c63          	bltu	x12,x13,11f4 <_free_r+0x2c0>
    11e0:	00f7d693          	srli	x13,x15,0xf
    11e4:	07868593          	addi	x11,x13,120
    11e8:	07768613          	addi	x12,x13,119
    11ec:	00359593          	slli	x11,x11,0x3
    11f0:	e6dff06f          	jal	x0,105c <_free_r+0x128>
    11f4:	55400613          	addi	x12,x0,1364
    11f8:	00d66c63          	bltu	x12,x13,1210 <_free_r+0x2dc>
    11fc:	0127d693          	srli	x13,x15,0x12
    1200:	07d68593          	addi	x11,x13,125
    1204:	07c68613          	addi	x12,x13,124
    1208:	00359593          	slli	x11,x11,0x3
    120c:	e51ff06f          	jal	x0,105c <_free_r+0x128>
    1210:	3f800593          	addi	x11,x0,1016
    1214:	07e00613          	addi	x12,x0,126
    1218:	e45ff06f          	jal	x0,105c <_free_r+0x128>
    121c:	0017e693          	ori	x13,x15,1
    1220:	00d72223          	sw	x13,4(x14)
    1224:	00f62023          	sw	x15,0(x12)
    1228:	de9ff06f          	jal	x0,1010 <_free_r+0xdc>

0000122c <__sread>:
    122c:	ff010113          	addi	x2,x2,-16
    1230:	00812423          	sw	x8,8(x2)
    1234:	00058413          	addi	x8,x11,0
    1238:	00e59583          	lh	x11,14(x11)
    123c:	00112623          	sw	x1,12(x2)
    1240:	5ac060ef          	jal	x1,77ec <_read_r>
    1244:	02054063          	blt	x10,x0,1264 <__sread+0x38>
    1248:	05042783          	lw	x15,80(x8)
    124c:	00c12083          	lw	x1,12(x2)
    1250:	00a787b3          	add	x15,x15,x10
    1254:	04f42823          	sw	x15,80(x8)
    1258:	00812403          	lw	x8,8(x2)
    125c:	01010113          	addi	x2,x2,16
    1260:	00008067          	jalr	x0,0(x1)
    1264:	00c45783          	lhu	x15,12(x8)
    1268:	fffff737          	lui	x14,0xfffff
    126c:	fff70713          	addi	x14,x14,-1 # ffffefff <__heap_end+0xffbfefff>
    1270:	00e7f7b3          	and	x15,x15,x14
    1274:	00c12083          	lw	x1,12(x2)
    1278:	00f41623          	sh	x15,12(x8)
    127c:	00812403          	lw	x8,8(x2)
    1280:	01010113          	addi	x2,x2,16
    1284:	00008067          	jalr	x0,0(x1)

00001288 <__seofread>:
    1288:	00000513          	addi	x10,x0,0
    128c:	00008067          	jalr	x0,0(x1)

00001290 <__swrite>:
    1290:	00c59783          	lh	x15,12(x11)
    1294:	fe010113          	addi	x2,x2,-32
    1298:	00812c23          	sw	x8,24(x2)
    129c:	00912a23          	sw	x9,20(x2)
    12a0:	01212823          	sw	x18,16(x2)
    12a4:	01312623          	sw	x19,12(x2)
    12a8:	00112e23          	sw	x1,28(x2)
    12ac:	1007f713          	andi	x14,x15,256
    12b0:	00058413          	addi	x8,x11,0
    12b4:	00050493          	addi	x9,x10,0
    12b8:	00060913          	addi	x18,x12,0
    12bc:	00068993          	addi	x19,x13,0
    12c0:	04071063          	bne	x14,x0,1300 <__swrite+0x70>
    12c4:	fffff737          	lui	x14,0xfffff
    12c8:	fff70713          	addi	x14,x14,-1 # ffffefff <__heap_end+0xffbfefff>
    12cc:	00e7f7b3          	and	x15,x15,x14
    12d0:	00e41583          	lh	x11,14(x8)
    12d4:	00f41623          	sh	x15,12(x8)
    12d8:	01812403          	lw	x8,24(x2)
    12dc:	01c12083          	lw	x1,28(x2)
    12e0:	00098693          	addi	x13,x19,0
    12e4:	00090613          	addi	x12,x18,0
    12e8:	00c12983          	lw	x19,12(x2)
    12ec:	01012903          	lw	x18,16(x2)
    12f0:	00048513          	addi	x10,x9,0
    12f4:	01412483          	lw	x9,20(x2)
    12f8:	02010113          	addi	x2,x2,32
    12fc:	5d40006f          	jal	x0,18d0 <_write_r>
    1300:	00e59583          	lh	x11,14(x11)
    1304:	00200693          	addi	x13,x0,2
    1308:	00000613          	addi	x12,x0,0
    130c:	484060ef          	jal	x1,7790 <_lseek_r>
    1310:	00c41783          	lh	x15,12(x8)
    1314:	fb1ff06f          	jal	x0,12c4 <__swrite+0x34>

00001318 <__sseek>:
    1318:	ff010113          	addi	x2,x2,-16
    131c:	00812423          	sw	x8,8(x2)
    1320:	00058413          	addi	x8,x11,0
    1324:	00e59583          	lh	x11,14(x11)
    1328:	00112623          	sw	x1,12(x2)
    132c:	464060ef          	jal	x1,7790 <_lseek_r>
    1330:	fff00713          	addi	x14,x0,-1
    1334:	00c41783          	lh	x15,12(x8)
    1338:	02e50263          	beq	x10,x14,135c <__sseek+0x44>
    133c:	00001737          	lui	x14,0x1
    1340:	00e7e7b3          	or	x15,x15,x14
    1344:	00c12083          	lw	x1,12(x2)
    1348:	04a42823          	sw	x10,80(x8)
    134c:	00f41623          	sh	x15,12(x8)
    1350:	00812403          	lw	x8,8(x2)
    1354:	01010113          	addi	x2,x2,16
    1358:	00008067          	jalr	x0,0(x1)
    135c:	fffff737          	lui	x14,0xfffff
    1360:	fff70713          	addi	x14,x14,-1 # ffffefff <__heap_end+0xffbfefff>
    1364:	00e7f7b3          	and	x15,x15,x14
    1368:	00c12083          	lw	x1,12(x2)
    136c:	00f41623          	sh	x15,12(x8)
    1370:	00812403          	lw	x8,8(x2)
    1374:	01010113          	addi	x2,x2,16
    1378:	00008067          	jalr	x0,0(x1)

0000137c <__sclose>:
    137c:	00e59583          	lh	x11,14(x11)
    1380:	0310506f          	jal	x0,6bb0 <_close_r>

00001384 <_sbrk_r>:
    1384:	ff010113          	addi	x2,x2,-16
    1388:	00812423          	sw	x8,8(x2)
    138c:	00050413          	addi	x8,x10,0
    1390:	00058513          	addi	x10,x11,0
    1394:	f001aa23          	sw	x0,-236(x3) # 12bc4 <errno>
    1398:	00112623          	sw	x1,12(x2)
    139c:	87cff0ef          	jal	x1,418 <_sbrk>
    13a0:	fff00793          	addi	x15,x0,-1
    13a4:	00f50a63          	beq	x10,x15,13b8 <_sbrk_r+0x34>
    13a8:	00c12083          	lw	x1,12(x2)
    13ac:	00812403          	lw	x8,8(x2)
    13b0:	01010113          	addi	x2,x2,16
    13b4:	00008067          	jalr	x0,0(x1)
    13b8:	f141a783          	lw	x15,-236(x3) # 12bc4 <errno>
    13bc:	fe0786e3          	beq	x15,x0,13a8 <_sbrk_r+0x24>
    13c0:	00c12083          	lw	x1,12(x2)
    13c4:	00f42023          	sw	x15,0(x8)
    13c8:	00812403          	lw	x8,8(x2)
    13cc:	01010113          	addi	x2,x2,16
    13d0:	00008067          	jalr	x0,0(x1)

000013d4 <__sfvwrite_r>:
    13d4:	00862783          	lw	x15,8(x12)
    13d8:	26078c63          	beq	x15,x0,1650 <__sfvwrite_r+0x27c>
    13dc:	00c59683          	lh	x13,12(x11)
    13e0:	fd010113          	addi	x2,x2,-48
    13e4:	02812423          	sw	x8,40(x2)
    13e8:	01412c23          	sw	x20,24(x2)
    13ec:	01612823          	sw	x22,16(x2)
    13f0:	02112623          	sw	x1,44(x2)
    13f4:	0086f793          	andi	x15,x13,8
    13f8:	00060b13          	addi	x22,x12,0
    13fc:	00050a13          	addi	x20,x10,0
    1400:	00058413          	addi	x8,x11,0
    1404:	08078e63          	beq	x15,x0,14a0 <__sfvwrite_r+0xcc>
    1408:	0105a783          	lw	x15,16(x11)
    140c:	08078a63          	beq	x15,x0,14a0 <__sfvwrite_r+0xcc>
    1410:	02912223          	sw	x9,36(x2)
    1414:	03212023          	sw	x18,32(x2)
    1418:	01312e23          	sw	x19,28(x2)
    141c:	01512a23          	sw	x21,20(x2)
    1420:	0026f793          	andi	x15,x13,2
    1424:	000b2483          	lw	x9,0(x22)
    1428:	0a078463          	beq	x15,x0,14d0 <__sfvwrite_r+0xfc>
    142c:	02442783          	lw	x15,36(x8)
    1430:	01c42583          	lw	x11,28(x8)
    1434:	80000ab7          	lui	x21,0x80000
    1438:	00000993          	addi	x19,x0,0
    143c:	00000913          	addi	x18,x0,0
    1440:	c00a8a93          	addi	x21,x21,-1024 # 7ffffc00 <__heap_end+0x7fbffc00>
    1444:	00098613          	addi	x12,x19,0
    1448:	000a0513          	addi	x10,x20,0
    144c:	04090263          	beq	x18,x0,1490 <__sfvwrite_r+0xbc>
    1450:	00090693          	addi	x13,x18,0
    1454:	012af463          	bgeu	x21,x18,145c <__sfvwrite_r+0x88>
    1458:	000a8693          	addi	x13,x21,0
    145c:	000780e7          	jalr	x1,0(x15)
    1460:	44a05663          	bge	x0,x10,18ac <__sfvwrite_r+0x4d8>
    1464:	008b2783          	lw	x15,8(x22)
    1468:	00a989b3          	add	x19,x19,x10
    146c:	40a90933          	sub	x18,x18,x10
    1470:	40a787b3          	sub	x15,x15,x10
    1474:	00fb2423          	sw	x15,8(x22)
    1478:	1a078663          	beq	x15,x0,1624 <__sfvwrite_r+0x250>
    147c:	02442783          	lw	x15,36(x8)
    1480:	01c42583          	lw	x11,28(x8)
    1484:	00098613          	addi	x12,x19,0
    1488:	000a0513          	addi	x10,x20,0
    148c:	fc0912e3          	bne	x18,x0,1450 <__sfvwrite_r+0x7c>
    1490:	0004a983          	lw	x19,0(x9)
    1494:	0044a903          	lw	x18,4(x9)
    1498:	00848493          	addi	x9,x9,8
    149c:	fa9ff06f          	jal	x0,1444 <__sfvwrite_r+0x70>
    14a0:	00040593          	addi	x11,x8,0
    14a4:	000a0513          	addi	x10,x20,0
    14a8:	240050ef          	jal	x1,66e8 <__swsetup_r>
    14ac:	2c051063          	bne	x10,x0,176c <__sfvwrite_r+0x398>
    14b0:	00c41683          	lh	x13,12(x8)
    14b4:	02912223          	sw	x9,36(x2)
    14b8:	03212023          	sw	x18,32(x2)
    14bc:	01312e23          	sw	x19,28(x2)
    14c0:	01512a23          	sw	x21,20(x2)
    14c4:	0026f793          	andi	x15,x13,2
    14c8:	000b2483          	lw	x9,0(x22)
    14cc:	f60790e3          	bne	x15,x0,142c <__sfvwrite_r+0x58>
    14d0:	01712623          	sw	x23,12(x2)
    14d4:	01812423          	sw	x24,8(x2)
    14d8:	0016f793          	andi	x15,x13,1
    14dc:	16079e63          	bne	x15,x0,1658 <__sfvwrite_r+0x284>
    14e0:	00042783          	lw	x15,0(x8)
    14e4:	00842703          	lw	x14,8(x8)
    14e8:	80000ab7          	lui	x21,0x80000
    14ec:	01912223          	sw	x25,4(x2)
    14f0:	00000b93          	addi	x23,x0,0
    14f4:	00000993          	addi	x19,x0,0
    14f8:	fffa8a93          	addi	x21,x21,-1 # 7fffffff <__heap_end+0x7fbfffff>
    14fc:	00078513          	addi	x10,x15,0
    1500:	00070c13          	addi	x24,x14,0
    1504:	10098263          	beq	x19,x0,1608 <__sfvwrite_r+0x234>
    1508:	2006f613          	andi	x12,x13,512
    150c:	26060463          	beq	x12,x0,1774 <__sfvwrite_r+0x3a0>
    1510:	00070c93          	addi	x25,x14,0
    1514:	30e9e263          	bltu	x19,x14,1818 <__sfvwrite_r+0x444>
    1518:	4806f713          	andi	x14,x13,1152
    151c:	08070a63          	beq	x14,x0,15b0 <__sfvwrite_r+0x1dc>
    1520:	01442603          	lw	x12,20(x8)
    1524:	01042583          	lw	x11,16(x8)
    1528:	00161713          	slli	x14,x12,0x1
    152c:	00c70733          	add	x14,x14,x12
    1530:	40b78933          	sub	x18,x15,x11
    1534:	01f75c13          	srli	x24,x14,0x1f
    1538:	00ec0c33          	add	x24,x24,x14
    153c:	00190793          	addi	x15,x18,1
    1540:	401c5c13          	srai	x24,x24,0x1
    1544:	013787b3          	add	x15,x15,x19
    1548:	000c0613          	addi	x12,x24,0
    154c:	00fc7663          	bgeu	x24,x15,1558 <__sfvwrite_r+0x184>
    1550:	00078c13          	addi	x24,x15,0
    1554:	00078613          	addi	x12,x15,0
    1558:	4006f693          	andi	x13,x13,1024
    155c:	30068463          	beq	x13,x0,1864 <__sfvwrite_r+0x490>
    1560:	00060593          	addi	x11,x12,0
    1564:	000a0513          	addi	x10,x20,0
    1568:	470040ef          	jal	x1,59d8 <_malloc_r>
    156c:	00050c93          	addi	x25,x10,0
    1570:	34050263          	beq	x10,x0,18b4 <__sfvwrite_r+0x4e0>
    1574:	01042583          	lw	x11,16(x8)
    1578:	00090613          	addi	x12,x18,0
    157c:	73d040ef          	jal	x1,64b8 <memcpy>
    1580:	00c45783          	lhu	x15,12(x8)
    1584:	b7f7f793          	andi	x15,x15,-1153
    1588:	0807e793          	ori	x15,x15,128
    158c:	00f41623          	sh	x15,12(x8)
    1590:	012c8533          	add	x10,x25,x18
    1594:	412c07b3          	sub	x15,x24,x18
    1598:	01942823          	sw	x25,16(x8)
    159c:	01842a23          	sw	x24,20(x8)
    15a0:	00a42023          	sw	x10,0(x8)
    15a4:	00098c13          	addi	x24,x19,0
    15a8:	00f42423          	sw	x15,8(x8)
    15ac:	00098c93          	addi	x25,x19,0
    15b0:	000c8613          	addi	x12,x25,0
    15b4:	000b8593          	addi	x11,x23,0
    15b8:	5e5040ef          	jal	x1,639c <memmove>
    15bc:	00842703          	lw	x14,8(x8)
    15c0:	00042783          	lw	x15,0(x8)
    15c4:	00098913          	addi	x18,x19,0
    15c8:	41870733          	sub	x14,x14,x24
    15cc:	019787b3          	add	x15,x15,x25
    15d0:	00e42423          	sw	x14,8(x8)
    15d4:	00f42023          	sw	x15,0(x8)
    15d8:	00000993          	addi	x19,x0,0
    15dc:	008b2783          	lw	x15,8(x22)
    15e0:	012b8bb3          	add	x23,x23,x18
    15e4:	412787b3          	sub	x15,x15,x18
    15e8:	00fb2423          	sw	x15,8(x22)
    15ec:	02078663          	beq	x15,x0,1618 <__sfvwrite_r+0x244>
    15f0:	00042783          	lw	x15,0(x8)
    15f4:	00842703          	lw	x14,8(x8)
    15f8:	00c41683          	lh	x13,12(x8)
    15fc:	00078513          	addi	x10,x15,0
    1600:	00070c13          	addi	x24,x14,0
    1604:	f00992e3          	bne	x19,x0,1508 <__sfvwrite_r+0x134>
    1608:	0004ab83          	lw	x23,0(x9)
    160c:	0044a983          	lw	x19,4(x9)
    1610:	00848493          	addi	x9,x9,8
    1614:	ee9ff06f          	jal	x0,14fc <__sfvwrite_r+0x128>
    1618:	00c12b83          	lw	x23,12(x2)
    161c:	00812c03          	lw	x24,8(x2)
    1620:	00412c83          	lw	x25,4(x2)
    1624:	02412483          	lw	x9,36(x2)
    1628:	02012903          	lw	x18,32(x2)
    162c:	01c12983          	lw	x19,28(x2)
    1630:	01412a83          	lw	x21,20(x2)
    1634:	00000513          	addi	x10,x0,0
    1638:	02c12083          	lw	x1,44(x2)
    163c:	02812403          	lw	x8,40(x2)
    1640:	01812a03          	lw	x20,24(x2)
    1644:	01012b03          	lw	x22,16(x2)
    1648:	03010113          	addi	x2,x2,48
    164c:	00008067          	jalr	x0,0(x1)
    1650:	00000513          	addi	x10,x0,0
    1654:	00008067          	jalr	x0,0(x1)
    1658:	00000a93          	addi	x21,x0,0
    165c:	00000513          	addi	x10,x0,0
    1660:	00000c13          	addi	x24,x0,0
    1664:	00000993          	addi	x19,x0,0
    1668:	08098263          	beq	x19,x0,16ec <__sfvwrite_r+0x318>
    166c:	08050a63          	beq	x10,x0,1700 <__sfvwrite_r+0x32c>
    1670:	000a8793          	addi	x15,x21,0
    1674:	00098b93          	addi	x23,x19,0
    1678:	0137f463          	bgeu	x15,x19,1680 <__sfvwrite_r+0x2ac>
    167c:	00078b93          	addi	x23,x15,0
    1680:	00042503          	lw	x10,0(x8)
    1684:	01042783          	lw	x15,16(x8)
    1688:	00842903          	lw	x18,8(x8)
    168c:	01442683          	lw	x13,20(x8)
    1690:	00a7f663          	bgeu	x15,x10,169c <__sfvwrite_r+0x2c8>
    1694:	00d90933          	add	x18,x18,x13
    1698:	09794463          	blt	x18,x23,1720 <__sfvwrite_r+0x34c>
    169c:	18dbce63          	blt	x23,x13,1838 <__sfvwrite_r+0x464>
    16a0:	02442783          	lw	x15,36(x8)
    16a4:	01c42583          	lw	x11,28(x8)
    16a8:	000c0613          	addi	x12,x24,0
    16ac:	000a0513          	addi	x10,x20,0
    16b0:	000780e7          	jalr	x1,0(x15)
    16b4:	00050913          	addi	x18,x10,0
    16b8:	08a05863          	bge	x0,x10,1748 <__sfvwrite_r+0x374>
    16bc:	412a8ab3          	sub	x21,x21,x18
    16c0:	00100513          	addi	x10,x0,1
    16c4:	160a8063          	beq	x21,x0,1824 <__sfvwrite_r+0x450>
    16c8:	008b2783          	lw	x15,8(x22)
    16cc:	012c0c33          	add	x24,x24,x18
    16d0:	412989b3          	sub	x19,x19,x18
    16d4:	412787b3          	sub	x15,x15,x18
    16d8:	00fb2423          	sw	x15,8(x22)
    16dc:	f80796e3          	bne	x15,x0,1668 <__sfvwrite_r+0x294>
    16e0:	00c12b83          	lw	x23,12(x2)
    16e4:	00812c03          	lw	x24,8(x2)
    16e8:	f3dff06f          	jal	x0,1624 <__sfvwrite_r+0x250>
    16ec:	0044a983          	lw	x19,4(x9)
    16f0:	00048793          	addi	x15,x9,0
    16f4:	00848493          	addi	x9,x9,8
    16f8:	fe098ae3          	beq	x19,x0,16ec <__sfvwrite_r+0x318>
    16fc:	0007ac03          	lw	x24,0(x15)
    1700:	00098613          	addi	x12,x19,0
    1704:	00a00593          	addi	x11,x0,10
    1708:	000c0513          	addi	x10,x24,0
    170c:	29d040ef          	jal	x1,61a8 <memchr>
    1710:	18050863          	beq	x10,x0,18a0 <__sfvwrite_r+0x4cc>
    1714:	00150513          	addi	x10,x10,1
    1718:	41850ab3          	sub	x21,x10,x24
    171c:	f55ff06f          	jal	x0,1670 <__sfvwrite_r+0x29c>
    1720:	000c0593          	addi	x11,x24,0
    1724:	00090613          	addi	x12,x18,0
    1728:	475040ef          	jal	x1,639c <memmove>
    172c:	00042783          	lw	x15,0(x8)
    1730:	00040593          	addi	x11,x8,0
    1734:	000a0513          	addi	x10,x20,0
    1738:	012787b3          	add	x15,x15,x18
    173c:	00f42023          	sw	x15,0(x8)
    1740:	718050ef          	jal	x1,6e58 <_fflush_r>
    1744:	f6050ce3          	beq	x10,x0,16bc <__sfvwrite_r+0x2e8>
    1748:	00c41783          	lh	x15,12(x8)
    174c:	00c12b83          	lw	x23,12(x2)
    1750:	00812c03          	lw	x24,8(x2)
    1754:	02412483          	lw	x9,36(x2)
    1758:	02012903          	lw	x18,32(x2)
    175c:	01c12983          	lw	x19,28(x2)
    1760:	01412a83          	lw	x21,20(x2)
    1764:	0407e793          	ori	x15,x15,64
    1768:	00f41623          	sh	x15,12(x8)
    176c:	fff00513          	addi	x10,x0,-1
    1770:	ec9ff06f          	jal	x0,1638 <__sfvwrite_r+0x264>
    1774:	01042683          	lw	x13,16(x8)
    1778:	04f6e263          	bltu	x13,x15,17bc <__sfvwrite_r+0x3e8>
    177c:	01442603          	lw	x12,20(x8)
    1780:	02c9ee63          	bltu	x19,x12,17bc <__sfvwrite_r+0x3e8>
    1784:	00098793          	addi	x15,x19,0
    1788:	013af463          	bgeu	x21,x19,1790 <__sfvwrite_r+0x3bc>
    178c:	000a8793          	addi	x15,x21,0
    1790:	02c7e6b3          	rem	x13,x15,x12
    1794:	02442703          	lw	x14,36(x8)
    1798:	01c42583          	lw	x11,28(x8)
    179c:	000b8613          	addi	x12,x23,0
    17a0:	000a0513          	addi	x10,x20,0
    17a4:	40d786b3          	sub	x13,x15,x13
    17a8:	000700e7          	jalr	x1,0(x14)
    17ac:	00050913          	addi	x18,x10,0
    17b0:	04a05a63          	bge	x0,x10,1804 <__sfvwrite_r+0x430>
    17b4:	412989b3          	sub	x19,x19,x18
    17b8:	e25ff06f          	jal	x0,15dc <__sfvwrite_r+0x208>
    17bc:	00070913          	addi	x18,x14,0
    17c0:	00e9f463          	bgeu	x19,x14,17c8 <__sfvwrite_r+0x3f4>
    17c4:	00098913          	addi	x18,x19,0
    17c8:	00078513          	addi	x10,x15,0
    17cc:	00090613          	addi	x12,x18,0
    17d0:	000b8593          	addi	x11,x23,0
    17d4:	3c9040ef          	jal	x1,639c <memmove>
    17d8:	00842703          	lw	x14,8(x8)
    17dc:	00042783          	lw	x15,0(x8)
    17e0:	41270733          	sub	x14,x14,x18
    17e4:	012787b3          	add	x15,x15,x18
    17e8:	00e42423          	sw	x14,8(x8)
    17ec:	00f42023          	sw	x15,0(x8)
    17f0:	fc0712e3          	bne	x14,x0,17b4 <__sfvwrite_r+0x3e0>
    17f4:	00040593          	addi	x11,x8,0
    17f8:	000a0513          	addi	x10,x20,0
    17fc:	65c050ef          	jal	x1,6e58 <_fflush_r>
    1800:	fa050ae3          	beq	x10,x0,17b4 <__sfvwrite_r+0x3e0>
    1804:	00c41783          	lh	x15,12(x8)
    1808:	00c12b83          	lw	x23,12(x2)
    180c:	00812c03          	lw	x24,8(x2)
    1810:	00412c83          	lw	x25,4(x2)
    1814:	f41ff06f          	jal	x0,1754 <__sfvwrite_r+0x380>
    1818:	00098c13          	addi	x24,x19,0
    181c:	00098c93          	addi	x25,x19,0
    1820:	d91ff06f          	jal	x0,15b0 <__sfvwrite_r+0x1dc>
    1824:	00040593          	addi	x11,x8,0
    1828:	000a0513          	addi	x10,x20,0
    182c:	62c050ef          	jal	x1,6e58 <_fflush_r>
    1830:	e8050ce3          	beq	x10,x0,16c8 <__sfvwrite_r+0x2f4>
    1834:	f15ff06f          	jal	x0,1748 <__sfvwrite_r+0x374>
    1838:	000b8613          	addi	x12,x23,0
    183c:	000c0593          	addi	x11,x24,0
    1840:	35d040ef          	jal	x1,639c <memmove>
    1844:	00842703          	lw	x14,8(x8)
    1848:	00042783          	lw	x15,0(x8)
    184c:	000b8913          	addi	x18,x23,0
    1850:	41770733          	sub	x14,x14,x23
    1854:	017787b3          	add	x15,x15,x23
    1858:	00e42423          	sw	x14,8(x8)
    185c:	00f42023          	sw	x15,0(x8)
    1860:	e5dff06f          	jal	x0,16bc <__sfvwrite_r+0x2e8>
    1864:	000a0513          	addi	x10,x20,0
    1868:	069050ef          	jal	x1,70d0 <_realloc_r>
    186c:	00050c93          	addi	x25,x10,0
    1870:	d20510e3          	bne	x10,x0,1590 <__sfvwrite_r+0x1bc>
    1874:	01042583          	lw	x11,16(x8)
    1878:	000a0513          	addi	x10,x20,0
    187c:	eb8ff0ef          	jal	x1,f34 <_free_r>
    1880:	00c41783          	lh	x15,12(x8)
    1884:	00c00713          	addi	x14,x0,12
    1888:	00c12b83          	lw	x23,12(x2)
    188c:	00812c03          	lw	x24,8(x2)
    1890:	00412c83          	lw	x25,4(x2)
    1894:	00ea2023          	sw	x14,0(x20)
    1898:	f7f7f793          	andi	x15,x15,-129
    189c:	eb9ff06f          	jal	x0,1754 <__sfvwrite_r+0x380>
    18a0:	00198793          	addi	x15,x19,1
    18a4:	00078a93          	addi	x21,x15,0
    18a8:	dcdff06f          	jal	x0,1674 <__sfvwrite_r+0x2a0>
    18ac:	00c41783          	lh	x15,12(x8)
    18b0:	ea5ff06f          	jal	x0,1754 <__sfvwrite_r+0x380>
    18b4:	00c00713          	addi	x14,x0,12
    18b8:	00c41783          	lh	x15,12(x8)
    18bc:	00c12b83          	lw	x23,12(x2)
    18c0:	00812c03          	lw	x24,8(x2)
    18c4:	00412c83          	lw	x25,4(x2)
    18c8:	00ea2023          	sw	x14,0(x20)
    18cc:	e89ff06f          	jal	x0,1754 <__sfvwrite_r+0x380>

000018d0 <_write_r>:
    18d0:	ff010113          	addi	x2,x2,-16
    18d4:	00058713          	addi	x14,x11,0
    18d8:	00812423          	sw	x8,8(x2)
    18dc:	00060593          	addi	x11,x12,0
    18e0:	00050413          	addi	x8,x10,0
    18e4:	00068613          	addi	x12,x13,0
    18e8:	00070513          	addi	x10,x14,0
    18ec:	f001aa23          	sw	x0,-236(x3) # 12bc4 <errno>
    18f0:	00112623          	sw	x1,12(x2)
    18f4:	af3fe0ef          	jal	x1,3e6 <_write>
    18f8:	fff00793          	addi	x15,x0,-1
    18fc:	00f50a63          	beq	x10,x15,1910 <_write_r+0x40>
    1900:	00c12083          	lw	x1,12(x2)
    1904:	00812403          	lw	x8,8(x2)
    1908:	01010113          	addi	x2,x2,16
    190c:	00008067          	jalr	x0,0(x1)
    1910:	f141a783          	lw	x15,-236(x3) # 12bc4 <errno>
    1914:	fe0786e3          	beq	x15,x0,1900 <_write_r+0x30>
    1918:	00c12083          	lw	x1,12(x2)
    191c:	00f42023          	sw	x15,0(x8)
    1920:	00812403          	lw	x8,8(x2)
    1924:	01010113          	addi	x2,x2,16
    1928:	00008067          	jalr	x0,0(x1)

0000192c <_fwalk_sglue>:
    192c:	fd010113          	addi	x2,x2,-48
    1930:	03212023          	sw	x18,32(x2)
    1934:	01312e23          	sw	x19,28(x2)
    1938:	01412c23          	sw	x20,24(x2)
    193c:	01512a23          	sw	x21,20(x2)
    1940:	01612823          	sw	x22,16(x2)
    1944:	01712623          	sw	x23,12(x2)
    1948:	02112623          	sw	x1,44(x2)
    194c:	02812423          	sw	x8,40(x2)
    1950:	02912223          	sw	x9,36(x2)
    1954:	00050b13          	addi	x22,x10,0
    1958:	00058b93          	addi	x23,x11,0
    195c:	00060a93          	addi	x21,x12,0
    1960:	00000a13          	addi	x20,x0,0
    1964:	00100993          	addi	x19,x0,1
    1968:	fff00913          	addi	x18,x0,-1
    196c:	004aa483          	lw	x9,4(x21)
    1970:	008aa403          	lw	x8,8(x21)
    1974:	fff48493          	addi	x9,x9,-1
    1978:	0204c863          	blt	x9,x0,19a8 <_fwalk_sglue+0x7c>
    197c:	00c45783          	lhu	x15,12(x8)
    1980:	00f9fe63          	bgeu	x19,x15,199c <_fwalk_sglue+0x70>
    1984:	00e41783          	lh	x15,14(x8)
    1988:	00040593          	addi	x11,x8,0
    198c:	000b0513          	addi	x10,x22,0
    1990:	01278663          	beq	x15,x18,199c <_fwalk_sglue+0x70>
    1994:	000b80e7          	jalr	x1,0(x23)
    1998:	00aa6a33          	or	x20,x20,x10
    199c:	fff48493          	addi	x9,x9,-1
    19a0:	06840413          	addi	x8,x8,104
    19a4:	fd249ce3          	bne	x9,x18,197c <_fwalk_sglue+0x50>
    19a8:	000aaa83          	lw	x21,0(x21)
    19ac:	fc0a90e3          	bne	x21,x0,196c <_fwalk_sglue+0x40>
    19b0:	02c12083          	lw	x1,44(x2)
    19b4:	02812403          	lw	x8,40(x2)
    19b8:	02412483          	lw	x9,36(x2)
    19bc:	02012903          	lw	x18,32(x2)
    19c0:	01c12983          	lw	x19,28(x2)
    19c4:	01412a83          	lw	x21,20(x2)
    19c8:	01012b03          	lw	x22,16(x2)
    19cc:	00c12b83          	lw	x23,12(x2)
    19d0:	000a0513          	addi	x10,x20,0
    19d4:	01812a03          	lw	x20,24(x2)
    19d8:	03010113          	addi	x2,x2,48
    19dc:	00008067          	jalr	x0,0(x1)

000019e0 <_vfprintf_r>:
    19e0:	e3010113          	addi	x2,x2,-464
    19e4:	1c112623          	sw	x1,460(x2)
    19e8:	1c812423          	sw	x8,456(x2)
    19ec:	1c912223          	sw	x9,452(x2)
    19f0:	1d212023          	sw	x18,448(x2)
    19f4:	00058493          	addi	x9,x11,0
    19f8:	00060913          	addi	x18,x12,0
    19fc:	00d12a23          	sw	x13,20(x2)
    1a00:	00050413          	addi	x8,x10,0
    1a04:	00a12423          	sw	x10,8(x2)
    1a08:	071040ef          	jal	x1,6278 <_localeconv_r>
    1a0c:	00052703          	lw	x14,0(x10)
    1a10:	00070513          	addi	x10,x14,0
    1a14:	02e12623          	sw	x14,44(x2)
    1a18:	445040ef          	jal	x1,665c <strlen>
    1a1c:	02a12423          	sw	x10,40(x2)
    1a20:	0c012823          	sw	x0,208(x2)
    1a24:	0c012a23          	sw	x0,212(x2)
    1a28:	0c012c23          	sw	x0,216(x2)
    1a2c:	0c012e23          	sw	x0,220(x2)
    1a30:	00040863          	beq	x8,x0,1a40 <_vfprintf_r+0x60>
    1a34:	03442703          	lw	x14,52(x8)
    1a38:	00071463          	bne	x14,x0,1a40 <_vfprintf_r+0x60>
    1a3c:	1250106f          	jal	x0,3360 <_vfprintf_r+0x1980>
    1a40:	00c49703          	lh	x14,12(x9)
    1a44:	01271693          	slli	x13,x14,0x12
    1a48:	0206c663          	blt	x13,x0,1a74 <_vfprintf_r+0x94>
    1a4c:	0644a683          	lw	x13,100(x9)
    1a50:	00002637          	lui	x12,0x2
    1a54:	00c76733          	or	x14,x14,x12
    1a58:	ffffe637          	lui	x12,0xffffe
    1a5c:	01071713          	slli	x14,x14,0x10
    1a60:	fff60613          	addi	x12,x12,-1 # ffffdfff <__heap_end+0xffbfdfff>
    1a64:	41075713          	srai	x14,x14,0x10
    1a68:	00c6f6b3          	and	x13,x13,x12
    1a6c:	00e49623          	sh	x14,12(x9)
    1a70:	06d4a223          	sw	x13,100(x9)
    1a74:	00877693          	andi	x13,x14,8
    1a78:	2e068e63          	beq	x13,x0,1d74 <_vfprintf_r+0x394>
    1a7c:	0104a683          	lw	x13,16(x9)
    1a80:	2e068a63          	beq	x13,x0,1d74 <_vfprintf_r+0x394>
    1a84:	01a77713          	andi	x14,x14,26
    1a88:	00a00693          	addi	x13,x0,10
    1a8c:	30d70663          	beq	x14,x13,1d98 <_vfprintf_r+0x3b8>
    1a90:	1b312e23          	sw	x19,444(x2)
    1a94:	1b412c23          	sw	x20,440(x2)
    1a98:	1ba12023          	sw	x26,416(x2)
    1a9c:	1b512a23          	sw	x21,436(x2)
    1aa0:	1b612823          	sw	x22,432(x2)
    1aa4:	1b712623          	sw	x23,428(x2)
    1aa8:	1b812423          	sw	x24,424(x2)
    1aac:	1b912223          	sw	x25,420(x2)
    1ab0:	19b12e23          	sw	x27,412(x2)
    1ab4:	00090d13          	addi	x26,x18,0
    1ab8:	000d4703          	lbu	x14,0(x26)
    1abc:	0ec10993          	addi	x19,x2,236
    1ac0:	0d312223          	sw	x19,196(x2)
    1ac4:	0c012623          	sw	x0,204(x2)
    1ac8:	0c012423          	sw	x0,200(x2)
    1acc:	00012e23          	sw	x0,28(x2)
    1ad0:	02012823          	sw	x0,48(x2)
    1ad4:	02012c23          	sw	x0,56(x2)
    1ad8:	04012023          	sw	x0,64(x2)
    1adc:	04012223          	sw	x0,68(x2)
    1ae0:	02012e23          	sw	x0,60(x2)
    1ae4:	00012623          	sw	x0,12(x2)
    1ae8:	01000413          	addi	x8,x0,16
    1aec:	00098a13          	addi	x20,x19,0
    1af0:	22070463          	beq	x14,x0,1d18 <_vfprintf_r+0x338>
    1af4:	000d0a93          	addi	x21,x26,0
    1af8:	02500693          	addi	x13,x0,37
    1afc:	3cd70063          	beq	x14,x13,1ebc <_vfprintf_r+0x4dc>
    1b00:	001ac703          	lbu	x14,1(x21)
    1b04:	001a8a93          	addi	x21,x21,1
    1b08:	fe071ae3          	bne	x14,x0,1afc <_vfprintf_r+0x11c>
    1b0c:	41aa8933          	sub	x18,x21,x26
    1b10:	21aa8463          	beq	x21,x26,1d18 <_vfprintf_r+0x338>
    1b14:	0cc12683          	lw	x13,204(x2)
    1b18:	0c812703          	lw	x14,200(x2)
    1b1c:	01aa2023          	sw	x26,0(x20)
    1b20:	012686b3          	add	x13,x13,x18
    1b24:	00170713          	addi	x14,x14,1
    1b28:	012a2223          	sw	x18,4(x20)
    1b2c:	0cd12623          	sw	x13,204(x2)
    1b30:	0ce12423          	sw	x14,200(x2)
    1b34:	00700693          	addi	x13,x0,7
    1b38:	008a0a13          	addi	x20,x20,8
    1b3c:	38e6c863          	blt	x13,x14,1ecc <_vfprintf_r+0x4ec>
    1b40:	00c12783          	lw	x15,12(x2)
    1b44:	000ac703          	lbu	x14,0(x21)
    1b48:	012787b3          	add	x15,x15,x18
    1b4c:	00f12623          	sw	x15,12(x2)
    1b50:	1c070463          	beq	x14,x0,1d18 <_vfprintf_r+0x338>
    1b54:	001ac883          	lbu	x17,1(x21)
    1b58:	0a0103a3          	sb	x0,167(x2)
    1b5c:	001a8a93          	addi	x21,x21,1
    1b60:	fff00b13          	addi	x22,x0,-1
    1b64:	00000c93          	addi	x25,x0,0
    1b68:	00000b93          	addi	x23,x0,0
    1b6c:	05a00913          	addi	x18,x0,90
    1b70:	001a8a93          	addi	x21,x21,1
    1b74:	fe088793          	addi	x15,x17,-32
    1b78:	04f96a63          	bltu	x18,x15,1bcc <_vfprintf_r+0x1ec>
    1b7c:	00010717          	auipc	x14,0x10
    1b80:	19470713          	addi	x14,x14,404 # 11d10 <no_exception_handler_msg+0xb4>
    1b84:	00279793          	slli	x15,x15,0x2
    1b88:	00e787b3          	add	x15,x15,x14
    1b8c:	0007a783          	lw	x15,0(x15)
    1b90:	00e787b3          	add	x15,x15,x14
    1b94:	00078067          	jalr	x0,0(x15)
    1b98:	00000c93          	addi	x25,x0,0
    1b9c:	fd088793          	addi	x15,x17,-48
    1ba0:	00900693          	addi	x13,x0,9
    1ba4:	000ac883          	lbu	x17,0(x21)
    1ba8:	002c9713          	slli	x14,x25,0x2
    1bac:	01970cb3          	add	x25,x14,x25
    1bb0:	001c9c93          	slli	x25,x25,0x1
    1bb4:	01978cb3          	add	x25,x15,x25
    1bb8:	fd088793          	addi	x15,x17,-48
    1bbc:	001a8a93          	addi	x21,x21,1
    1bc0:	fef6f2e3          	bgeu	x13,x15,1ba4 <_vfprintf_r+0x1c4>
    1bc4:	fe088793          	addi	x15,x17,-32
    1bc8:	faf97ae3          	bgeu	x18,x15,1b7c <_vfprintf_r+0x19c>
    1bcc:	14088663          	beq	x17,x0,1d18 <_vfprintf_r+0x338>
    1bd0:	13110623          	sb	x17,300(x2)
    1bd4:	0a0103a3          	sb	x0,167(x2)
    1bd8:	00100d93          	addi	x27,x0,1
    1bdc:	00100913          	addi	x18,x0,1
    1be0:	12c10d13          	addi	x26,x2,300
    1be4:	00012823          	sw	x0,16(x2)
    1be8:	00000b13          	addi	x22,x0,0
    1bec:	02012223          	sw	x0,36(x2)
    1bf0:	02012023          	sw	x0,32(x2)
    1bf4:	00012c23          	sw	x0,24(x2)
    1bf8:	002bf293          	andi	x5,x23,2
    1bfc:	00028463          	beq	x5,x0,1c04 <_vfprintf_r+0x224>
    1c00:	002d8d93          	addi	x27,x27,2
    1c04:	084bff93          	andi	x31,x23,132
    1c08:	0cc12603          	lw	x12,204(x2)
    1c0c:	000f9663          	bne	x31,x0,1c18 <_vfprintf_r+0x238>
    1c10:	41bc8733          	sub	x14,x25,x27
    1c14:	4ae046e3          	blt	x0,x14,28c0 <_vfprintf_r+0xee0>
    1c18:	0a714703          	lbu	x14,167(x2)
    1c1c:	02070a63          	beq	x14,x0,1c50 <_vfprintf_r+0x270>
    1c20:	0c812703          	lw	x14,200(x2)
    1c24:	0a710593          	addi	x11,x2,167
    1c28:	00ba2023          	sw	x11,0(x20)
    1c2c:	00160613          	addi	x12,x12,1
    1c30:	00100593          	addi	x11,x0,1
    1c34:	00170713          	addi	x14,x14,1
    1c38:	00ba2223          	sw	x11,4(x20)
    1c3c:	0cc12623          	sw	x12,204(x2)
    1c40:	0ce12423          	sw	x14,200(x2)
    1c44:	00700593          	addi	x11,x0,7
    1c48:	008a0a13          	addi	x20,x20,8
    1c4c:	3ae5cc63          	blt	x11,x14,2004 <_vfprintf_r+0x624>
    1c50:	02028a63          	beq	x5,x0,1c84 <_vfprintf_r+0x2a4>
    1c54:	0c812703          	lw	x14,200(x2)
    1c58:	00200593          	addi	x11,x0,2
    1c5c:	00260613          	addi	x12,x12,2
    1c60:	00170713          	addi	x14,x14,1
    1c64:	0a810793          	addi	x15,x2,168
    1c68:	00ba2223          	sw	x11,4(x20)
    1c6c:	00fa2023          	sw	x15,0(x20)
    1c70:	0cc12623          	sw	x12,204(x2)
    1c74:	0ce12423          	sw	x14,200(x2)
    1c78:	00700593          	addi	x11,x0,7
    1c7c:	008a0a13          	addi	x20,x20,8
    1c80:	54e5c6e3          	blt	x11,x14,29cc <_vfprintf_r+0xfec>
    1c84:	08000713          	addi	x14,x0,128
    1c88:	22ef82e3          	beq	x31,x14,26ac <_vfprintf_r+0xccc>
    1c8c:	412b0b33          	sub	x22,x22,x18
    1c90:	31604ce3          	blt	x0,x22,27a8 <_vfprintf_r+0xdc8>
    1c94:	100bf713          	andi	x14,x23,256
    1c98:	0c071ce3          	bne	x14,x0,2570 <_vfprintf_r+0xb90>
    1c9c:	0c812783          	lw	x15,200(x2)
    1ca0:	01260633          	add	x12,x12,x18
    1ca4:	01aa2023          	sw	x26,0(x20)
    1ca8:	00178793          	addi	x15,x15,1
    1cac:	012a2223          	sw	x18,4(x20)
    1cb0:	0cc12623          	sw	x12,204(x2)
    1cb4:	0cf12423          	sw	x15,200(x2)
    1cb8:	00700713          	addi	x14,x0,7
    1cbc:	48f74463          	blt	x14,x15,2144 <_vfprintf_r+0x764>
    1cc0:	008a0a13          	addi	x20,x20,8
    1cc4:	004bfe13          	andi	x28,x23,4
    1cc8:	000e0663          	beq	x28,x0,1cd4 <_vfprintf_r+0x2f4>
    1ccc:	41bc8933          	sub	x18,x25,x27
    1cd0:	532046e3          	blt	x0,x18,29fc <_vfprintf_r+0x101c>
    1cd4:	000c8313          	addi	x6,x25,0
    1cd8:	01bcd463          	bge	x25,x27,1ce0 <_vfprintf_r+0x300>
    1cdc:	000d8313          	addi	x6,x27,0
    1ce0:	00c12783          	lw	x15,12(x2)
    1ce4:	006787b3          	add	x15,x15,x6
    1ce8:	00f12623          	sw	x15,12(x2)
    1cec:	3a0610e3          	bne	x12,x0,288c <_vfprintf_r+0xeac>
    1cf0:	01012783          	lw	x15,16(x2)
    1cf4:	0c012423          	sw	x0,200(x2)
    1cf8:	00078863          	beq	x15,x0,1d08 <_vfprintf_r+0x328>
    1cfc:	01012583          	lw	x11,16(x2)
    1d00:	00812503          	lw	x10,8(x2)
    1d04:	a30ff0ef          	jal	x1,f34 <_free_r>
    1d08:	00098a13          	addi	x20,x19,0
    1d0c:	000a8d13          	addi	x26,x21,0
    1d10:	000d4703          	lbu	x14,0(x26)
    1d14:	de0710e3          	bne	x14,x0,1af4 <_vfprintf_r+0x114>
    1d18:	0cc12783          	lw	x15,204(x2)
    1d1c:	00078463          	beq	x15,x0,1d24 <_vfprintf_r+0x344>
    1d20:	3e10106f          	jal	x0,3900 <_vfprintf_r+0x1f20>
    1d24:	00c4d783          	lhu	x15,12(x9)
    1d28:	1bc12983          	lw	x19,444(x2)
    1d2c:	1b812a03          	lw	x20,440(x2)
    1d30:	0407f793          	andi	x15,x15,64
    1d34:	1b412a83          	lw	x21,436(x2)
    1d38:	1b012b03          	lw	x22,432(x2)
    1d3c:	1ac12b83          	lw	x23,428(x2)
    1d40:	1a812c03          	lw	x24,424(x2)
    1d44:	1a412c83          	lw	x25,420(x2)
    1d48:	1a012d03          	lw	x26,416(x2)
    1d4c:	19c12d83          	lw	x27,412(x2)
    1d50:	00078463          	beq	x15,x0,1d58 <_vfprintf_r+0x378>
    1d54:	3680206f          	jal	x0,40bc <_vfprintf_r+0x26dc>
    1d58:	1cc12083          	lw	x1,460(x2)
    1d5c:	1c812403          	lw	x8,456(x2)
    1d60:	00c12503          	lw	x10,12(x2)
    1d64:	1c412483          	lw	x9,452(x2)
    1d68:	1c012903          	lw	x18,448(x2)
    1d6c:	1d010113          	addi	x2,x2,464
    1d70:	00008067          	jalr	x0,0(x1)
    1d74:	00812503          	lw	x10,8(x2)
    1d78:	00048593          	addi	x11,x9,0
    1d7c:	16d040ef          	jal	x1,66e8 <__swsetup_r>
    1d80:	00050463          	beq	x10,x0,1d88 <_vfprintf_r+0x3a8>
    1d84:	3380206f          	jal	x0,40bc <_vfprintf_r+0x26dc>
    1d88:	00c49703          	lh	x14,12(x9)
    1d8c:	00a00693          	addi	x13,x0,10
    1d90:	01a77713          	andi	x14,x14,26
    1d94:	ced71ee3          	bne	x14,x13,1a90 <_vfprintf_r+0xb0>
    1d98:	00e49703          	lh	x14,14(x9)
    1d9c:	ce074ae3          	blt	x14,x0,1a90 <_vfprintf_r+0xb0>
    1da0:	01412683          	lw	x13,20(x2)
    1da4:	00812503          	lw	x10,8(x2)
    1da8:	00090613          	addi	x12,x18,0
    1dac:	00048593          	addi	x11,x9,0
    1db0:	55c020ef          	jal	x1,430c <__sbprintf>
    1db4:	00a12623          	sw	x10,12(x2)
    1db8:	fa1ff06f          	jal	x0,1d58 <_vfprintf_r+0x378>
    1dbc:	000ac883          	lbu	x17,0(x21)
    1dc0:	db1ff06f          	jal	x0,1b70 <_vfprintf_r+0x190>
    1dc4:	000ac883          	lbu	x17,0(x21)
    1dc8:	020beb93          	ori	x23,x23,32
    1dcc:	da5ff06f          	jal	x0,1b70 <_vfprintf_r+0x190>
    1dd0:	010beb93          	ori	x23,x23,16
    1dd4:	020bf793          	andi	x15,x23,32
    1dd8:	3a078e63          	beq	x15,x0,2194 <_vfprintf_r+0x7b4>
    1ddc:	01412783          	lw	x15,20(x2)
    1de0:	00778c13          	addi	x24,x15,7
    1de4:	ff8c7c13          	andi	x24,x24,-8
    1de8:	004c2783          	lw	x15,4(x24)
    1dec:	000c2903          	lw	x18,0(x24)
    1df0:	008c0713          	addi	x14,x24,8
    1df4:	00e12a23          	sw	x14,20(x2)
    1df8:	00078d93          	addi	x27,x15,0
    1dfc:	3c07c663          	blt	x15,x0,21c8 <_vfprintf_r+0x7e8>
    1e00:	000b8f93          	addi	x31,x23,0
    1e04:	4e0b4863          	blt	x22,x0,22f4 <_vfprintf_r+0x914>
    1e08:	01b967b3          	or	x15,x18,x27
    1e0c:	f7fbff93          	andi	x31,x23,-129
    1e10:	4e079263          	bne	x15,x0,22f4 <_vfprintf_r+0x914>
    1e14:	4e0b1663          	bne	x22,x0,2300 <_vfprintf_r+0x920>
    1e18:	00000913          	addi	x18,x0,0
    1e1c:	000f8b93          	addi	x23,x31,0
    1e20:	19010d13          	addi	x26,x2,400
    1e24:	0a714703          	lbu	x14,167(x2)
    1e28:	000b0d93          	addi	x27,x22,0
    1e2c:	012b5463          	bge	x22,x18,1e34 <_vfprintf_r+0x454>
    1e30:	00090d93          	addi	x27,x18,0
    1e34:	00012823          	sw	x0,16(x2)
    1e38:	02012223          	sw	x0,36(x2)
    1e3c:	02012023          	sw	x0,32(x2)
    1e40:	00012c23          	sw	x0,24(x2)
    1e44:	da070ae3          	beq	x14,x0,1bf8 <_vfprintf_r+0x218>
    1e48:	001d8d93          	addi	x27,x27,1
    1e4c:	dadff06f          	jal	x0,1bf8 <_vfprintf_r+0x218>
    1e50:	010beb93          	ori	x23,x23,16
    1e54:	020bf793          	andi	x15,x23,32
    1e58:	30078663          	beq	x15,x0,2164 <_vfprintf_r+0x784>
    1e5c:	01412783          	lw	x15,20(x2)
    1e60:	00778c13          	addi	x24,x15,7
    1e64:	ff8c7c13          	andi	x24,x24,-8
    1e68:	000c2903          	lw	x18,0(x24)
    1e6c:	004c2d83          	lw	x27,4(x24)
    1e70:	008c0793          	addi	x15,x24,8
    1e74:	00f12a23          	sw	x15,20(x2)
    1e78:	bffbff93          	andi	x31,x23,-1025
    1e7c:	00000793          	addi	x15,x0,0
    1e80:	00000713          	addi	x14,x0,0
    1e84:	0ae103a3          	sb	x14,167(x2)
    1e88:	360b4263          	blt	x22,x0,21ec <_vfprintf_r+0x80c>
    1e8c:	01b96733          	or	x14,x18,x27
    1e90:	f7fffb93          	andi	x23,x31,-129
    1e94:	220712e3          	bne	x14,x0,28b8 <_vfprintf_r+0xed8>
    1e98:	660b1e63          	bne	x22,x0,2514 <_vfprintf_r+0xb34>
    1e9c:	660790e3          	bne	x15,x0,2cfc <_vfprintf_r+0x131c>
    1ea0:	001ff913          	andi	x18,x31,1
    1ea4:	19010d13          	addi	x26,x2,400
    1ea8:	f6090ee3          	beq	x18,x0,1e24 <_vfprintf_r+0x444>
    1eac:	03000793          	addi	x15,x0,48
    1eb0:	18f107a3          	sb	x15,399(x2)
    1eb4:	18f10d13          	addi	x26,x2,399
    1eb8:	f6dff06f          	jal	x0,1e24 <_vfprintf_r+0x444>
    1ebc:	41aa8933          	sub	x18,x21,x26
    1ec0:	c5aa9ae3          	bne	x21,x26,1b14 <_vfprintf_r+0x134>
    1ec4:	000ac703          	lbu	x14,0(x21)
    1ec8:	c89ff06f          	jal	x0,1b50 <_vfprintf_r+0x170>
    1ecc:	00812503          	lw	x10,8(x2)
    1ed0:	0c410613          	addi	x12,x2,196
    1ed4:	00048593          	addi	x11,x9,0
    1ed8:	624020ef          	jal	x1,44fc <__sprint_r>
    1edc:	e40514e3          	bne	x10,x0,1d24 <_vfprintf_r+0x344>
    1ee0:	00098a13          	addi	x20,x19,0
    1ee4:	c5dff06f          	jal	x0,1b40 <_vfprintf_r+0x160>
    1ee8:	008bf713          	andi	x14,x23,8
    1eec:	68071ee3          	bne	x14,x0,2d88 <_vfprintf_r+0x13a8>
    1ef0:	01412783          	lw	x15,20(x2)
    1ef4:	09010513          	addi	x10,x2,144
    1ef8:	01112823          	sw	x17,16(x2)
    1efc:	00778c13          	addi	x24,x15,7
    1f00:	ff8c7c13          	andi	x24,x24,-8
    1f04:	000c2583          	lw	x11,0(x24)
    1f08:	004c2603          	lw	x12,4(x24)
    1f0c:	008c0793          	addi	x15,x24,8
    1f10:	00f12a23          	sw	x15,20(x2)
    1f14:	6200f0ef          	jal	x1,11534 <__extenddftf2>
    1f18:	09012583          	lw	x11,144(x2)
    1f1c:	09412603          	lw	x12,148(x2)
    1f20:	09812683          	lw	x13,152(x2)
    1f24:	09c12703          	lw	x14,156(x2)
    1f28:	01012883          	lw	x17,16(x2)
    1f2c:	0d010513          	addi	x10,x2,208
    1f30:	01112823          	sw	x17,16(x2)
    1f34:	0ce12e23          	sw	x14,220(x2)
    1f38:	0cb12823          	sw	x11,208(x2)
    1f3c:	0cc12a23          	sw	x12,212(x2)
    1f40:	0cd12c23          	sw	x13,216(x2)
    1f44:	58d050ef          	jal	x1,7cd0 <_ldcheck>
    1f48:	0aa12623          	sw	x10,172(x2)
    1f4c:	00200713          	addi	x14,x0,2
    1f50:	01012883          	lw	x17,16(x2)
    1f54:	00e51463          	bne	x10,x14,1f5c <_vfprintf_r+0x57c>
    1f58:	4480106f          	jal	x0,33a0 <_vfprintf_r+0x19c0>
    1f5c:	00100713          	addi	x14,x0,1
    1f60:	00e51463          	bne	x10,x14,1f68 <_vfprintf_r+0x588>
    1f64:	5ac0106f          	jal	x0,3510 <_vfprintf_r+0x1b30>
    1f68:	06100713          	addi	x14,x0,97
    1f6c:	00e89463          	bne	x17,x14,1f74 <_vfprintf_r+0x594>
    1f70:	7f10006f          	jal	x0,2f60 <_vfprintf_r+0x1580>
    1f74:	04100713          	addi	x14,x0,65
    1f78:	05800793          	addi	x15,x0,88
    1f7c:	00e89463          	bne	x17,x14,1f84 <_vfprintf_r+0x5a4>
    1f80:	7e50006f          	jal	x0,2f64 <_vfprintf_r+0x1584>
    1f84:	fff00713          	addi	x14,x0,-1
    1f88:	00eb1463          	bne	x22,x14,1f90 <_vfprintf_r+0x5b0>
    1f8c:	1c40206f          	jal	x0,4150 <_vfprintf_r+0x2770>
    1f90:	fdf8f713          	andi	x14,x17,-33
    1f94:	04700693          	addi	x13,x0,71
    1f98:	00012823          	sw	x0,16(x2)
    1f9c:	00d71663          	bne	x14,x13,1fa8 <_vfprintf_r+0x5c8>
    1fa0:	000b1463          	bne	x22,x0,1fa8 <_vfprintf_r+0x5c8>
    1fa4:	00100b13          	addi	x22,x0,1
    1fa8:	0dc12c03          	lw	x24,220(x2)
    1fac:	100be793          	ori	x15,x23,256
    1fb0:	04f12423          	sw	x15,72(x2)
    1fb4:	02012a23          	sw	x0,52(x2)
    1fb8:	0d012f83          	lw	x31,208(x2)
    1fbc:	0d412f03          	lw	x30,212(x2)
    1fc0:	0d812e83          	lw	x29,216(x2)
    1fc4:	000c5a63          	bge	x24,x0,1fd8 <_vfprintf_r+0x5f8>
    1fc8:	80000737          	lui	x14,0x80000
    1fcc:	02d00793          	addi	x15,x0,45
    1fd0:	01874c33          	xor	x24,x14,x24
    1fd4:	02f12a23          	sw	x15,52(x2)
    1fd8:	fbf88713          	addi	x14,x17,-65
    1fdc:	02500693          	addi	x13,x0,37
    1fe0:	00e6f463          	bgeu	x13,x14,1fe8 <_vfprintf_r+0x608>
    1fe4:	7cd0006f          	jal	x0,2fb0 <_vfprintf_r+0x15d0>
    1fe8:	00010697          	auipc	x13,0x10
    1fec:	e9468693          	addi	x13,x13,-364 # 11e7c <no_exception_handler_msg+0x220>
    1ff0:	00271713          	slli	x14,x14,0x2
    1ff4:	00d70733          	add	x14,x14,x13
    1ff8:	00072703          	lw	x14,0(x14) # 80000000 <__heap_end+0x7fc00000>
    1ffc:	00d70733          	add	x14,x14,x13
    2000:	00070067          	jalr	x0,0(x14)
    2004:	00812503          	lw	x10,8(x2)
    2008:	0c410613          	addi	x12,x2,196
    200c:	00048593          	addi	x11,x9,0
    2010:	05112623          	sw	x17,76(x2)
    2014:	05f12423          	sw	x31,72(x2)
    2018:	02512a23          	sw	x5,52(x2)
    201c:	4e0020ef          	jal	x1,44fc <__sprint_r>
    2020:	080510e3          	bne	x10,x0,28a0 <_vfprintf_r+0xec0>
    2024:	0cc12603          	lw	x12,204(x2)
    2028:	04c12883          	lw	x17,76(x2)
    202c:	04812f83          	lw	x31,72(x2)
    2030:	03412283          	lw	x5,52(x2)
    2034:	00098a13          	addi	x20,x19,0
    2038:	c19ff06f          	jal	x0,1c50 <_vfprintf_r+0x270>
    203c:	0c812903          	lw	x18,200(x2)
    2040:	01c12783          	lw	x15,28(x2)
    2044:	00100713          	addi	x14,x0,1
    2048:	01aa2023          	sw	x26,0(x20)
    204c:	00160c13          	addi	x24,x12,1
    2050:	00190913          	addi	x18,x18,1
    2054:	008a0b13          	addi	x22,x20,8
    2058:	3af750e3          	bge	x14,x15,2bf8 <_vfprintf_r+0x1218>
    205c:	00100713          	addi	x14,x0,1
    2060:	00ea2223          	sw	x14,4(x20)
    2064:	0d812623          	sw	x24,204(x2)
    2068:	0d212423          	sw	x18,200(x2)
    206c:	00700713          	addi	x14,x0,7
    2070:	01275463          	bge	x14,x18,2078 <_vfprintf_r+0x698>
    2074:	1040106f          	jal	x0,3178 <_vfprintf_r+0x1798>
    2078:	02812783          	lw	x15,40(x2)
    207c:	02c12703          	lw	x14,44(x2)
    2080:	00190913          	addi	x18,x18,1
    2084:	00fc0c33          	add	x24,x24,x15
    2088:	00eb2023          	sw	x14,0(x22)
    208c:	00fb2223          	sw	x15,4(x22)
    2090:	0d812623          	sw	x24,204(x2)
    2094:	0d212423          	sw	x18,200(x2)
    2098:	00700713          	addi	x14,x0,7
    209c:	008b0b13          	addi	x22,x22,8
    20a0:	01275463          	bge	x14,x18,20a8 <_vfprintf_r+0x6c8>
    20a4:	0f80106f          	jal	x0,319c <_vfprintf_r+0x17bc>
    20a8:	0d012703          	lw	x14,208(x2)
    20ac:	01c12783          	lw	x15,28(x2)
    20b0:	08010593          	addi	x11,x2,128
    20b4:	08e12823          	sw	x14,144(x2)
    20b8:	0d412703          	lw	x14,212(x2)
    20bc:	09010513          	addi	x10,x2,144
    20c0:	08012023          	sw	x0,128(x2)
    20c4:	08e12a23          	sw	x14,148(x2)
    20c8:	0d812703          	lw	x14,216(x2)
    20cc:	08012223          	sw	x0,132(x2)
    20d0:	08012423          	sw	x0,136(x2)
    20d4:	08e12c23          	sw	x14,152(x2)
    20d8:	0dc12703          	lw	x14,220(x2)
    20dc:	08012623          	sw	x0,140(x2)
    20e0:	fff78a13          	addi	x20,x15,-1
    20e4:	08e12e23          	sw	x14,156(x2)
    20e8:	49c0c0ef          	jal	x1,e584 <__eqtf2>
    20ec:	340506e3          	beq	x10,x0,2c38 <_vfprintf_r+0x1258>
    20f0:	001d0793          	addi	x15,x26,1
    20f4:	00190913          	addi	x18,x18,1
    20f8:	014c0c33          	add	x24,x24,x20
    20fc:	00fb2023          	sw	x15,0(x22)
    2100:	014b2223          	sw	x20,4(x22)
    2104:	0d812623          	sw	x24,204(x2)
    2108:	0d212423          	sw	x18,200(x2)
    210c:	00700793          	addi	x15,x0,7
    2110:	008b0b13          	addi	x22,x22,8
    2114:	3127c0e3          	blt	x15,x18,2c14 <_vfprintf_r+0x1234>
    2118:	03812683          	lw	x13,56(x2)
    211c:	0b410713          	addi	x14,x2,180
    2120:	00190793          	addi	x15,x18,1
    2124:	01868633          	add	x12,x13,x24
    2128:	00eb2023          	sw	x14,0(x22)
    212c:	00db2223          	sw	x13,4(x22)
    2130:	0cc12623          	sw	x12,204(x2)
    2134:	0cf12423          	sw	x15,200(x2)
    2138:	00700713          	addi	x14,x0,7
    213c:	008b0a13          	addi	x20,x22,8
    2140:	b8f752e3          	bge	x14,x15,1cc4 <_vfprintf_r+0x2e4>
    2144:	00812503          	lw	x10,8(x2)
    2148:	0c410613          	addi	x12,x2,196
    214c:	00048593          	addi	x11,x9,0
    2150:	3ac020ef          	jal	x1,44fc <__sprint_r>
    2154:	74051663          	bne	x10,x0,28a0 <_vfprintf_r+0xec0>
    2158:	0cc12603          	lw	x12,204(x2)
    215c:	00098a13          	addi	x20,x19,0
    2160:	b65ff06f          	jal	x0,1cc4 <_vfprintf_r+0x2e4>
    2164:	01412703          	lw	x14,20(x2)
    2168:	010bf793          	andi	x15,x23,16
    216c:	00072903          	lw	x18,0(x14)
    2170:	00470c13          	addi	x24,x14,4
    2174:	3e0796e3          	bne	x15,x0,2d60 <_vfprintf_r+0x1380>
    2178:	040bf793          	andi	x15,x23,64
    217c:	3c078ee3          	beq	x15,x0,2d58 <_vfprintf_r+0x1378>
    2180:	01091913          	slli	x18,x18,0x10
    2184:	01095913          	srli	x18,x18,0x10
    2188:	00000d93          	addi	x27,x0,0
    218c:	01812a23          	sw	x24,20(x2)
    2190:	ce9ff06f          	jal	x0,1e78 <_vfprintf_r+0x498>
    2194:	01412703          	lw	x14,20(x2)
    2198:	010bf793          	andi	x15,x23,16
    219c:	00072903          	lw	x18,0(x14)
    21a0:	00470c13          	addi	x24,x14,4
    21a4:	3a0792e3          	bne	x15,x0,2d48 <_vfprintf_r+0x1368>
    21a8:	040bf793          	andi	x15,x23,64
    21ac:	38078ae3          	beq	x15,x0,2d40 <_vfprintf_r+0x1360>
    21b0:	01091913          	slli	x18,x18,0x10
    21b4:	41095913          	srai	x18,x18,0x10
    21b8:	41f95d93          	srai	x27,x18,0x1f
    21bc:	000d8793          	addi	x15,x27,0
    21c0:	01812a23          	sw	x24,20(x2)
    21c4:	c207dee3          	bge	x15,x0,1e00 <_vfprintf_r+0x420>
    21c8:	02d00713          	addi	x14,x0,45
    21cc:	012037b3          	sltu	x15,x0,x18
    21d0:	41b00db3          	sub	x27,x0,x27
    21d4:	0ae103a3          	sb	x14,167(x2)
    21d8:	40fd8db3          	sub	x27,x27,x15
    21dc:	41200933          	sub	x18,x0,x18
    21e0:	000b8f93          	addi	x31,x23,0
    21e4:	00100793          	addi	x15,x0,1
    21e8:	ca0b52e3          	bge	x22,x0,1e8c <_vfprintf_r+0x4ac>
    21ec:	00100713          	addi	x14,x0,1
    21f0:	10e78263          	beq	x15,x14,22f4 <_vfprintf_r+0x914>
    21f4:	00200713          	addi	x14,x0,2
    21f8:	32e78a63          	beq	x15,x14,252c <_vfprintf_r+0xb4c>
    21fc:	19010d13          	addi	x26,x2,400
    2200:	01dd9793          	slli	x15,x27,0x1d
    2204:	00797713          	andi	x14,x18,7
    2208:	00395913          	srli	x18,x18,0x3
    220c:	03070713          	addi	x14,x14,48
    2210:	0127e933          	or	x18,x15,x18
    2214:	003ddd93          	srli	x27,x27,0x3
    2218:	feed0fa3          	sb	x14,-1(x26)
    221c:	01b967b3          	or	x15,x18,x27
    2220:	000d0613          	addi	x12,x26,0
    2224:	fffd0d13          	addi	x26,x26,-1
    2228:	fc079ce3          	bne	x15,x0,2200 <_vfprintf_r+0x820>
    222c:	001ff693          	andi	x13,x31,1
    2230:	32068863          	beq	x13,x0,2560 <_vfprintf_r+0xb80>
    2234:	03000693          	addi	x13,x0,48
    2238:	32d70463          	beq	x14,x13,2560 <_vfprintf_r+0xb80>
    223c:	ffe60613          	addi	x12,x12,-2
    2240:	19010793          	addi	x15,x2,400
    2244:	fedd0fa3          	sb	x13,-1(x26)
    2248:	40c78933          	sub	x18,x15,x12
    224c:	000f8b93          	addi	x23,x31,0
    2250:	00060d13          	addi	x26,x12,0
    2254:	bd1ff06f          	jal	x0,1e24 <_vfprintf_r+0x444>
    2258:	01412703          	lw	x14,20(x2)
    225c:	0a0103a3          	sb	x0,167(x2)
    2260:	00100d93          	addi	x27,x0,1
    2264:	00072783          	lw	x15,0(x14)
    2268:	00470713          	addi	x14,x14,4
    226c:	00e12a23          	sw	x14,20(x2)
    2270:	12f10623          	sb	x15,300(x2)
    2274:	00100913          	addi	x18,x0,1
    2278:	12c10d13          	addi	x26,x2,300
    227c:	969ff06f          	jal	x0,1be4 <_vfprintf_r+0x204>
    2280:	01412783          	lw	x15,20(x2)
    2284:	0a0103a3          	sb	x0,167(x2)
    2288:	0007ad03          	lw	x26,0(x15)
    228c:	00478c13          	addi	x24,x15,4
    2290:	3e0d04e3          	beq	x26,x0,2e78 <_vfprintf_r+0x1498>
    2294:	000b5463          	bge	x22,x0,229c <_vfprintf_r+0x8bc>
    2298:	2300106f          	jal	x0,34c8 <_vfprintf_r+0x1ae8>
    229c:	000b0613          	addi	x12,x22,0
    22a0:	00000593          	addi	x11,x0,0
    22a4:	000d0513          	addi	x10,x26,0
    22a8:	01112a23          	sw	x17,20(x2)
    22ac:	6fd030ef          	jal	x1,61a8 <memchr>
    22b0:	00a12823          	sw	x10,16(x2)
    22b4:	0a714703          	lbu	x14,167(x2)
    22b8:	01412883          	lw	x17,20(x2)
    22bc:	00051463          	bne	x10,x0,22c4 <_vfprintf_r+0x8e4>
    22c0:	43d0106f          	jal	x0,3efc <_vfprintf_r+0x251c>
    22c4:	41a50933          	sub	x18,x10,x26
    22c8:	fff94693          	xori	x13,x18,-1
    22cc:	41f6d693          	srai	x13,x13,0x1f
    22d0:	01812a23          	sw	x24,20(x2)
    22d4:	00012823          	sw	x0,16(x2)
    22d8:	02012223          	sw	x0,36(x2)
    22dc:	02012023          	sw	x0,32(x2)
    22e0:	00012c23          	sw	x0,24(x2)
    22e4:	00d97db3          	and	x27,x18,x13
    22e8:	00000b13          	addi	x22,x0,0
    22ec:	b4071ee3          	bne	x14,x0,1e48 <_vfprintf_r+0x468>
    22f0:	909ff06f          	jal	x0,1bf8 <_vfprintf_r+0x218>
    22f4:	6e0d90e3          	bne	x27,x0,31d4 <_vfprintf_r+0x17f4>
    22f8:	00900793          	addi	x15,x0,9
    22fc:	6d27ece3          	bltu	x15,x18,31d4 <_vfprintf_r+0x17f4>
    2300:	03090913          	addi	x18,x18,48
    2304:	192107a3          	sb	x18,399(x2)
    2308:	000f8b93          	addi	x23,x31,0
    230c:	00100913          	addi	x18,x0,1
    2310:	18f10d13          	addi	x26,x2,399
    2314:	b11ff06f          	jal	x0,1e24 <_vfprintf_r+0x444>
    2318:	01412783          	lw	x15,20(x2)
    231c:	0007ac83          	lw	x25,0(x15)
    2320:	00478793          	addi	x15,x15,4
    2324:	1e0cdae3          	bge	x25,x0,2d18 <_vfprintf_r+0x1338>
    2328:	41900cb3          	sub	x25,x0,x25
    232c:	00f12a23          	sw	x15,20(x2)
    2330:	000ac883          	lbu	x17,0(x21)
    2334:	004beb93          	ori	x23,x23,4
    2338:	839ff06f          	jal	x0,1b70 <_vfprintf_r+0x190>
    233c:	010bef93          	ori	x31,x23,16
    2340:	020ff793          	andi	x15,x31,32
    2344:	180782e3          	beq	x15,x0,2cc8 <_vfprintf_r+0x12e8>
    2348:	01412783          	lw	x15,20(x2)
    234c:	00778c13          	addi	x24,x15,7
    2350:	ff8c7c13          	andi	x24,x24,-8
    2354:	008c0793          	addi	x15,x24,8
    2358:	00f12a23          	sw	x15,20(x2)
    235c:	000c2903          	lw	x18,0(x24)
    2360:	004c2d83          	lw	x27,4(x24)
    2364:	00100793          	addi	x15,x0,1
    2368:	b19ff06f          	jal	x0,1e80 <_vfprintf_r+0x4a0>
    236c:	02b00793          	addi	x15,x0,43
    2370:	000ac883          	lbu	x17,0(x21)
    2374:	0af103a3          	sb	x15,167(x2)
    2378:	ff8ff06f          	jal	x0,1b70 <_vfprintf_r+0x190>
    237c:	01412703          	lw	x14,20(x2)
    2380:	000087b7          	lui	x15,0x8
    2384:	83078793          	addi	x15,x15,-2000 # 7830 <_read_r+0x44>
    2388:	0af11423          	sh	x15,168(x2)
    238c:	00470793          	addi	x15,x14,4
    2390:	00f12a23          	sw	x15,20(x2)
    2394:	0000f797          	auipc	x15,0xf
    2398:	72078793          	addi	x15,x15,1824 # 11ab4 <__clzsi2+0x338>
    239c:	02f12823          	sw	x15,48(x2)
    23a0:	00072903          	lw	x18,0(x14)
    23a4:	00000d93          	addi	x27,x0,0
    23a8:	002bef93          	ori	x31,x23,2
    23ac:	00200793          	addi	x15,x0,2
    23b0:	07800893          	addi	x17,x0,120
    23b4:	acdff06f          	jal	x0,1e80 <_vfprintf_r+0x4a0>
    23b8:	01412683          	lw	x13,20(x2)
    23bc:	020bf793          	andi	x15,x23,32
    23c0:	00468713          	addi	x14,x13,4
    23c4:	1a0794e3          	bne	x15,x0,2d6c <_vfprintf_r+0x138c>
    23c8:	010bf793          	andi	x15,x23,16
    23cc:	00078463          	beq	x15,x0,23d4 <_vfprintf_r+0x9f4>
    23d0:	05c0106f          	jal	x0,342c <_vfprintf_r+0x1a4c>
    23d4:	040bf793          	andi	x15,x23,64
    23d8:	00078463          	beq	x15,x0,23e0 <_vfprintf_r+0xa00>
    23dc:	50c0106f          	jal	x0,38e8 <_vfprintf_r+0x1f08>
    23e0:	200bfe13          	andi	x28,x23,512
    23e4:	000e1463          	bne	x28,x0,23ec <_vfprintf_r+0xa0c>
    23e8:	0440106f          	jal	x0,342c <_vfprintf_r+0x1a4c>
    23ec:	01412783          	lw	x15,20(x2)
    23f0:	00c12683          	lw	x13,12(x2)
    23f4:	00e12a23          	sw	x14,20(x2)
    23f8:	0007a783          	lw	x15,0(x15)
    23fc:	00d78023          	sb	x13,0(x15)
    2400:	000a8d13          	addi	x26,x21,0
    2404:	90dff06f          	jal	x0,1d10 <_vfprintf_r+0x330>
    2408:	000ac883          	lbu	x17,0(x21)
    240c:	06c00793          	addi	x15,x0,108
    2410:	22f884e3          	beq	x17,x15,2e38 <_vfprintf_r+0x1458>
    2414:	010beb93          	ori	x23,x23,16
    2418:	f58ff06f          	jal	x0,1b70 <_vfprintf_r+0x190>
    241c:	000ac883          	lbu	x17,0(x21)
    2420:	06800793          	addi	x15,x0,104
    2424:	24f882e3          	beq	x17,x15,2e68 <_vfprintf_r+0x1488>
    2428:	040beb93          	ori	x23,x23,64
    242c:	f44ff06f          	jal	x0,1b70 <_vfprintf_r+0x190>
    2430:	000ac883          	lbu	x17,0(x21)
    2434:	008beb93          	ori	x23,x23,8
    2438:	f38ff06f          	jal	x0,1b70 <_vfprintf_r+0x190>
    243c:	00812c03          	lw	x24,8(x2)
    2440:	000c0513          	addi	x10,x24,0
    2444:	635030ef          	jal	x1,6278 <_localeconv_r>
    2448:	00452783          	lw	x15,4(x10)
    244c:	00078513          	addi	x10,x15,0
    2450:	02f12e23          	sw	x15,60(x2)
    2454:	208040ef          	jal	x1,665c <strlen>
    2458:	00050793          	addi	x15,x10,0
    245c:	000c0513          	addi	x10,x24,0
    2460:	04f12223          	sw	x15,68(x2)
    2464:	00078c13          	addi	x24,x15,0
    2468:	611030ef          	jal	x1,6278 <_localeconv_r>
    246c:	00852703          	lw	x14,8(x10)
    2470:	000ac883          	lbu	x17,0(x21)
    2474:	04e12023          	sw	x14,64(x2)
    2478:	ee0c0c63          	beq	x24,x0,1b70 <_vfprintf_r+0x190>
    247c:	ee070a63          	beq	x14,x0,1b70 <_vfprintf_r+0x190>
    2480:	00074783          	lbu	x15,0(x14)
    2484:	ee078663          	beq	x15,x0,1b70 <_vfprintf_r+0x190>
    2488:	400beb93          	ori	x23,x23,1024
    248c:	ee4ff06f          	jal	x0,1b70 <_vfprintf_r+0x190>
    2490:	000ac883          	lbu	x17,0(x21)
    2494:	001beb93          	ori	x23,x23,1
    2498:	ed8ff06f          	jal	x0,1b70 <_vfprintf_r+0x190>
    249c:	0a714783          	lbu	x15,167(x2)
    24a0:	000ac883          	lbu	x17,0(x21)
    24a4:	ec079663          	bne	x15,x0,1b70 <_vfprintf_r+0x190>
    24a8:	02000793          	addi	x15,x0,32
    24ac:	0af103a3          	sb	x15,167(x2)
    24b0:	ec0ff06f          	jal	x0,1b70 <_vfprintf_r+0x190>
    24b4:	000ac883          	lbu	x17,0(x21)
    24b8:	080beb93          	ori	x23,x23,128
    24bc:	eb4ff06f          	jal	x0,1b70 <_vfprintf_r+0x190>
    24c0:	000ac883          	lbu	x17,0(x21)
    24c4:	02a00793          	addi	x15,x0,42
    24c8:	001a8693          	addi	x13,x21,1
    24cc:	00f89463          	bne	x17,x15,24d4 <_vfprintf_r+0xaf4>
    24d0:	5a90106f          	jal	x0,4278 <_vfprintf_r+0x2898>
    24d4:	fd088793          	addi	x15,x17,-48
    24d8:	00900713          	addi	x14,x0,9
    24dc:	00000b13          	addi	x22,x0,0
    24e0:	00900613          	addi	x12,x0,9
    24e4:	02f76463          	bltu	x14,x15,250c <_vfprintf_r+0xb2c>
    24e8:	0006c883          	lbu	x17,0(x13)
    24ec:	002b1713          	slli	x14,x22,0x2
    24f0:	01670b33          	add	x22,x14,x22
    24f4:	001b1b13          	slli	x22,x22,0x1
    24f8:	00fb0b33          	add	x22,x22,x15
    24fc:	fd088793          	addi	x15,x17,-48
    2500:	00168693          	addi	x13,x13,1
    2504:	fef672e3          	bgeu	x12,x15,24e8 <_vfprintf_r+0xb08>
    2508:	0a0b48e3          	blt	x22,x0,2db8 <_vfprintf_r+0x13d8>
    250c:	00068a93          	addi	x21,x13,0
    2510:	e64ff06f          	jal	x0,1b74 <_vfprintf_r+0x194>
    2514:	00100713          	addi	x14,x0,1
    2518:	00e79463          	bne	x15,x14,2520 <_vfprintf_r+0xb40>
    251c:	3ad0106f          	jal	x0,40c8 <_vfprintf_r+0x26e8>
    2520:	00200713          	addi	x14,x0,2
    2524:	000b8f93          	addi	x31,x23,0
    2528:	cce79ae3          	bne	x15,x14,21fc <_vfprintf_r+0x81c>
    252c:	03012683          	lw	x13,48(x2)
    2530:	19010d13          	addi	x26,x2,400
    2534:	00f97793          	andi	x15,x18,15
    2538:	00f687b3          	add	x15,x13,x15
    253c:	0007c703          	lbu	x14,0(x15)
    2540:	00495913          	srli	x18,x18,0x4
    2544:	01cd9793          	slli	x15,x27,0x1c
    2548:	0127e933          	or	x18,x15,x18
    254c:	004ddd93          	srli	x27,x27,0x4
    2550:	feed0fa3          	sb	x14,-1(x26)
    2554:	01b967b3          	or	x15,x18,x27
    2558:	fffd0d13          	addi	x26,x26,-1
    255c:	fc079ce3          	bne	x15,x0,2534 <_vfprintf_r+0xb54>
    2560:	19010793          	addi	x15,x2,400
    2564:	41a78933          	sub	x18,x15,x26
    2568:	000f8b93          	addi	x23,x31,0
    256c:	8b9ff06f          	jal	x0,1e24 <_vfprintf_r+0x444>
    2570:	06500713          	addi	x14,x0,101
    2574:	ad1754e3          	bge	x14,x17,203c <_vfprintf_r+0x65c>
    2578:	0d012703          	lw	x14,208(x2)
    257c:	08010593          	addi	x11,x2,128
    2580:	09010513          	addi	x10,x2,144
    2584:	08e12823          	sw	x14,144(x2)
    2588:	0d412703          	lw	x14,212(x2)
    258c:	02c12a23          	sw	x12,52(x2)
    2590:	08012023          	sw	x0,128(x2)
    2594:	08e12a23          	sw	x14,148(x2)
    2598:	0d812703          	lw	x14,216(x2)
    259c:	08012223          	sw	x0,132(x2)
    25a0:	08012423          	sw	x0,136(x2)
    25a4:	08e12c23          	sw	x14,152(x2)
    25a8:	0dc12703          	lw	x14,220(x2)
    25ac:	08012623          	sw	x0,140(x2)
    25b0:	08e12e23          	sw	x14,156(x2)
    25b4:	7d10b0ef          	jal	x1,e584 <__eqtf2>
    25b8:	03412603          	lw	x12,52(x2)
    25bc:	4e051863          	bne	x10,x0,2aac <_vfprintf_r+0x10cc>
    25c0:	0c812783          	lw	x15,200(x2)
    25c4:	0000f717          	auipc	x14,0xf
    25c8:	52070713          	addi	x14,x14,1312 # 11ae4 <__clzsi2+0x368>
    25cc:	00ea2023          	sw	x14,0(x20)
    25d0:	00160613          	addi	x12,x12,1
    25d4:	00100713          	addi	x14,x0,1
    25d8:	00178793          	addi	x15,x15,1
    25dc:	00ea2223          	sw	x14,4(x20)
    25e0:	0cc12623          	sw	x12,204(x2)
    25e4:	0cf12423          	sw	x15,200(x2)
    25e8:	00700713          	addi	x14,x0,7
    25ec:	008a0a13          	addi	x20,x20,8
    25f0:	56f74ee3          	blt	x14,x15,336c <_vfprintf_r+0x198c>
    25f4:	0ac12783          	lw	x15,172(x2)
    25f8:	01c12703          	lw	x14,28(x2)
    25fc:	70e7d663          	bge	x15,x14,2d08 <_vfprintf_r+0x1328>
    2600:	02c12783          	lw	x15,44(x2)
    2604:	02812703          	lw	x14,40(x2)
    2608:	008a0a13          	addi	x20,x20,8
    260c:	fefa2c23          	sw	x15,-8(x20)
    2610:	0c812783          	lw	x15,200(x2)
    2614:	00e60633          	add	x12,x12,x14
    2618:	feea2e23          	sw	x14,-4(x20)
    261c:	00178793          	addi	x15,x15,1
    2620:	0cc12623          	sw	x12,204(x2)
    2624:	0cf12423          	sw	x15,200(x2)
    2628:	00700713          	addi	x14,x0,7
    262c:	00f74ee3          	blt	x14,x15,2e48 <_vfprintf_r+0x1468>
    2630:	01c12783          	lw	x15,28(x2)
    2634:	fff78913          	addi	x18,x15,-1
    2638:	e9205663          	bge	x0,x18,1cc4 <_vfprintf_r+0x2e4>
    263c:	00010817          	auipc	x16,0x10
    2640:	8e880813          	addi	x16,x16,-1816 # 11f24 <zeroes.0>
    2644:	01000713          	addi	x14,x0,16
    2648:	0c812783          	lw	x15,200(x2)
    264c:	01000b13          	addi	x22,x0,16
    2650:	00700c13          	addi	x24,x0,7
    2654:	00080d13          	addi	x26,x16,0
    2658:	01274863          	blt	x14,x18,2668 <_vfprintf_r+0xc88>
    265c:	5350006f          	jal	x0,3390 <_vfprintf_r+0x19b0>
    2660:	ff090913          	addi	x18,x18,-16
    2664:	532b54e3          	bge	x22,x18,338c <_vfprintf_r+0x19ac>
    2668:	01060613          	addi	x12,x12,16
    266c:	00178793          	addi	x15,x15,1
    2670:	01aa2023          	sw	x26,0(x20)
    2674:	016a2223          	sw	x22,4(x20)
    2678:	0cc12623          	sw	x12,204(x2)
    267c:	0cf12423          	sw	x15,200(x2)
    2680:	008a0a13          	addi	x20,x20,8
    2684:	fcfc5ee3          	bge	x24,x15,2660 <_vfprintf_r+0xc80>
    2688:	00812503          	lw	x10,8(x2)
    268c:	0c410613          	addi	x12,x2,196
    2690:	00048593          	addi	x11,x9,0
    2694:	669010ef          	jal	x1,44fc <__sprint_r>
    2698:	20051463          	bne	x10,x0,28a0 <_vfprintf_r+0xec0>
    269c:	0cc12603          	lw	x12,204(x2)
    26a0:	0c812783          	lw	x15,200(x2)
    26a4:	00098a13          	addi	x20,x19,0
    26a8:	fb9ff06f          	jal	x0,2660 <_vfprintf_r+0xc80>
    26ac:	41bc8c33          	sub	x24,x25,x27
    26b0:	dd805e63          	bge	x0,x24,1c8c <_vfprintf_r+0x2ac>
    26b4:	01000513          	addi	x10,x0,16
    26b8:	0c812583          	lw	x11,200(x2)
    26bc:	00010817          	auipc	x16,0x10
    26c0:	86880813          	addi	x16,x16,-1944 # 11f24 <zeroes.0>
    26c4:	09855c63          	bge	x10,x24,275c <_vfprintf_r+0xd7c>
    26c8:	000c0713          	addi	x14,x24,0
    26cc:	000a0793          	addi	x15,x20,0
    26d0:	00090c13          	addi	x24,x18,0
    26d4:	01000e93          	addi	x29,x0,16
    26d8:	00700f93          	addi	x31,x0,7
    26dc:	03112a23          	sw	x17,52(x2)
    26e0:	00080a13          	addi	x20,x16,0
    26e4:	00070913          	addi	x18,x14,0
    26e8:	00c0006f          	jal	x0,26f4 <_vfprintf_r+0xd14>
    26ec:	ff090913          	addi	x18,x18,-16
    26f0:	052eda63          	bge	x29,x18,2744 <_vfprintf_r+0xd64>
    26f4:	01060613          	addi	x12,x12,16
    26f8:	00158593          	addi	x11,x11,1
    26fc:	0147a023          	sw	x20,0(x15)
    2700:	01d7a223          	sw	x29,4(x15)
    2704:	0cc12623          	sw	x12,204(x2)
    2708:	0cb12423          	sw	x11,200(x2)
    270c:	00878793          	addi	x15,x15,8
    2710:	fcbfdee3          	bge	x31,x11,26ec <_vfprintf_r+0xd0c>
    2714:	00812503          	lw	x10,8(x2)
    2718:	0c410613          	addi	x12,x2,196
    271c:	00048593          	addi	x11,x9,0
    2720:	5dd010ef          	jal	x1,44fc <__sprint_r>
    2724:	16051e63          	bne	x10,x0,28a0 <_vfprintf_r+0xec0>
    2728:	01000e93          	addi	x29,x0,16
    272c:	ff090913          	addi	x18,x18,-16
    2730:	0cc12603          	lw	x12,204(x2)
    2734:	0c812583          	lw	x11,200(x2)
    2738:	00098793          	addi	x15,x19,0
    273c:	00700f93          	addi	x31,x0,7
    2740:	fb2ecae3          	blt	x29,x18,26f4 <_vfprintf_r+0xd14>
    2744:	03412883          	lw	x17,52(x2)
    2748:	00090713          	addi	x14,x18,0
    274c:	000a0813          	addi	x16,x20,0
    2750:	000c0913          	addi	x18,x24,0
    2754:	00078a13          	addi	x20,x15,0
    2758:	00070c13          	addi	x24,x14,0
    275c:	01860633          	add	x12,x12,x24
    2760:	00158593          	addi	x11,x11,1
    2764:	010a2023          	sw	x16,0(x20)
    2768:	018a2223          	sw	x24,4(x20)
    276c:	0cc12623          	sw	x12,204(x2)
    2770:	0cb12423          	sw	x11,200(x2)
    2774:	00700713          	addi	x14,x0,7
    2778:	008a0a13          	addi	x20,x20,8
    277c:	d0b75863          	bge	x14,x11,1c8c <_vfprintf_r+0x2ac>
    2780:	00812503          	lw	x10,8(x2)
    2784:	0c410613          	addi	x12,x2,196
    2788:	00048593          	addi	x11,x9,0
    278c:	03112a23          	sw	x17,52(x2)
    2790:	56d010ef          	jal	x1,44fc <__sprint_r>
    2794:	10051663          	bne	x10,x0,28a0 <_vfprintf_r+0xec0>
    2798:	0cc12603          	lw	x12,204(x2)
    279c:	03412883          	lw	x17,52(x2)
    27a0:	00098a13          	addi	x20,x19,0
    27a4:	ce8ff06f          	jal	x0,1c8c <_vfprintf_r+0x2ac>
    27a8:	0c812583          	lw	x11,200(x2)
    27ac:	0000f817          	auipc	x16,0xf
    27b0:	77880813          	addi	x16,x16,1912 # 11f24 <zeroes.0>
    27b4:	09645663          	bge	x8,x22,2840 <_vfprintf_r+0xe60>
    27b8:	000a0793          	addi	x15,x20,0
    27bc:	00700c13          	addi	x24,x0,7
    27c0:	00090a13          	addi	x20,x18,0
    27c4:	03112a23          	sw	x17,52(x2)
    27c8:	000b0913          	addi	x18,x22,0
    27cc:	00080b13          	addi	x22,x16,0
    27d0:	00c0006f          	jal	x0,27dc <_vfprintf_r+0xdfc>
    27d4:	ff090913          	addi	x18,x18,-16
    27d8:	05245a63          	bge	x8,x18,282c <_vfprintf_r+0xe4c>
    27dc:	01060613          	addi	x12,x12,16
    27e0:	00158593          	addi	x11,x11,1
    27e4:	0000f717          	auipc	x14,0xf
    27e8:	74070713          	addi	x14,x14,1856 # 11f24 <zeroes.0>
    27ec:	00e7a023          	sw	x14,0(x15)
    27f0:	0087a223          	sw	x8,4(x15)
    27f4:	0cc12623          	sw	x12,204(x2)
    27f8:	0cb12423          	sw	x11,200(x2)
    27fc:	00878793          	addi	x15,x15,8
    2800:	fcbc5ae3          	bge	x24,x11,27d4 <_vfprintf_r+0xdf4>
    2804:	00812503          	lw	x10,8(x2)
    2808:	0c410613          	addi	x12,x2,196
    280c:	00048593          	addi	x11,x9,0
    2810:	4ed010ef          	jal	x1,44fc <__sprint_r>
    2814:	08051663          	bne	x10,x0,28a0 <_vfprintf_r+0xec0>
    2818:	ff090913          	addi	x18,x18,-16
    281c:	0cc12603          	lw	x12,204(x2)
    2820:	0c812583          	lw	x11,200(x2)
    2824:	00098793          	addi	x15,x19,0
    2828:	fb244ae3          	blt	x8,x18,27dc <_vfprintf_r+0xdfc>
    282c:	03412883          	lw	x17,52(x2)
    2830:	000b0813          	addi	x16,x22,0
    2834:	00090b13          	addi	x22,x18,0
    2838:	000a0913          	addi	x18,x20,0
    283c:	00078a13          	addi	x20,x15,0
    2840:	01660633          	add	x12,x12,x22
    2844:	00158593          	addi	x11,x11,1
    2848:	010a2023          	sw	x16,0(x20)
    284c:	016a2223          	sw	x22,4(x20)
    2850:	0cc12623          	sw	x12,204(x2)
    2854:	0cb12423          	sw	x11,200(x2)
    2858:	00700713          	addi	x14,x0,7
    285c:	008a0a13          	addi	x20,x20,8
    2860:	c2b75a63          	bge	x14,x11,1c94 <_vfprintf_r+0x2b4>
    2864:	00812503          	lw	x10,8(x2)
    2868:	0c410613          	addi	x12,x2,196
    286c:	00048593          	addi	x11,x9,0
    2870:	03112a23          	sw	x17,52(x2)
    2874:	489010ef          	jal	x1,44fc <__sprint_r>
    2878:	02051463          	bne	x10,x0,28a0 <_vfprintf_r+0xec0>
    287c:	0cc12603          	lw	x12,204(x2)
    2880:	03412883          	lw	x17,52(x2)
    2884:	00098a13          	addi	x20,x19,0
    2888:	c0cff06f          	jal	x0,1c94 <_vfprintf_r+0x2b4>
    288c:	00812503          	lw	x10,8(x2)
    2890:	0c410613          	addi	x12,x2,196
    2894:	00048593          	addi	x11,x9,0
    2898:	465010ef          	jal	x1,44fc <__sprint_r>
    289c:	c4050a63          	beq	x10,x0,1cf0 <_vfprintf_r+0x310>
    28a0:	01012383          	lw	x7,16(x2)
    28a4:	c8038063          	beq	x7,x0,1d24 <_vfprintf_r+0x344>
    28a8:	00812503          	lw	x10,8(x2)
    28ac:	00038593          	addi	x11,x7,0
    28b0:	e84fe0ef          	jal	x1,f34 <_free_r>
    28b4:	c70ff06f          	jal	x0,1d24 <_vfprintf_r+0x344>
    28b8:	000b8f93          	addi	x31,x23,0
    28bc:	931ff06f          	jal	x0,21ec <_vfprintf_r+0x80c>
    28c0:	01000513          	addi	x10,x0,16
    28c4:	0c812583          	lw	x11,200(x2)
    28c8:	0000fc17          	auipc	x24,0xf
    28cc:	64cc0c13          	addi	x24,x24,1612 # 11f14 <blanks.1>
    28d0:	0ae55063          	bge	x10,x14,2970 <_vfprintf_r+0xf90>
    28d4:	000a0793          	addi	x15,x20,0
    28d8:	01000813          	addi	x16,x0,16
    28dc:	000c0a13          	addi	x20,x24,0
    28e0:	00700393          	addi	x7,x0,7
    28e4:	00090c13          	addi	x24,x18,0
    28e8:	02512a23          	sw	x5,52(x2)
    28ec:	05f12423          	sw	x31,72(x2)
    28f0:	05112623          	sw	x17,76(x2)
    28f4:	00070913          	addi	x18,x14,0
    28f8:	00c0006f          	jal	x0,2904 <_vfprintf_r+0xf24>
    28fc:	ff090913          	addi	x18,x18,-16
    2900:	05285a63          	bge	x16,x18,2954 <_vfprintf_r+0xf74>
    2904:	01060613          	addi	x12,x12,16
    2908:	00158593          	addi	x11,x11,1
    290c:	0147a023          	sw	x20,0(x15)
    2910:	0107a223          	sw	x16,4(x15)
    2914:	0cc12623          	sw	x12,204(x2)
    2918:	0cb12423          	sw	x11,200(x2)
    291c:	00878793          	addi	x15,x15,8
    2920:	fcb3dee3          	bge	x7,x11,28fc <_vfprintf_r+0xf1c>
    2924:	00812503          	lw	x10,8(x2)
    2928:	0c410613          	addi	x12,x2,196
    292c:	00048593          	addi	x11,x9,0
    2930:	3cd010ef          	jal	x1,44fc <__sprint_r>
    2934:	f60516e3          	bne	x10,x0,28a0 <_vfprintf_r+0xec0>
    2938:	01000813          	addi	x16,x0,16
    293c:	ff090913          	addi	x18,x18,-16
    2940:	0cc12603          	lw	x12,204(x2)
    2944:	0c812583          	lw	x11,200(x2)
    2948:	00098793          	addi	x15,x19,0
    294c:	00700393          	addi	x7,x0,7
    2950:	fb284ae3          	blt	x16,x18,2904 <_vfprintf_r+0xf24>
    2954:	03412283          	lw	x5,52(x2)
    2958:	04812f83          	lw	x31,72(x2)
    295c:	04c12883          	lw	x17,76(x2)
    2960:	00090713          	addi	x14,x18,0
    2964:	000c0913          	addi	x18,x24,0
    2968:	000a0c13          	addi	x24,x20,0
    296c:	00078a13          	addi	x20,x15,0
    2970:	00e60633          	add	x12,x12,x14
    2974:	00158593          	addi	x11,x11,1
    2978:	00ea2223          	sw	x14,4(x20)
    297c:	018a2023          	sw	x24,0(x20)
    2980:	0cc12623          	sw	x12,204(x2)
    2984:	0cb12423          	sw	x11,200(x2)
    2988:	00700713          	addi	x14,x0,7
    298c:	008a0a13          	addi	x20,x20,8
    2990:	a8b75463          	bge	x14,x11,1c18 <_vfprintf_r+0x238>
    2994:	00812503          	lw	x10,8(x2)
    2998:	0c410613          	addi	x12,x2,196
    299c:	00048593          	addi	x11,x9,0
    29a0:	05112623          	sw	x17,76(x2)
    29a4:	05f12423          	sw	x31,72(x2)
    29a8:	02512a23          	sw	x5,52(x2)
    29ac:	351010ef          	jal	x1,44fc <__sprint_r>
    29b0:	ee0518e3          	bne	x10,x0,28a0 <_vfprintf_r+0xec0>
    29b4:	0cc12603          	lw	x12,204(x2)
    29b8:	04c12883          	lw	x17,76(x2)
    29bc:	04812f83          	lw	x31,72(x2)
    29c0:	03412283          	lw	x5,52(x2)
    29c4:	00098a13          	addi	x20,x19,0
    29c8:	a50ff06f          	jal	x0,1c18 <_vfprintf_r+0x238>
    29cc:	00812503          	lw	x10,8(x2)
    29d0:	0c410613          	addi	x12,x2,196
    29d4:	00048593          	addi	x11,x9,0
    29d8:	05112423          	sw	x17,72(x2)
    29dc:	03f12a23          	sw	x31,52(x2)
    29e0:	31d010ef          	jal	x1,44fc <__sprint_r>
    29e4:	ea051ee3          	bne	x10,x0,28a0 <_vfprintf_r+0xec0>
    29e8:	0cc12603          	lw	x12,204(x2)
    29ec:	04812883          	lw	x17,72(x2)
    29f0:	03412f83          	lw	x31,52(x2)
    29f4:	00098a13          	addi	x20,x19,0
    29f8:	a8cff06f          	jal	x0,1c84 <_vfprintf_r+0x2a4>
    29fc:	01000713          	addi	x14,x0,16
    2a00:	0c812783          	lw	x15,200(x2)
    2a04:	0000fc17          	auipc	x24,0xf
    2a08:	510c0c13          	addi	x24,x24,1296 # 11f14 <blanks.1>
    2a0c:	07275263          	bge	x14,x18,2a70 <_vfprintf_r+0x1090>
    2a10:	00812d03          	lw	x26,8(x2)
    2a14:	01000b13          	addi	x22,x0,16
    2a18:	00700b93          	addi	x23,x0,7
    2a1c:	00c0006f          	jal	x0,2a28 <_vfprintf_r+0x1048>
    2a20:	ff090913          	addi	x18,x18,-16
    2a24:	052b5663          	bge	x22,x18,2a70 <_vfprintf_r+0x1090>
    2a28:	01060613          	addi	x12,x12,16
    2a2c:	00178793          	addi	x15,x15,1
    2a30:	018a2023          	sw	x24,0(x20)
    2a34:	016a2223          	sw	x22,4(x20)
    2a38:	0cc12623          	sw	x12,204(x2)
    2a3c:	0cf12423          	sw	x15,200(x2)
    2a40:	008a0a13          	addi	x20,x20,8
    2a44:	fcfbdee3          	bge	x23,x15,2a20 <_vfprintf_r+0x1040>
    2a48:	0c410613          	addi	x12,x2,196
    2a4c:	00048593          	addi	x11,x9,0
    2a50:	000d0513          	addi	x10,x26,0
    2a54:	2a9010ef          	jal	x1,44fc <__sprint_r>
    2a58:	e40514e3          	bne	x10,x0,28a0 <_vfprintf_r+0xec0>
    2a5c:	ff090913          	addi	x18,x18,-16
    2a60:	0cc12603          	lw	x12,204(x2)
    2a64:	0c812783          	lw	x15,200(x2)
    2a68:	00098a13          	addi	x20,x19,0
    2a6c:	fb2b4ee3          	blt	x22,x18,2a28 <_vfprintf_r+0x1048>
    2a70:	01260633          	add	x12,x12,x18
    2a74:	00178793          	addi	x15,x15,1
    2a78:	018a2023          	sw	x24,0(x20)
    2a7c:	012a2223          	sw	x18,4(x20)
    2a80:	0cc12623          	sw	x12,204(x2)
    2a84:	0cf12423          	sw	x15,200(x2)
    2a88:	00700713          	addi	x14,x0,7
    2a8c:	a4f75463          	bge	x14,x15,1cd4 <_vfprintf_r+0x2f4>
    2a90:	00812503          	lw	x10,8(x2)
    2a94:	0c410613          	addi	x12,x2,196
    2a98:	00048593          	addi	x11,x9,0
    2a9c:	261010ef          	jal	x1,44fc <__sprint_r>
    2aa0:	e00510e3          	bne	x10,x0,28a0 <_vfprintf_r+0xec0>
    2aa4:	0cc12603          	lw	x12,204(x2)
    2aa8:	a2cff06f          	jal	x0,1cd4 <_vfprintf_r+0x2f4>
    2aac:	0ac12583          	lw	x11,172(x2)
    2ab0:	02b058e3          	bge	x0,x11,32e0 <_vfprintf_r+0x1900>
    2ab4:	01812783          	lw	x15,24(x2)
    2ab8:	01c12703          	lw	x14,28(x2)
    2abc:	00078b13          	addi	x22,x15,0
    2ac0:	2ef74663          	blt	x14,x15,2dac <_vfprintf_r+0x13cc>
    2ac4:	03605663          	bge	x0,x22,2af0 <_vfprintf_r+0x1110>
    2ac8:	0c812703          	lw	x14,200(x2)
    2acc:	01660633          	add	x12,x12,x22
    2ad0:	01aa2023          	sw	x26,0(x20)
    2ad4:	00170713          	addi	x14,x14,1
    2ad8:	016a2223          	sw	x22,4(x20)
    2adc:	0cc12623          	sw	x12,204(x2)
    2ae0:	0ce12423          	sw	x14,200(x2)
    2ae4:	00700593          	addi	x11,x0,7
    2ae8:	008a0a13          	addi	x20,x20,8
    2aec:	58e5cce3          	blt	x11,x14,3884 <_vfprintf_r+0x1ea4>
    2af0:	fffb4713          	xori	x14,x22,-1
    2af4:	01812783          	lw	x15,24(x2)
    2af8:	41f75713          	srai	x14,x14,0x1f
    2afc:	00eb7b33          	and	x22,x22,x14
    2b00:	41678b33          	sub	x22,x15,x22
    2b04:	39604a63          	blt	x0,x22,2e98 <_vfprintf_r+0x14b8>
    2b08:	01812783          	lw	x15,24(x2)
    2b0c:	400bf713          	andi	x14,x23,1024
    2b10:	00fd0c33          	add	x24,x26,x15
    2b14:	26071ce3          	bne	x14,x0,358c <_vfprintf_r+0x1bac>
    2b18:	0ac12583          	lw	x11,172(x2)
    2b1c:	01c12783          	lw	x15,28(x2)
    2b20:	3ef5c663          	blt	x11,x15,2f0c <_vfprintf_r+0x152c>
    2b24:	001bf713          	andi	x14,x23,1
    2b28:	3e071263          	bne	x14,x0,2f0c <_vfprintf_r+0x152c>
    2b2c:	01c12703          	lw	x14,28(x2)
    2b30:	00ed07b3          	add	x15,x26,x14
    2b34:	40b705b3          	sub	x11,x14,x11
    2b38:	41878b33          	sub	x22,x15,x24
    2b3c:	0165d463          	bge	x11,x22,2b44 <_vfprintf_r+0x1164>
    2b40:	00058b13          	addi	x22,x11,0
    2b44:	03605863          	bge	x0,x22,2b74 <_vfprintf_r+0x1194>
    2b48:	0c812703          	lw	x14,200(x2)
    2b4c:	01660633          	add	x12,x12,x22
    2b50:	018a2023          	sw	x24,0(x20)
    2b54:	00170713          	addi	x14,x14,1
    2b58:	016a2223          	sw	x22,4(x20)
    2b5c:	0cc12623          	sw	x12,204(x2)
    2b60:	0ce12423          	sw	x14,200(x2)
    2b64:	00700793          	addi	x15,x0,7
    2b68:	008a0a13          	addi	x20,x20,8
    2b6c:	00e7d463          	bge	x15,x14,2b74 <_vfprintf_r+0x1194>
    2b70:	3b40106f          	jal	x0,3f24 <_vfprintf_r+0x2544>
    2b74:	fffb4713          	xori	x14,x22,-1
    2b78:	41f75713          	srai	x14,x14,0x1f
    2b7c:	00eb77b3          	and	x15,x22,x14
    2b80:	40f58933          	sub	x18,x11,x15
    2b84:	95205063          	bge	x0,x18,1cc4 <_vfprintf_r+0x2e4>
    2b88:	0000f817          	auipc	x16,0xf
    2b8c:	39c80813          	addi	x16,x16,924 # 11f24 <zeroes.0>
    2b90:	01000713          	addi	x14,x0,16
    2b94:	0c812783          	lw	x15,200(x2)
    2b98:	01000b13          	addi	x22,x0,16
    2b9c:	00700c13          	addi	x24,x0,7
    2ba0:	00080d13          	addi	x26,x16,0
    2ba4:	01274863          	blt	x14,x18,2bb4 <_vfprintf_r+0x11d4>
    2ba8:	7e80006f          	jal	x0,3390 <_vfprintf_r+0x19b0>
    2bac:	ff090913          	addi	x18,x18,-16
    2bb0:	7d2b5e63          	bge	x22,x18,338c <_vfprintf_r+0x19ac>
    2bb4:	01060613          	addi	x12,x12,16
    2bb8:	00178793          	addi	x15,x15,1
    2bbc:	01aa2023          	sw	x26,0(x20)
    2bc0:	016a2223          	sw	x22,4(x20)
    2bc4:	0cc12623          	sw	x12,204(x2)
    2bc8:	0cf12423          	sw	x15,200(x2)
    2bcc:	008a0a13          	addi	x20,x20,8
    2bd0:	fcfc5ee3          	bge	x24,x15,2bac <_vfprintf_r+0x11cc>
    2bd4:	00812503          	lw	x10,8(x2)
    2bd8:	0c410613          	addi	x12,x2,196
    2bdc:	00048593          	addi	x11,x9,0
    2be0:	11d010ef          	jal	x1,44fc <__sprint_r>
    2be4:	ca051ee3          	bne	x10,x0,28a0 <_vfprintf_r+0xec0>
    2be8:	0cc12603          	lw	x12,204(x2)
    2bec:	0c812783          	lw	x15,200(x2)
    2bf0:	00098a13          	addi	x20,x19,0
    2bf4:	fb9ff06f          	jal	x0,2bac <_vfprintf_r+0x11cc>
    2bf8:	001bf593          	andi	x11,x23,1
    2bfc:	c6059063          	bne	x11,x0,205c <_vfprintf_r+0x67c>
    2c00:	00ea2223          	sw	x14,4(x20)
    2c04:	0d812623          	sw	x24,204(x2)
    2c08:	0d212423          	sw	x18,200(x2)
    2c0c:	00700793          	addi	x15,x0,7
    2c10:	d127d463          	bge	x15,x18,2118 <_vfprintf_r+0x738>
    2c14:	00812503          	lw	x10,8(x2)
    2c18:	0c410613          	addi	x12,x2,196
    2c1c:	00048593          	addi	x11,x9,0
    2c20:	0dd010ef          	jal	x1,44fc <__sprint_r>
    2c24:	c6051ee3          	bne	x10,x0,28a0 <_vfprintf_r+0xec0>
    2c28:	0cc12c03          	lw	x24,204(x2)
    2c2c:	0c812903          	lw	x18,200(x2)
    2c30:	00098b13          	addi	x22,x19,0
    2c34:	ce4ff06f          	jal	x0,2118 <_vfprintf_r+0x738>
    2c38:	01c12703          	lw	x14,28(x2)
    2c3c:	00100793          	addi	x15,x0,1
    2c40:	cce7dc63          	bge	x15,x14,2118 <_vfprintf_r+0x738>
    2c44:	01100793          	addi	x15,x0,17
    2c48:	0000f817          	auipc	x16,0xf
    2c4c:	2dc80813          	addi	x16,x16,732 # 11f24 <zeroes.0>
    2c50:	00e7d4e3          	bge	x15,x14,3458 <_vfprintf_r+0x1a78>
    2c54:	00048713          	addi	x14,x9,0
    2c58:	01512c23          	sw	x21,24(x2)
    2c5c:	000a0493          	addi	x9,x20,0
    2c60:	01000793          	addi	x15,x0,16
    2c64:	00700d13          	addi	x26,x0,7
    2c68:	00080a93          	addi	x21,x16,0
    2c6c:	00070a13          	addi	x20,x14,0
    2c70:	00c0006f          	jal	x0,2c7c <_vfprintf_r+0x129c>
    2c74:	ff048493          	addi	x9,x9,-16
    2c78:	7c97d663          	bge	x15,x9,3444 <_vfprintf_r+0x1a64>
    2c7c:	010c0c13          	addi	x24,x24,16
    2c80:	00190913          	addi	x18,x18,1
    2c84:	015b2023          	sw	x21,0(x22)
    2c88:	00fb2223          	sw	x15,4(x22)
    2c8c:	0d812623          	sw	x24,204(x2)
    2c90:	0d212423          	sw	x18,200(x2)
    2c94:	008b0b13          	addi	x22,x22,8
    2c98:	fd2d5ee3          	bge	x26,x18,2c74 <_vfprintf_r+0x1294>
    2c9c:	00812503          	lw	x10,8(x2)
    2ca0:	0c410613          	addi	x12,x2,196
    2ca4:	000a0593          	addi	x11,x20,0
    2ca8:	055010ef          	jal	x1,44fc <__sprint_r>
    2cac:	00050463          	beq	x10,x0,2cb4 <_vfprintf_r+0x12d4>
    2cb0:	35c0106f          	jal	x0,400c <_vfprintf_r+0x262c>
    2cb4:	0cc12c03          	lw	x24,204(x2)
    2cb8:	0c812903          	lw	x18,200(x2)
    2cbc:	00098b13          	addi	x22,x19,0
    2cc0:	01000793          	addi	x15,x0,16
    2cc4:	fb1ff06f          	jal	x0,2c74 <_vfprintf_r+0x1294>
    2cc8:	01412703          	lw	x14,20(x2)
    2ccc:	010ff793          	andi	x15,x31,16
    2cd0:	00072903          	lw	x18,0(x14)
    2cd4:	00470c13          	addi	x24,x14,4
    2cd8:	04079c63          	bne	x15,x0,2d30 <_vfprintf_r+0x1350>
    2cdc:	040ff793          	andi	x15,x31,64
    2ce0:	04078263          	beq	x15,x0,2d24 <_vfprintf_r+0x1344>
    2ce4:	01091913          	slli	x18,x18,0x10
    2ce8:	01095913          	srli	x18,x18,0x10
    2cec:	00000d93          	addi	x27,x0,0
    2cf0:	01812a23          	sw	x24,20(x2)
    2cf4:	00100793          	addi	x15,x0,1
    2cf8:	988ff06f          	jal	x0,1e80 <_vfprintf_r+0x4a0>
    2cfc:	00000913          	addi	x18,x0,0
    2d00:	19010d13          	addi	x26,x2,400
    2d04:	920ff06f          	jal	x0,1e24 <_vfprintf_r+0x444>
    2d08:	001bf793          	andi	x15,x23,1
    2d0c:	00079463          	bne	x15,x0,2d14 <_vfprintf_r+0x1334>
    2d10:	fb5fe06f          	jal	x0,1cc4 <_vfprintf_r+0x2e4>
    2d14:	8edff06f          	jal	x0,2600 <_vfprintf_r+0xc20>
    2d18:	000ac883          	lbu	x17,0(x21)
    2d1c:	00f12a23          	sw	x15,20(x2)
    2d20:	e51fe06f          	jal	x0,1b70 <_vfprintf_r+0x190>
    2d24:	200ff793          	andi	x15,x31,512
    2d28:	00078463          	beq	x15,x0,2d30 <_vfprintf_r+0x1350>
    2d2c:	0ff97913          	andi	x18,x18,255
    2d30:	00000d93          	addi	x27,x0,0
    2d34:	01812a23          	sw	x24,20(x2)
    2d38:	00100793          	addi	x15,x0,1
    2d3c:	944ff06f          	jal	x0,1e80 <_vfprintf_r+0x4a0>
    2d40:	200bf793          	andi	x15,x23,512
    2d44:	36079ee3          	bne	x15,x0,38c0 <_vfprintf_r+0x1ee0>
    2d48:	41f95d93          	srai	x27,x18,0x1f
    2d4c:	000d8793          	addi	x15,x27,0
    2d50:	01812a23          	sw	x24,20(x2)
    2d54:	8a8ff06f          	jal	x0,1dfc <_vfprintf_r+0x41c>
    2d58:	200bf793          	andi	x15,x23,512
    2d5c:	34079ae3          	bne	x15,x0,38b0 <_vfprintf_r+0x1ed0>
    2d60:	00000d93          	addi	x27,x0,0
    2d64:	01812a23          	sw	x24,20(x2)
    2d68:	910ff06f          	jal	x0,1e78 <_vfprintf_r+0x498>
    2d6c:	00c12603          	lw	x12,12(x2)
    2d70:	0006a783          	lw	x15,0(x13)
    2d74:	00e12a23          	sw	x14,20(x2)
    2d78:	41f65693          	srai	x13,x12,0x1f
    2d7c:	00c7a023          	sw	x12,0(x15)
    2d80:	00d7a223          	sw	x13,4(x15)
    2d84:	e7cff06f          	jal	x0,2400 <_vfprintf_r+0xa20>
    2d88:	01412783          	lw	x15,20(x2)
    2d8c:	0007a703          	lw	x14,0(x15)
    2d90:	00478793          	addi	x15,x15,4
    2d94:	00f12a23          	sw	x15,20(x2)
    2d98:	00072583          	lw	x11,0(x14)
    2d9c:	00472603          	lw	x12,4(x14)
    2da0:	00872683          	lw	x13,8(x14)
    2da4:	00c72703          	lw	x14,12(x14)
    2da8:	984ff06f          	jal	x0,1f2c <_vfprintf_r+0x54c>
    2dac:	00070b13          	addi	x22,x14,0
    2db0:	d1604ce3          	blt	x0,x22,2ac8 <_vfprintf_r+0x10e8>
    2db4:	d3dff06f          	jal	x0,2af0 <_vfprintf_r+0x1110>
    2db8:	fff00b13          	addi	x22,x0,-1
    2dbc:	00068a93          	addi	x21,x13,0
    2dc0:	db5fe06f          	jal	x0,1b74 <_vfprintf_r+0x194>
    2dc4:	000b8f93          	addi	x31,x23,0
    2dc8:	d78ff06f          	jal	x0,2340 <_vfprintf_r+0x960>
    2dcc:	0000f797          	auipc	x15,0xf
    2dd0:	cfc78793          	addi	x15,x15,-772 # 11ac8 <__clzsi2+0x34c>
    2dd4:	02f12823          	sw	x15,48(x2)
    2dd8:	020bf793          	andi	x15,x23,32
    2ddc:	36078663          	beq	x15,x0,3148 <_vfprintf_r+0x1768>
    2de0:	01412783          	lw	x15,20(x2)
    2de4:	00778c13          	addi	x24,x15,7
    2de8:	ff8c7c13          	andi	x24,x24,-8
    2dec:	000c2903          	lw	x18,0(x24)
    2df0:	004c2d83          	lw	x27,4(x24)
    2df4:	008c0793          	addi	x15,x24,8
    2df8:	00f12a23          	sw	x15,20(x2)
    2dfc:	001bf793          	andi	x15,x23,1
    2e00:	00078e63          	beq	x15,x0,2e1c <_vfprintf_r+0x143c>
    2e04:	01b967b3          	or	x15,x18,x27
    2e08:	00078a63          	beq	x15,x0,2e1c <_vfprintf_r+0x143c>
    2e0c:	03000793          	addi	x15,x0,48
    2e10:	0af10423          	sb	x15,168(x2)
    2e14:	0b1104a3          	sb	x17,169(x2)
    2e18:	002beb93          	ori	x23,x23,2
    2e1c:	bffbff93          	andi	x31,x23,-1025
    2e20:	00200793          	addi	x15,x0,2
    2e24:	85cff06f          	jal	x0,1e80 <_vfprintf_r+0x4a0>
    2e28:	0000f797          	auipc	x15,0xf
    2e2c:	c8c78793          	addi	x15,x15,-884 # 11ab4 <__clzsi2+0x338>
    2e30:	02f12823          	sw	x15,48(x2)
    2e34:	fa5ff06f          	jal	x0,2dd8 <_vfprintf_r+0x13f8>
    2e38:	001ac883          	lbu	x17,1(x21)
    2e3c:	020beb93          	ori	x23,x23,32
    2e40:	001a8a93          	addi	x21,x21,1
    2e44:	d2dfe06f          	jal	x0,1b70 <_vfprintf_r+0x190>
    2e48:	00812503          	lw	x10,8(x2)
    2e4c:	0c410613          	addi	x12,x2,196
    2e50:	00048593          	addi	x11,x9,0
    2e54:	6a8010ef          	jal	x1,44fc <__sprint_r>
    2e58:	a40514e3          	bne	x10,x0,28a0 <_vfprintf_r+0xec0>
    2e5c:	0cc12603          	lw	x12,204(x2)
    2e60:	00098a13          	addi	x20,x19,0
    2e64:	fccff06f          	jal	x0,2630 <_vfprintf_r+0xc50>
    2e68:	001ac883          	lbu	x17,1(x21)
    2e6c:	200beb93          	ori	x23,x23,512
    2e70:	001a8a93          	addi	x21,x21,1
    2e74:	cfdfe06f          	jal	x0,1b70 <_vfprintf_r+0x190>
    2e78:	00600793          	addi	x15,x0,6
    2e7c:	000b0913          	addi	x18,x22,0
    2e80:	2367e4e3          	bltu	x15,x22,38a8 <_vfprintf_r+0x1ec8>
    2e84:	00090d93          	addi	x27,x18,0
    2e88:	01812a23          	sw	x24,20(x2)
    2e8c:	0000fd17          	auipc	x26,0xf
    2e90:	c50d0d13          	addi	x26,x26,-944 # 11adc <__clzsi2+0x360>
    2e94:	d51fe06f          	jal	x0,1be4 <_vfprintf_r+0x204>
    2e98:	01000593          	addi	x11,x0,16
    2e9c:	0c812703          	lw	x14,200(x2)
    2ea0:	0000f817          	auipc	x16,0xf
    2ea4:	08480813          	addi	x16,x16,132 # 11f24 <zeroes.0>
    2ea8:	6b65d063          	bge	x11,x22,3548 <_vfprintf_r+0x1b68>
    2eac:	000a0793          	addi	x15,x20,0
    2eb0:	01000c13          	addi	x24,x0,16
    2eb4:	00700913          	addi	x18,x0,7
    2eb8:	00080a13          	addi	x20,x16,0
    2ebc:	00c0006f          	jal	x0,2ec8 <_vfprintf_r+0x14e8>
    2ec0:	ff0b0b13          	addi	x22,x22,-16
    2ec4:	676c5e63          	bge	x24,x22,3540 <_vfprintf_r+0x1b60>
    2ec8:	01060613          	addi	x12,x12,16
    2ecc:	00170713          	addi	x14,x14,1
    2ed0:	0147a023          	sw	x20,0(x15)
    2ed4:	0187a223          	sw	x24,4(x15)
    2ed8:	0cc12623          	sw	x12,204(x2)
    2edc:	0ce12423          	sw	x14,200(x2)
    2ee0:	00878793          	addi	x15,x15,8
    2ee4:	fce95ee3          	bge	x18,x14,2ec0 <_vfprintf_r+0x14e0>
    2ee8:	00812503          	lw	x10,8(x2)
    2eec:	0c410613          	addi	x12,x2,196
    2ef0:	00048593          	addi	x11,x9,0
    2ef4:	608010ef          	jal	x1,44fc <__sprint_r>
    2ef8:	9a0514e3          	bne	x10,x0,28a0 <_vfprintf_r+0xec0>
    2efc:	0cc12603          	lw	x12,204(x2)
    2f00:	0c812703          	lw	x14,200(x2)
    2f04:	00098793          	addi	x15,x19,0
    2f08:	fb9ff06f          	jal	x0,2ec0 <_vfprintf_r+0x14e0>
    2f0c:	02c12703          	lw	x14,44(x2)
    2f10:	02812783          	lw	x15,40(x2)
    2f14:	00700513          	addi	x10,x0,7
    2f18:	00ea2023          	sw	x14,0(x20)
    2f1c:	0c812703          	lw	x14,200(x2)
    2f20:	00f60633          	add	x12,x12,x15
    2f24:	00fa2223          	sw	x15,4(x20)
    2f28:	00170713          	addi	x14,x14,1
    2f2c:	0cc12623          	sw	x12,204(x2)
    2f30:	0ce12423          	sw	x14,200(x2)
    2f34:	008a0a13          	addi	x20,x20,8
    2f38:	bee55ae3          	bge	x10,x14,2b2c <_vfprintf_r+0x114c>
    2f3c:	00812503          	lw	x10,8(x2)
    2f40:	0c410613          	addi	x12,x2,196
    2f44:	00048593          	addi	x11,x9,0
    2f48:	5b4010ef          	jal	x1,44fc <__sprint_r>
    2f4c:	94051ae3          	bne	x10,x0,28a0 <_vfprintf_r+0xec0>
    2f50:	0ac12583          	lw	x11,172(x2)
    2f54:	0cc12603          	lw	x12,204(x2)
    2f58:	00098a13          	addi	x20,x19,0
    2f5c:	bd1ff06f          	jal	x0,2b2c <_vfprintf_r+0x114c>
    2f60:	07800793          	addi	x15,x0,120
    2f64:	03000713          	addi	x14,x0,48
    2f68:	0ae10423          	sb	x14,168(x2)
    2f6c:	0af104a3          	sb	x15,169(x2)
    2f70:	06300713          	addi	x14,x0,99
    2f74:	00012823          	sw	x0,16(x2)
    2f78:	002beb93          	ori	x23,x23,2
    2f7c:	12c10d13          	addi	x26,x2,300
    2f80:	01674463          	blt	x14,x22,2f88 <_vfprintf_r+0x15a8>
    2f84:	824ff06f          	jal	x0,1fa8 <_vfprintf_r+0x5c8>
    2f88:	00812503          	lw	x10,8(x2)
    2f8c:	001b0593          	addi	x11,x22,1
    2f90:	01112823          	sw	x17,16(x2)
    2f94:	245020ef          	jal	x1,59d8 <_malloc_r>
    2f98:	01012883          	lw	x17,16(x2)
    2f9c:	00050d13          	addi	x26,x10,0
    2fa0:	00051463          	bne	x10,x0,2fa8 <_vfprintf_r+0x15c8>
    2fa4:	3440106f          	jal	x0,42e8 <_vfprintf_r+0x2908>
    2fa8:	00a12823          	sw	x10,16(x2)
    2fac:	ffdfe06f          	jal	x0,1fa8 <_vfprintf_r+0x5c8>
    2fb0:	00812503          	lw	x10,8(x2)
    2fb4:	09010913          	addi	x18,x2,144
    2fb8:	0ac10713          	addi	x14,x2,172
    2fbc:	0bc10813          	addi	x16,x2,188
    2fc0:	0b010793          	addi	x15,x2,176
    2fc4:	000b0693          	addi	x13,x22,0
    2fc8:	00200613          	addi	x12,x0,2
    2fcc:	00090593          	addi	x11,x18,0
    2fd0:	03112223          	sw	x17,36(x2)
    2fd4:	09f12823          	sw	x31,144(x2)
    2fd8:	03f12023          	sw	x31,32(x2)
    2fdc:	09e12a23          	sw	x30,148(x2)
    2fe0:	01e12e23          	sw	x30,28(x2)
    2fe4:	09d12c23          	sw	x29,152(x2)
    2fe8:	01d12c23          	sw	x29,24(x2)
    2fec:	09812e23          	sw	x24,156(x2)
    2ff0:	1f5040ef          	jal	x1,79e4 <_ldtoa_r>
    2ff4:	001bf713          	andi	x14,x23,1
    2ff8:	01812e83          	lw	x29,24(x2)
    2ffc:	01c12f03          	lw	x30,28(x2)
    3000:	02012f83          	lw	x31,32(x2)
    3004:	02412883          	lw	x17,36(x2)
    3008:	00050d13          	addi	x26,x10,0
    300c:	12071ee3          	bne	x14,x0,3948 <_vfprintf_r+0x1f68>
    3010:	0ac12783          	lw	x15,172(x2)
    3014:	00f12c23          	sw	x15,24(x2)
    3018:	0bc12783          	lw	x15,188(x2)
    301c:	40a787b3          	sub	x15,x15,x10
    3020:	00f12e23          	sw	x15,28(x2)
    3024:	01812783          	lw	x15,24(x2)
    3028:	ffd00713          	addi	x14,x0,-3
    302c:	00e7c463          	blt	x15,x14,3034 <_vfprintf_r+0x1654>
    3030:	62fb5ce3          	bge	x22,x15,3e68 <_vfprintf_r+0x2488>
    3034:	01812783          	lw	x15,24(x2)
    3038:	ffe88893          	addi	x17,x17,-2
    303c:	fff78713          	addi	x14,x15,-1
    3040:	0ae12623          	sw	x14,172(x2)
    3044:	0ff8f693          	andi	x13,x17,255
    3048:	00000613          	addi	x12,x0,0
    304c:	0ad10a23          	sb	x13,180(x2)
    3050:	02b00693          	addi	x13,x0,43
    3054:	00075a63          	bge	x14,x0,3068 <_vfprintf_r+0x1688>
    3058:	01812783          	lw	x15,24(x2)
    305c:	00100713          	addi	x14,x0,1
    3060:	02d00693          	addi	x13,x0,45
    3064:	40f70733          	sub	x14,x14,x15
    3068:	0ad10aa3          	sb	x13,181(x2)
    306c:	00900693          	addi	x13,x0,9
    3070:	00e6c463          	blt	x13,x14,3078 <_vfprintf_r+0x1698>
    3074:	0ac0106f          	jal	x0,4120 <_vfprintf_r+0x2740>
    3078:	0c310813          	addi	x16,x2,195
    307c:	00080e93          	addi	x29,x16,0
    3080:	00a00613          	addi	x12,x0,10
    3084:	06300f13          	addi	x30,x0,99
    3088:	02c767b3          	rem	x15,x14,x12
    308c:	000e8513          	addi	x10,x29,0
    3090:	00070693          	addi	x13,x14,0
    3094:	fffe8e93          	addi	x29,x29,-1
    3098:	03078793          	addi	x15,x15,48
    309c:	fef50fa3          	sb	x15,-1(x10)
    30a0:	02c74733          	div	x14,x14,x12
    30a4:	fedf42e3          	blt	x30,x13,3088 <_vfprintf_r+0x16a8>
    30a8:	03070713          	addi	x14,x14,48
    30ac:	ffe50693          	addi	x13,x10,-2
    30b0:	feee8fa3          	sb	x14,-1(x29)
    30b4:	0106e463          	bltu	x13,x16,30bc <_vfprintf_r+0x16dc>
    30b8:	2180106f          	jal	x0,42d0 <_vfprintf_r+0x28f0>
    30bc:	0b610613          	addi	x12,x2,182
    30c0:	0006c783          	lbu	x15,0(x13)
    30c4:	00168693          	addi	x13,x13,1
    30c8:	00160613          	addi	x12,x12,1
    30cc:	fef60fa3          	sb	x15,-1(x12)
    30d0:	ff0698e3          	bne	x13,x16,30c0 <_vfprintf_r+0x16e0>
    30d4:	19010793          	addi	x15,x2,400
    30d8:	40a78733          	sub	x14,x15,x10
    30dc:	f3770793          	addi	x15,x14,-201
    30e0:	02f12c23          	sw	x15,56(x2)
    30e4:	01c12783          	lw	x15,28(x2)
    30e8:	03812683          	lw	x13,56(x2)
    30ec:	00100713          	addi	x14,x0,1
    30f0:	00d78933          	add	x18,x15,x13
    30f4:	00f74463          	blt	x14,x15,30fc <_vfprintf_r+0x171c>
    30f8:	0640106f          	jal	x0,415c <_vfprintf_r+0x277c>
    30fc:	02812783          	lw	x15,40(x2)
    3100:	00f90933          	add	x18,x18,x15
    3104:	fff94693          	xori	x13,x18,-1
    3108:	bffbfe13          	andi	x28,x23,-1025
    310c:	41f6d693          	srai	x13,x13,0x1f
    3110:	100e6793          	ori	x15,x28,256
    3114:	04f12423          	sw	x15,72(x2)
    3118:	00d97db3          	and	x27,x18,x13
    311c:	02012223          	sw	x0,36(x2)
    3120:	02012023          	sw	x0,32(x2)
    3124:	00012c23          	sw	x0,24(x2)
    3128:	03412783          	lw	x15,52(x2)
    312c:	520782e3          	beq	x15,x0,3e50 <_vfprintf_r+0x2470>
    3130:	02d00713          	addi	x14,x0,45
    3134:	04812b83          	lw	x23,72(x2)
    3138:	0ae103a3          	sb	x14,167(x2)
    313c:	00000b13          	addi	x22,x0,0
    3140:	001d8d93          	addi	x27,x27,1
    3144:	ab5fe06f          	jal	x0,1bf8 <_vfprintf_r+0x218>
    3148:	01412703          	lw	x14,20(x2)
    314c:	010bf793          	andi	x15,x23,16
    3150:	00072903          	lw	x18,0(x14)
    3154:	00470c13          	addi	x24,x14,4
    3158:	06079863          	bne	x15,x0,31c8 <_vfprintf_r+0x17e8>
    315c:	040bf793          	andi	x15,x23,64
    3160:	06078063          	beq	x15,x0,31c0 <_vfprintf_r+0x17e0>
    3164:	01091913          	slli	x18,x18,0x10
    3168:	01095913          	srli	x18,x18,0x10
    316c:	00000d93          	addi	x27,x0,0
    3170:	01812a23          	sw	x24,20(x2)
    3174:	c89ff06f          	jal	x0,2dfc <_vfprintf_r+0x141c>
    3178:	00812503          	lw	x10,8(x2)
    317c:	0c410613          	addi	x12,x2,196
    3180:	00048593          	addi	x11,x9,0
    3184:	378010ef          	jal	x1,44fc <__sprint_r>
    3188:	f0051c63          	bne	x10,x0,28a0 <_vfprintf_r+0xec0>
    318c:	0cc12c03          	lw	x24,204(x2)
    3190:	0c812903          	lw	x18,200(x2)
    3194:	00098b13          	addi	x22,x19,0
    3198:	ee1fe06f          	jal	x0,2078 <_vfprintf_r+0x698>
    319c:	00812503          	lw	x10,8(x2)
    31a0:	0c410613          	addi	x12,x2,196
    31a4:	00048593          	addi	x11,x9,0
    31a8:	354010ef          	jal	x1,44fc <__sprint_r>
    31ac:	ee051a63          	bne	x10,x0,28a0 <_vfprintf_r+0xec0>
    31b0:	0cc12c03          	lw	x24,204(x2)
    31b4:	0c812903          	lw	x18,200(x2)
    31b8:	00098b13          	addi	x22,x19,0
    31bc:	eedfe06f          	jal	x0,20a8 <_vfprintf_r+0x6c8>
    31c0:	200bf793          	andi	x15,x23,512
    31c4:	70079a63          	bne	x15,x0,38d8 <_vfprintf_r+0x1ef8>
    31c8:	00000d93          	addi	x27,x0,0
    31cc:	01812a23          	sw	x24,20(x2)
    31d0:	c2dff06f          	jal	x0,2dfc <_vfprintf_r+0x141c>
    31d4:	ccccd837          	lui	x16,0xccccd
    31d8:	ccccdc37          	lui	x24,0xccccd
    31dc:	04012703          	lw	x14,64(x2)
    31e0:	400ffe93          	andi	x29,x31,1024
    31e4:	00000613          	addi	x12,x0,0
    31e8:	19010593          	addi	x11,x2,400
    31ec:	00500e13          	addi	x28,x0,5
    31f0:	ccd80813          	addi	x16,x16,-819 # cccccccd <__heap_end+0xcc8ccccd>
    31f4:	cccc0c13          	addi	x24,x24,-820 # cccccccc <__heap_end+0xcc8ccccc>
    31f8:	0ff00b93          	addi	x23,x0,255
    31fc:	0540006f          	jal	x0,3250 <_vfprintf_r+0x1870>
    3200:	012d37b3          	sltu	x15,x26,x18
    3204:	00fd07b3          	add	x15,x26,x15
    3208:	03c7f7b3          	remu	x15,x15,x28
    320c:	40f907b3          	sub	x15,x18,x15
    3210:	00f935b3          	sltu	x11,x18,x15
    3214:	40bd85b3          	sub	x11,x27,x11
    3218:	03878333          	mul	x6,x15,x24
    321c:	030585b3          	mul	x11,x11,x16
    3220:	0307b533          	mulhu	x10,x15,x16
    3224:	006585b3          	add	x11,x11,x6
    3228:	030787b3          	mul	x15,x15,x16
    322c:	00a585b3          	add	x11,x11,x10
    3230:	01f59513          	slli	x10,x11,0x1f
    3234:	0015d593          	srli	x11,x11,0x1
    3238:	0017d793          	srli	x15,x15,0x1
    323c:	00f567b3          	or	x15,x10,x15
    3240:	600d8863          	beq	x27,x0,3850 <_vfprintf_r+0x1e70>
    3244:	00058d93          	addi	x27,x11,0
    3248:	00078913          	addi	x18,x15,0
    324c:	00068593          	addi	x11,x13,0
    3250:	01b90d33          	add	x26,x18,x27
    3254:	012d37b3          	sltu	x15,x26,x18
    3258:	00fd07b3          	add	x15,x26,x15
    325c:	03c7f7b3          	remu	x15,x15,x28
    3260:	fff58693          	addi	x13,x11,-1
    3264:	00160613          	addi	x12,x12,1
    3268:	40f907b3          	sub	x15,x18,x15
    326c:	00f93533          	sltu	x10,x18,x15
    3270:	40ad8533          	sub	x10,x27,x10
    3274:	0307b333          	mulhu	x6,x15,x16
    3278:	03050533          	mul	x10,x10,x16
    327c:	030787b3          	mul	x15,x15,x16
    3280:	00650533          	add	x10,x10,x6
    3284:	01f51513          	slli	x10,x10,0x1f
    3288:	0017d793          	srli	x15,x15,0x1
    328c:	00f567b3          	or	x15,x10,x15
    3290:	00279513          	slli	x10,x15,0x2
    3294:	00f507b3          	add	x15,x10,x15
    3298:	00179793          	slli	x15,x15,0x1
    329c:	40f907b3          	sub	x15,x18,x15
    32a0:	03078793          	addi	x15,x15,48
    32a4:	fef58fa3          	sb	x15,-1(x11)
    32a8:	f40e8ce3          	beq	x29,x0,3200 <_vfprintf_r+0x1820>
    32ac:	00074783          	lbu	x15,0(x14)
    32b0:	f4f618e3          	bne	x12,x15,3200 <_vfprintf_r+0x1820>
    32b4:	f57606e3          	beq	x12,x23,3200 <_vfprintf_r+0x1820>
    32b8:	4e0d9263          	bne	x27,x0,379c <_vfprintf_r+0x1dbc>
    32bc:	00900793          	addi	x15,x0,9
    32c0:	4d27ee63          	bltu	x15,x18,379c <_vfprintf_r+0x1dbc>
    32c4:	00068d13          	addi	x26,x13,0
    32c8:	19010793          	addi	x15,x2,400
    32cc:	00c12e23          	sw	x12,28(x2)
    32d0:	04e12023          	sw	x14,64(x2)
    32d4:	41a78933          	sub	x18,x15,x26
    32d8:	000f8b93          	addi	x23,x31,0
    32dc:	b49fe06f          	jal	x0,1e24 <_vfprintf_r+0x444>
    32e0:	0c812703          	lw	x14,200(x2)
    32e4:	0000f517          	auipc	x10,0xf
    32e8:	80050513          	addi	x10,x10,-2048 # 11ae4 <__clzsi2+0x368>
    32ec:	00aa2023          	sw	x10,0(x20)
    32f0:	00160613          	addi	x12,x12,1
    32f4:	00100513          	addi	x10,x0,1
    32f8:	00170713          	addi	x14,x14,1
    32fc:	00aa2223          	sw	x10,4(x20)
    3300:	0cc12623          	sw	x12,204(x2)
    3304:	0ce12423          	sw	x14,200(x2)
    3308:	00700513          	addi	x10,x0,7
    330c:	008a0a13          	addi	x20,x20,8
    3310:	54e54663          	blt	x10,x14,385c <_vfprintf_r+0x1e7c>
    3314:	14059a63          	bne	x11,x0,3468 <_vfprintf_r+0x1a88>
    3318:	01c12783          	lw	x15,28(x2)
    331c:	001bf713          	andi	x14,x23,1
    3320:	00f76733          	or	x14,x14,x15
    3324:	00071463          	bne	x14,x0,332c <_vfprintf_r+0x194c>
    3328:	99dfe06f          	jal	x0,1cc4 <_vfprintf_r+0x2e4>
    332c:	02c12703          	lw	x14,44(x2)
    3330:	02812783          	lw	x15,40(x2)
    3334:	00700593          	addi	x11,x0,7
    3338:	00ea2023          	sw	x14,0(x20)
    333c:	0c812703          	lw	x14,200(x2)
    3340:	00c78633          	add	x12,x15,x12
    3344:	00fa2223          	sw	x15,4(x20)
    3348:	00170713          	addi	x14,x14,1
    334c:	0cc12623          	sw	x12,204(x2)
    3350:	0ce12423          	sw	x14,200(x2)
    3354:	5ce5c463          	blt	x11,x14,391c <_vfprintf_r+0x1f3c>
    3358:	008a0a13          	addi	x20,x20,8
    335c:	1400006f          	jal	x0,349c <_vfprintf_r+0x1abc>
    3360:	00812503          	lw	x10,8(x2)
    3364:	a45fd0ef          	jal	x1,da8 <__sinit>
    3368:	ed8fe06f          	jal	x0,1a40 <_vfprintf_r+0x60>
    336c:	00812503          	lw	x10,8(x2)
    3370:	0c410613          	addi	x12,x2,196
    3374:	00048593          	addi	x11,x9,0
    3378:	184010ef          	jal	x1,44fc <__sprint_r>
    337c:	d2051263          	bne	x10,x0,28a0 <_vfprintf_r+0xec0>
    3380:	0cc12603          	lw	x12,204(x2)
    3384:	00098a13          	addi	x20,x19,0
    3388:	a6cff06f          	jal	x0,25f4 <_vfprintf_r+0xc14>
    338c:	000d0813          	addi	x16,x26,0
    3390:	01260633          	add	x12,x12,x18
    3394:	00178793          	addi	x15,x15,1
    3398:	010a2023          	sw	x16,0(x20)
    339c:	911fe06f          	jal	x0,1cac <_vfprintf_r+0x2cc>
    33a0:	0d012783          	lw	x15,208(x2)
    33a4:	08010593          	addi	x11,x2,128
    33a8:	09010513          	addi	x10,x2,144
    33ac:	08f12823          	sw	x15,144(x2)
    33b0:	0d412783          	lw	x15,212(x2)
    33b4:	08012023          	sw	x0,128(x2)
    33b8:	08012223          	sw	x0,132(x2)
    33bc:	08f12a23          	sw	x15,148(x2)
    33c0:	0d812783          	lw	x15,216(x2)
    33c4:	08012423          	sw	x0,136(x2)
    33c8:	08012623          	sw	x0,140(x2)
    33cc:	08f12c23          	sw	x15,152(x2)
    33d0:	0dc12783          	lw	x15,220(x2)
    33d4:	08f12e23          	sw	x15,156(x2)
    33d8:	3dc0b0ef          	jal	x1,e7b4 <__letf2>
    33dc:	01012883          	lw	x17,16(x2)
    33e0:	300546e3          	blt	x10,x0,3eec <_vfprintf_r+0x250c>
    33e4:	0a714703          	lbu	x14,167(x2)
    33e8:	04700693          	addi	x13,x0,71
    33ec:	0000ed17          	auipc	x26,0xe
    33f0:	6bcd0d13          	addi	x26,x26,1724 # 11aa8 <__clzsi2+0x32c>
    33f4:	0116c663          	blt	x13,x17,3400 <_vfprintf_r+0x1a20>
    33f8:	0000ed17          	auipc	x26,0xe
    33fc:	6acd0d13          	addi	x26,x26,1708 # 11aa4 <__clzsi2+0x328>
    3400:	00012823          	sw	x0,16(x2)
    3404:	02012223          	sw	x0,36(x2)
    3408:	02012023          	sw	x0,32(x2)
    340c:	00012c23          	sw	x0,24(x2)
    3410:	f7fbfb93          	andi	x23,x23,-129
    3414:	00300d93          	addi	x27,x0,3
    3418:	00300913          	addi	x18,x0,3
    341c:	00000b13          	addi	x22,x0,0
    3420:	00070463          	beq	x14,x0,3428 <_vfprintf_r+0x1a48>
    3424:	a25fe06f          	jal	x0,1e48 <_vfprintf_r+0x468>
    3428:	fd0fe06f          	jal	x0,1bf8 <_vfprintf_r+0x218>
    342c:	01412783          	lw	x15,20(x2)
    3430:	00c12683          	lw	x13,12(x2)
    3434:	0007a783          	lw	x15,0(x15)
    3438:	00d7a023          	sw	x13,0(x15)
    343c:	00e12a23          	sw	x14,20(x2)
    3440:	fc1fe06f          	jal	x0,2400 <_vfprintf_r+0xa20>
    3444:	000a8813          	addi	x16,x21,0
    3448:	01812a83          	lw	x21,24(x2)
    344c:	000a0793          	addi	x15,x20,0
    3450:	00048a13          	addi	x20,x9,0
    3454:	00078493          	addi	x9,x15,0
    3458:	014c0c33          	add	x24,x24,x20
    345c:	00190913          	addi	x18,x18,1
    3460:	010b2023          	sw	x16,0(x22)
    3464:	c9dfe06f          	jal	x0,2100 <_vfprintf_r+0x720>
    3468:	02c12703          	lw	x14,44(x2)
    346c:	02812783          	lw	x15,40(x2)
    3470:	00700513          	addi	x10,x0,7
    3474:	00ea2023          	sw	x14,0(x20)
    3478:	0c812703          	lw	x14,200(x2)
    347c:	00c78633          	add	x12,x15,x12
    3480:	00fa2223          	sw	x15,4(x20)
    3484:	00170713          	addi	x14,x14,1
    3488:	0cc12623          	sw	x12,204(x2)
    348c:	0ce12423          	sw	x14,200(x2)
    3490:	008a0a13          	addi	x20,x20,8
    3494:	48e54463          	blt	x10,x14,391c <_vfprintf_r+0x1f3c>
    3498:	2c05c6e3          	blt	x11,x0,3f64 <_vfprintf_r+0x2584>
    349c:	01c12783          	lw	x15,28(x2)
    34a0:	00170713          	addi	x14,x14,1
    34a4:	01aa2023          	sw	x26,0(x20)
    34a8:	00c78633          	add	x12,x15,x12
    34ac:	00fa2223          	sw	x15,4(x20)
    34b0:	0cc12623          	sw	x12,204(x2)
    34b4:	0ce12423          	sw	x14,200(x2)
    34b8:	00700793          	addi	x15,x0,7
    34bc:	00e7c463          	blt	x15,x14,34c4 <_vfprintf_r+0x1ae4>
    34c0:	801fe06f          	jal	x0,1cc0 <_vfprintf_r+0x2e0>
    34c4:	c81fe06f          	jal	x0,2144 <_vfprintf_r+0x764>
    34c8:	000d0513          	addi	x10,x26,0
    34cc:	03112a23          	sw	x17,52(x2)
    34d0:	18c030ef          	jal	x1,665c <strlen>
    34d4:	0a714703          	lbu	x14,167(x2)
    34d8:	fff54693          	xori	x13,x10,-1
    34dc:	41f6d693          	srai	x13,x13,0x1f
    34e0:	01812a23          	sw	x24,20(x2)
    34e4:	00012823          	sw	x0,16(x2)
    34e8:	02012223          	sw	x0,36(x2)
    34ec:	02012023          	sw	x0,32(x2)
    34f0:	00012c23          	sw	x0,24(x2)
    34f4:	03412883          	lw	x17,52(x2)
    34f8:	00050913          	addi	x18,x10,0
    34fc:	00d57db3          	and	x27,x10,x13
    3500:	00000b13          	addi	x22,x0,0
    3504:	00070463          	beq	x14,x0,350c <_vfprintf_r+0x1b2c>
    3508:	941fe06f          	jal	x0,1e48 <_vfprintf_r+0x468>
    350c:	eecfe06f          	jal	x0,1bf8 <_vfprintf_r+0x218>
    3510:	0dc12783          	lw	x15,220(x2)
    3514:	4007d063          	bge	x15,x0,3914 <_vfprintf_r+0x1f34>
    3518:	02d00793          	addi	x15,x0,45
    351c:	0af103a3          	sb	x15,167(x2)
    3520:	02d00713          	addi	x14,x0,45
    3524:	04700693          	addi	x13,x0,71
    3528:	0000ed17          	auipc	x26,0xe
    352c:	588d0d13          	addi	x26,x26,1416 # 11ab0 <__clzsi2+0x334>
    3530:	ed16c8e3          	blt	x13,x17,3400 <_vfprintf_r+0x1a20>
    3534:	0000ed17          	auipc	x26,0xe
    3538:	578d0d13          	addi	x26,x26,1400 # 11aac <__clzsi2+0x330>
    353c:	ec5ff06f          	jal	x0,3400 <_vfprintf_r+0x1a20>
    3540:	000a0813          	addi	x16,x20,0
    3544:	00078a13          	addi	x20,x15,0
    3548:	01660633          	add	x12,x12,x22
    354c:	00170713          	addi	x14,x14,1
    3550:	010a2023          	sw	x16,0(x20)
    3554:	016a2223          	sw	x22,4(x20)
    3558:	0cc12623          	sw	x12,204(x2)
    355c:	0ce12423          	sw	x14,200(x2)
    3560:	00700593          	addi	x11,x0,7
    3564:	008a0a13          	addi	x20,x20,8
    3568:	dae5d063          	bge	x11,x14,2b08 <_vfprintf_r+0x1128>
    356c:	00812503          	lw	x10,8(x2)
    3570:	0c410613          	addi	x12,x2,196
    3574:	00048593          	addi	x11,x9,0
    3578:	785000ef          	jal	x1,44fc <__sprint_r>
    357c:	b2051263          	bne	x10,x0,28a0 <_vfprintf_r+0xec0>
    3580:	0cc12603          	lw	x12,204(x2)
    3584:	00098a13          	addi	x20,x19,0
    3588:	d80ff06f          	jal	x0,2b08 <_vfprintf_r+0x1128>
    358c:	01c12783          	lw	x15,28(x2)
    3590:	03512a23          	sw	x21,52(x2)
    3594:	02012a83          	lw	x21,32(x2)
    3598:	00fd07b3          	add	x15,x26,x15
    359c:	05712423          	sw	x23,72(x2)
    35a0:	05912623          	sw	x25,76(x2)
    35a4:	03b12023          	sw	x27,32(x2)
    35a8:	02412d83          	lw	x27,36(x2)
    35ac:	03a12223          	sw	x26,36(x2)
    35b0:	000c0c93          	addi	x25,x24,0
    35b4:	00812903          	lw	x18,8(x2)
    35b8:	04412c03          	lw	x24,68(x2)
    35bc:	04012d03          	lw	x26,64(x2)
    35c0:	00700813          	addi	x16,x0,7
    35c4:	01000713          	addi	x14,x0,16
    35c8:	0000fb17          	auipc	x22,0xf
    35cc:	95cb0b13          	addi	x22,x22,-1700 # 11f24 <zeroes.0>
    35d0:	000a0593          	addi	x11,x20,0
    35d4:	00078b93          	addi	x23,x15,0
    35d8:	09505663          	bge	x0,x21,3664 <_vfprintf_r+0x1c84>
    35dc:	17b05063          	bge	x0,x27,373c <_vfprintf_r+0x1d5c>
    35e0:	fffd8d93          	addi	x27,x27,-1
    35e4:	03c12783          	lw	x15,60(x2)
    35e8:	01860633          	add	x12,x12,x24
    35ec:	0185a223          	sw	x24,4(x11)
    35f0:	00f5a023          	sw	x15,0(x11)
    35f4:	0c812783          	lw	x15,200(x2)
    35f8:	0cc12623          	sw	x12,204(x2)
    35fc:	00858593          	addi	x11,x11,8
    3600:	00178793          	addi	x15,x15,1
    3604:	0cf12423          	sw	x15,200(x2)
    3608:	14f84063          	blt	x16,x15,3748 <_vfprintf_r+0x1d68>
    360c:	000d4683          	lbu	x13,0(x26)
    3610:	419b8a33          	sub	x20,x23,x25
    3614:	0146d463          	bge	x13,x20,361c <_vfprintf_r+0x1c3c>
    3618:	00068a13          	addi	x20,x13,0
    361c:	03405663          	bge	x0,x20,3648 <_vfprintf_r+0x1c68>
    3620:	0c812683          	lw	x13,200(x2)
    3624:	01460633          	add	x12,x12,x20
    3628:	0195a023          	sw	x25,0(x11)
    362c:	00168693          	addi	x13,x13,1
    3630:	0145a223          	sw	x20,4(x11)
    3634:	0cc12623          	sw	x12,204(x2)
    3638:	0cd12423          	sw	x13,200(x2)
    363c:	12d84a63          	blt	x16,x13,3770 <_vfprintf_r+0x1d90>
    3640:	000d4683          	lbu	x13,0(x26)
    3644:	00858593          	addi	x11,x11,8
    3648:	fffa4513          	xori	x10,x20,-1
    364c:	41f55513          	srai	x10,x10,0x1f
    3650:	00aa77b3          	and	x15,x20,x10
    3654:	40f68a33          	sub	x20,x13,x15
    3658:	05404263          	blt	x0,x20,369c <_vfprintf_r+0x1cbc>
    365c:	00dc8cb3          	add	x25,x25,x13
    3660:	f7504ee3          	blt	x0,x21,35dc <_vfprintf_r+0x1bfc>
    3664:	f7b04ee3          	blt	x0,x27,35e0 <_vfprintf_r+0x1c00>
    3668:	01c12783          	lw	x15,28(x2)
    366c:	05a12023          	sw	x26,64(x2)
    3670:	02412d03          	lw	x26,36(x2)
    3674:	000c8c13          	addi	x24,x25,0
    3678:	03412a83          	lw	x21,52(x2)
    367c:	00fd0733          	add	x14,x26,x15
    3680:	04812b83          	lw	x23,72(x2)
    3684:	04c12c83          	lw	x25,76(x2)
    3688:	02012d83          	lw	x27,32(x2)
    368c:	00058a13          	addi	x20,x11,0
    3690:	c9877463          	bgeu	x14,x24,2b18 <_vfprintf_r+0x1138>
    3694:	00070c13          	addi	x24,x14,0
    3698:	c80ff06f          	jal	x0,2b18 <_vfprintf_r+0x1138>
    369c:	0c812683          	lw	x13,200(x2)
    36a0:	0000ff17          	auipc	x30,0xf
    36a4:	884f0f13          	addi	x30,x30,-1916 # 11f24 <zeroes.0>
    36a8:	07475463          	bge	x14,x20,3710 <_vfprintf_r+0x1d30>
    36ac:	01612c23          	sw	x22,24(x2)
    36b0:	00c0006f          	jal	x0,36bc <_vfprintf_r+0x1cdc>
    36b4:	ff0a0a13          	addi	x20,x20,-16
    36b8:	05475a63          	bge	x14,x20,370c <_vfprintf_r+0x1d2c>
    36bc:	01060613          	addi	x12,x12,16
    36c0:	00168693          	addi	x13,x13,1
    36c4:	0165a023          	sw	x22,0(x11)
    36c8:	00e5a223          	sw	x14,4(x11)
    36cc:	0cc12623          	sw	x12,204(x2)
    36d0:	0cd12423          	sw	x13,200(x2)
    36d4:	00858593          	addi	x11,x11,8
    36d8:	fcd85ee3          	bge	x16,x13,36b4 <_vfprintf_r+0x1cd4>
    36dc:	0c410613          	addi	x12,x2,196
    36e0:	00048593          	addi	x11,x9,0
    36e4:	00090513          	addi	x10,x18,0
    36e8:	615000ef          	jal	x1,44fc <__sprint_r>
    36ec:	9a051a63          	bne	x10,x0,28a0 <_vfprintf_r+0xec0>
    36f0:	01000713          	addi	x14,x0,16
    36f4:	ff0a0a13          	addi	x20,x20,-16
    36f8:	0cc12603          	lw	x12,204(x2)
    36fc:	0c812683          	lw	x13,200(x2)
    3700:	00098593          	addi	x11,x19,0
    3704:	00700813          	addi	x16,x0,7
    3708:	fb474ae3          	blt	x14,x20,36bc <_vfprintf_r+0x1cdc>
    370c:	01812f03          	lw	x30,24(x2)
    3710:	01460633          	add	x12,x12,x20
    3714:	00168693          	addi	x13,x13,1
    3718:	01e5a023          	sw	x30,0(x11)
    371c:	0145a223          	sw	x20,4(x11)
    3720:	0cc12623          	sw	x12,204(x2)
    3724:	0cd12423          	sw	x13,200(x2)
    3728:	78d84863          	blt	x16,x13,3eb8 <_vfprintf_r+0x24d8>
    372c:	000d4683          	lbu	x13,0(x26)
    3730:	00858593          	addi	x11,x11,8
    3734:	00dc8cb3          	add	x25,x25,x13
    3738:	f29ff06f          	jal	x0,3660 <_vfprintf_r+0x1c80>
    373c:	fffd0d13          	addi	x26,x26,-1
    3740:	fffa8a93          	addi	x21,x21,-1
    3744:	ea1ff06f          	jal	x0,35e4 <_vfprintf_r+0x1c04>
    3748:	0c410613          	addi	x12,x2,196
    374c:	00048593          	addi	x11,x9,0
    3750:	00090513          	addi	x10,x18,0
    3754:	5a9000ef          	jal	x1,44fc <__sprint_r>
    3758:	94051463          	bne	x10,x0,28a0 <_vfprintf_r+0xec0>
    375c:	0cc12603          	lw	x12,204(x2)
    3760:	00098593          	addi	x11,x19,0
    3764:	01000713          	addi	x14,x0,16
    3768:	00700813          	addi	x16,x0,7
    376c:	ea1ff06f          	jal	x0,360c <_vfprintf_r+0x1c2c>
    3770:	0c410613          	addi	x12,x2,196
    3774:	00048593          	addi	x11,x9,0
    3778:	00090513          	addi	x10,x18,0
    377c:	581000ef          	jal	x1,44fc <__sprint_r>
    3780:	92051063          	bne	x10,x0,28a0 <_vfprintf_r+0xec0>
    3784:	000d4683          	lbu	x13,0(x26)
    3788:	0cc12603          	lw	x12,204(x2)
    378c:	00098593          	addi	x11,x19,0
    3790:	01000713          	addi	x14,x0,16
    3794:	00700813          	addi	x16,x0,7
    3798:	eb1ff06f          	jal	x0,3648 <_vfprintf_r+0x1c68>
    379c:	04412783          	lw	x15,68(x2)
    37a0:	03c12583          	lw	x11,60(x2)
    37a4:	03d12223          	sw	x29,36(x2)
    37a8:	40f686b3          	sub	x13,x13,x15
    37ac:	00078613          	addi	x12,x15,0
    37b0:	00068513          	addi	x10,x13,0
    37b4:	02e12023          	sw	x14,32(x2)
    37b8:	01f12e23          	sw	x31,28(x2)
    37bc:	01112c23          	sw	x17,24(x2)
    37c0:	00d12823          	sw	x13,16(x2)
    37c4:	67d030ef          	jal	x1,7640 <strncpy>
    37c8:	012d37b3          	sltu	x15,x26,x18
    37cc:	00500613          	addi	x12,x0,5
    37d0:	00fd07b3          	add	x15,x26,x15
    37d4:	02c7f7b3          	remu	x15,x15,x12
    37d8:	02012703          	lw	x14,32(x2)
    37dc:	ccccd537          	lui	x10,0xccccd
    37e0:	ccccd337          	lui	x6,0xccccd
    37e4:	00174583          	lbu	x11,1(x14)
    37e8:	ccd50513          	addi	x10,x10,-819 # cccccccd <__heap_end+0xcc8ccccd>
    37ec:	ccc30313          	addi	x6,x6,-820 # cccccccc <__heap_end+0xcc8ccccc>
    37f0:	00b035b3          	sltu	x11,x0,x11
    37f4:	00b70733          	add	x14,x14,x11
    37f8:	01012683          	lw	x13,16(x2)
    37fc:	01812883          	lw	x17,24(x2)
    3800:	01c12f83          	lw	x31,28(x2)
    3804:	02412e83          	lw	x29,36(x2)
    3808:	00000613          	addi	x12,x0,0
    380c:	00500e13          	addi	x28,x0,5
    3810:	40f907b3          	sub	x15,x18,x15
    3814:	00f935b3          	sltu	x11,x18,x15
    3818:	40bd85b3          	sub	x11,x27,x11
    381c:	02a585b3          	mul	x11,x11,x10
    3820:	02678333          	mul	x6,x15,x6
    3824:	02a7bf33          	mulhu	x30,x15,x10
    3828:	006585b3          	add	x11,x11,x6
    382c:	02a78533          	mul	x10,x15,x10
    3830:	01e585b3          	add	x11,x11,x30
    3834:	01f59793          	slli	x15,x11,0x1f
    3838:	0015d593          	srli	x11,x11,0x1
    383c:	00155513          	srli	x10,x10,0x1
    3840:	00a7e7b3          	or	x15,x15,x10
    3844:	ccccd537          	lui	x10,0xccccd
    3848:	ccd50813          	addi	x16,x10,-819 # cccccccd <__heap_end+0xcc8ccccd>
    384c:	9f9ff06f          	jal	x0,3244 <_vfprintf_r+0x1864>
    3850:	00900513          	addi	x10,x0,9
    3854:	9f2568e3          	bltu	x10,x18,3244 <_vfprintf_r+0x1864>
    3858:	a6dff06f          	jal	x0,32c4 <_vfprintf_r+0x18e4>
    385c:	00812503          	lw	x10,8(x2)
    3860:	0c410613          	addi	x12,x2,196
    3864:	00048593          	addi	x11,x9,0
    3868:	495000ef          	jal	x1,44fc <__sprint_r>
    386c:	00050463          	beq	x10,x0,3874 <_vfprintf_r+0x1e94>
    3870:	830ff06f          	jal	x0,28a0 <_vfprintf_r+0xec0>
    3874:	0ac12583          	lw	x11,172(x2)
    3878:	0cc12603          	lw	x12,204(x2)
    387c:	00098a13          	addi	x20,x19,0
    3880:	a95ff06f          	jal	x0,3314 <_vfprintf_r+0x1934>
    3884:	00812503          	lw	x10,8(x2)
    3888:	0c410613          	addi	x12,x2,196
    388c:	00048593          	addi	x11,x9,0
    3890:	46d000ef          	jal	x1,44fc <__sprint_r>
    3894:	00050463          	beq	x10,x0,389c <_vfprintf_r+0x1ebc>
    3898:	808ff06f          	jal	x0,28a0 <_vfprintf_r+0xec0>
    389c:	0cc12603          	lw	x12,204(x2)
    38a0:	00098a13          	addi	x20,x19,0
    38a4:	a4cff06f          	jal	x0,2af0 <_vfprintf_r+0x1110>
    38a8:	00600913          	addi	x18,x0,6
    38ac:	dd8ff06f          	jal	x0,2e84 <_vfprintf_r+0x14a4>
    38b0:	0ff97913          	andi	x18,x18,255
    38b4:	00000d93          	addi	x27,x0,0
    38b8:	01812a23          	sw	x24,20(x2)
    38bc:	dbcfe06f          	jal	x0,1e78 <_vfprintf_r+0x498>
    38c0:	01891913          	slli	x18,x18,0x18
    38c4:	41895913          	srai	x18,x18,0x18
    38c8:	41f95d93          	srai	x27,x18,0x1f
    38cc:	000d8793          	addi	x15,x27,0
    38d0:	01812a23          	sw	x24,20(x2)
    38d4:	d28fe06f          	jal	x0,1dfc <_vfprintf_r+0x41c>
    38d8:	0ff97913          	andi	x18,x18,255
    38dc:	00000d93          	addi	x27,x0,0
    38e0:	01812a23          	sw	x24,20(x2)
    38e4:	d18ff06f          	jal	x0,2dfc <_vfprintf_r+0x141c>
    38e8:	01412783          	lw	x15,20(x2)
    38ec:	00c12683          	lw	x13,12(x2)
    38f0:	00e12a23          	sw	x14,20(x2)
    38f4:	0007a783          	lw	x15,0(x15)
    38f8:	00d79023          	sh	x13,0(x15)
    38fc:	b05fe06f          	jal	x0,2400 <_vfprintf_r+0xa20>
    3900:	00812503          	lw	x10,8(x2)
    3904:	0c410613          	addi	x12,x2,196
    3908:	00048593          	addi	x11,x9,0
    390c:	3f1000ef          	jal	x1,44fc <__sprint_r>
    3910:	c14fe06f          	jal	x0,1d24 <_vfprintf_r+0x344>
    3914:	0a714703          	lbu	x14,167(x2)
    3918:	c0dff06f          	jal	x0,3524 <_vfprintf_r+0x1b44>
    391c:	00812503          	lw	x10,8(x2)
    3920:	0c410613          	addi	x12,x2,196
    3924:	00048593          	addi	x11,x9,0
    3928:	3d5000ef          	jal	x1,44fc <__sprint_r>
    392c:	00050463          	beq	x10,x0,3934 <_vfprintf_r+0x1f54>
    3930:	f71fe06f          	jal	x0,28a0 <_vfprintf_r+0xec0>
    3934:	0ac12583          	lw	x11,172(x2)
    3938:	0cc12603          	lw	x12,204(x2)
    393c:	0c812703          	lw	x14,200(x2)
    3940:	00098a13          	addi	x20,x19,0
    3944:	b55ff06f          	jal	x0,3498 <_vfprintf_r+0x1ab8>
    3948:	01650733          	add	x14,x10,x22
    394c:	04700613          	addi	x12,x0,71
    3950:	08010593          	addi	x11,x2,128
    3954:	00090513          	addi	x10,x18,0
    3958:	02c12023          	sw	x12,32(x2)
    395c:	00e12e23          	sw	x14,28(x2)
    3960:	01112c23          	sw	x17,24(x2)
    3964:	09f12823          	sw	x31,144(x2)
    3968:	09e12a23          	sw	x30,148(x2)
    396c:	09d12c23          	sw	x29,152(x2)
    3970:	09812e23          	sw	x24,156(x2)
    3974:	08012023          	sw	x0,128(x2)
    3978:	08012223          	sw	x0,132(x2)
    397c:	08012423          	sw	x0,136(x2)
    3980:	08012623          	sw	x0,140(x2)
    3984:	4010a0ef          	jal	x1,e584 <__eqtf2>
    3988:	01812883          	lw	x17,24(x2)
    398c:	01c12703          	lw	x14,28(x2)
    3990:	02012603          	lw	x12,32(x2)
    3994:	5c050063          	beq	x10,x0,3f54 <_vfprintf_r+0x2574>
    3998:	0bc12783          	lw	x15,188(x2)
    399c:	00e7fe63          	bgeu	x15,x14,39b8 <_vfprintf_r+0x1fd8>
    39a0:	03000593          	addi	x11,x0,48
    39a4:	00178693          	addi	x13,x15,1
    39a8:	0ad12e23          	sw	x13,188(x2)
    39ac:	00b78023          	sb	x11,0(x15)
    39b0:	0bc12783          	lw	x15,188(x2)
    39b4:	fee7e8e3          	bltu	x15,x14,39a4 <_vfprintf_r+0x1fc4>
    39b8:	0ac12703          	lw	x14,172(x2)
    39bc:	00e12c23          	sw	x14,24(x2)
    39c0:	41a787b3          	sub	x15,x15,x26
    39c4:	04700713          	addi	x14,x0,71
    39c8:	00f12e23          	sw	x15,28(x2)
    39cc:	e4e60c63          	beq	x12,x14,3024 <_vfprintf_r+0x1644>
    39d0:	04600713          	addi	x14,x0,70
    39d4:	6ce60463          	beq	x12,x14,409c <_vfprintf_r+0x26bc>
    39d8:	01812783          	lw	x15,24(x2)
    39dc:	fff78713          	addi	x14,x15,-1
    39e0:	e60ff06f          	jal	x0,3040 <_vfprintf_r+0x1660>
    39e4:	09010913          	addi	x18,x2,144
    39e8:	08010593          	addi	x11,x2,128
    39ec:	0ac10613          	addi	x12,x2,172
    39f0:	00090513          	addi	x10,x18,0
    39f4:	03112c23          	sw	x17,56(x2)
    39f8:	09f12023          	sw	x31,128(x2)
    39fc:	09e12223          	sw	x30,132(x2)
    3a00:	09d12423          	sw	x29,136(x2)
    3a04:	00b12c23          	sw	x11,24(x2)
    3a08:	09812623          	sw	x24,140(x2)
    3a0c:	52c030ef          	jal	x1,6f38 <frexpl>
    3a10:	09012803          	lw	x16,144(x2)
    3a14:	0000e717          	auipc	x14,0xe
    3a18:	52c70713          	addi	x14,x14,1324 # 11f40 <zeroes.0+0x1c>
    3a1c:	00072503          	lw	x10,0(x14)
    3a20:	09012023          	sw	x16,128(x2)
    3a24:	09412803          	lw	x16,148(x2)
    3a28:	00472603          	lw	x12,4(x14)
    3a2c:	00872683          	lw	x13,8(x14)
    3a30:	09012223          	sw	x16,132(x2)
    3a34:	09812803          	lw	x16,152(x2)
    3a38:	00c72703          	lw	x14,12(x14)
    3a3c:	01812583          	lw	x11,24(x2)
    3a40:	09012423          	sw	x16,136(x2)
    3a44:	09c12803          	lw	x16,156(x2)
    3a48:	06a12823          	sw	x10,112(x2)
    3a4c:	06c12a23          	sw	x12,116(x2)
    3a50:	00090513          	addi	x10,x18,0
    3a54:	07010613          	addi	x12,x2,112
    3a58:	09012623          	sw	x16,140(x2)
    3a5c:	06d12c23          	sw	x13,120(x2)
    3a60:	06e12e23          	sw	x14,124(x2)
    3a64:	6b10a0ef          	jal	x1,e914 <__multf3>
    3a68:	01812583          	lw	x11,24(x2)
    3a6c:	09012f03          	lw	x30,144(x2)
    3a70:	09412e83          	lw	x29,148(x2)
    3a74:	09812803          	lw	x16,152(x2)
    3a78:	00090513          	addi	x10,x18,0
    3a7c:	02b12223          	sw	x11,36(x2)
    3a80:	03e12023          	sw	x30,32(x2)
    3a84:	01d12e23          	sw	x29,28(x2)
    3a88:	01012c23          	sw	x16,24(x2)
    3a8c:	08012023          	sw	x0,128(x2)
    3a90:	08012223          	sw	x0,132(x2)
    3a94:	08012423          	sw	x0,136(x2)
    3a98:	08012623          	sw	x0,140(x2)
    3a9c:	2e90a0ef          	jal	x1,e584 <__eqtf2>
    3aa0:	09c12d83          	lw	x27,156(x2)
    3aa4:	01812803          	lw	x16,24(x2)
    3aa8:	01c12e83          	lw	x29,28(x2)
    3aac:	02012f03          	lw	x30,32(x2)
    3ab0:	02412583          	lw	x11,36(x2)
    3ab4:	03812883          	lw	x17,56(x2)
    3ab8:	00051663          	bne	x10,x0,3ac4 <_vfprintf_r+0x20e4>
    3abc:	00100713          	addi	x14,x0,1
    3ac0:	0ae12623          	sw	x14,172(x2)
    3ac4:	0000e797          	auipc	x15,0xe
    3ac8:	00478793          	addi	x15,x15,4 # 11ac8 <__clzsi2+0x34c>
    3acc:	06100713          	addi	x14,x0,97
    3ad0:	00f12c23          	sw	x15,24(x2)
    3ad4:	00e89863          	bne	x17,x14,3ae4 <_vfprintf_r+0x2104>
    3ad8:	0000e797          	auipc	x15,0xe
    3adc:	fdc78793          	addi	x15,x15,-36 # 11ab4 <__clzsi2+0x338>
    3ae0:	00f12c23          	sw	x15,24(x2)
    3ae4:	0000e717          	auipc	x14,0xe
    3ae8:	46c70713          	addi	x14,x14,1132 # 11f50 <zeroes.0+0x2c>
    3aec:	00072783          	lw	x15,0(x14)
    3af0:	03512c23          	sw	x21,56(x2)
    3af4:	05712623          	sw	x23,76(x2)
    3af8:	00f12e23          	sw	x15,28(x2)
    3afc:	00472783          	lw	x15,4(x14)
    3b00:	05412a23          	sw	x20,84(x2)
    3b04:	04912c23          	sw	x9,88(x2)
    3b08:	02f12023          	sw	x15,32(x2)
    3b0c:	00872783          	lw	x15,8(x14)
    3b10:	000d0a13          	addi	x20,x26,0
    3b14:	05a12e23          	sw	x26,92(x2)
    3b18:	02f12223          	sw	x15,36(x2)
    3b1c:	00c72783          	lw	x15,12(x14)
    3b20:	000d8c13          	addi	x24,x27,0
    3b24:	fffb0b13          	addi	x22,x22,-1
    3b28:	05112423          	sw	x17,72(x2)
    3b2c:	05912823          	sw	x25,80(x2)
    3b30:	00078d13          	addi	x26,x15,0
    3b34:	000e8a93          	addi	x21,x29,0
    3b38:	00080b93          	addi	x23,x16,0
    3b3c:	000f0d93          	addi	x27,x30,0
    3b40:	00058493          	addi	x9,x11,0
    3b44:	03c0006f          	jal	x0,3b80 <_vfprintf_r+0x21a0>
    3b48:	00048593          	addi	x11,x9,0
    3b4c:	00090513          	addi	x10,x18,0
    3b50:	09b12823          	sw	x27,144(x2)
    3b54:	09512a23          	sw	x21,148(x2)
    3b58:	09712c23          	sw	x23,152(x2)
    3b5c:	09812e23          	sw	x24,156(x2)
    3b60:	08012023          	sw	x0,128(x2)
    3b64:	08012223          	sw	x0,132(x2)
    3b68:	08012423          	sw	x0,136(x2)
    3b6c:	08012623          	sw	x0,140(x2)
    3b70:	fffb0c93          	addi	x25,x22,-1
    3b74:	2110a0ef          	jal	x1,e584 <__eqtf2>
    3b78:	68050063          	beq	x10,x0,41f8 <_vfprintf_r+0x2818>
    3b7c:	000c8b13          	addi	x22,x25,0
    3b80:	01c12783          	lw	x15,28(x2)
    3b84:	07010613          	addi	x12,x2,112
    3b88:	00048593          	addi	x11,x9,0
    3b8c:	06f12823          	sw	x15,112(x2)
    3b90:	02012783          	lw	x15,32(x2)
    3b94:	00090513          	addi	x10,x18,0
    3b98:	09b12023          	sw	x27,128(x2)
    3b9c:	06f12a23          	sw	x15,116(x2)
    3ba0:	02412783          	lw	x15,36(x2)
    3ba4:	09512223          	sw	x21,132(x2)
    3ba8:	09712423          	sw	x23,136(x2)
    3bac:	06f12c23          	sw	x15,120(x2)
    3bb0:	09812623          	sw	x24,140(x2)
    3bb4:	07a12e23          	sw	x26,124(x2)
    3bb8:	55d0a0ef          	jal	x1,e914 <__multf3>
    3bbc:	00090513          	addi	x10,x18,0
    3bc0:	7100d0ef          	jal	x1,112d0 <__fixtfsi>
    3bc4:	00050593          	addi	x11,x10,0
    3bc8:	00050c93          	addi	x25,x10,0
    3bcc:	00090513          	addi	x10,x18,0
    3bd0:	09012d83          	lw	x27,144(x2)
    3bd4:	09412c03          	lw	x24,148(x2)
    3bd8:	09812b83          	lw	x23,152(x2)
    3bdc:	09c12a83          	lw	x21,156(x2)
    3be0:	7f40d0ef          	jal	x1,113d4 <__floatsitf>
    3be4:	09012683          	lw	x13,144(x2)
    3be8:	06010613          	addi	x12,x2,96
    3bec:	07010593          	addi	x11,x2,112
    3bf0:	06d12023          	sw	x13,96(x2)
    3bf4:	09412683          	lw	x13,148(x2)
    3bf8:	00048513          	addi	x10,x9,0
    3bfc:	07b12823          	sw	x27,112(x2)
    3c00:	06d12223          	sw	x13,100(x2)
    3c04:	09812683          	lw	x13,152(x2)
    3c08:	07812a23          	sw	x24,116(x2)
    3c0c:	07712c23          	sw	x23,120(x2)
    3c10:	06d12423          	sw	x13,104(x2)
    3c14:	09c12683          	lw	x13,156(x2)
    3c18:	07512e23          	sw	x21,124(x2)
    3c1c:	06d12623          	sw	x13,108(x2)
    3c20:	6710b0ef          	jal	x1,fa90 <__subtf3>
    3c24:	01812783          	lw	x15,24(x2)
    3c28:	000a0f93          	addi	x31,x20,0
    3c2c:	001a0a13          	addi	x20,x20,1
    3c30:	019786b3          	add	x13,x15,x25
    3c34:	0006c603          	lbu	x12,0(x13)
    3c38:	08012d83          	lw	x27,128(x2)
    3c3c:	08412a83          	lw	x21,132(x2)
    3c40:	08812b83          	lw	x23,136(x2)
    3c44:	08c12c03          	lw	x24,140(x2)
    3c48:	fff00793          	addi	x15,x0,-1
    3c4c:	feca0fa3          	sb	x12,-1(x20)
    3c50:	eefb1ce3          	bne	x22,x15,3b48 <_vfprintf_r+0x2168>
    3c54:	0000e517          	auipc	x10,0xe
    3c58:	30c50513          	addi	x10,x10,780 # 11f60 <zeroes.0+0x3c>
    3c5c:	04812883          	lw	x17,72(x2)
    3c60:	00452283          	lw	x5,4(x10)
    3c64:	00852383          	lw	x7,8(x10)
    3c68:	00c52783          	lw	x15,12(x10)
    3c6c:	00052b03          	lw	x22,0(x10)
    3c70:	000d8f13          	addi	x30,x27,0
    3c74:	000a8e93          	addi	x29,x21,0
    3c78:	000b8813          	addi	x16,x23,0
    3c7c:	00048593          	addi	x11,x9,0
    3c80:	000c0d93          	addi	x27,x24,0
    3c84:	05c12d03          	lw	x26,92(x2)
    3c88:	03812a83          	lw	x21,56(x2)
    3c8c:	04c12b83          	lw	x23,76(x2)
    3c90:	05812483          	lw	x9,88(x2)
    3c94:	03112023          	sw	x17,32(x2)
    3c98:	01f12e23          	sw	x31,28(x2)
    3c9c:	05912e23          	sw	x25,92(x2)
    3ca0:	000a0c13          	addi	x24,x20,0
    3ca4:	05012c83          	lw	x25,80(x2)
    3ca8:	05412a03          	lw	x20,84(x2)
    3cac:	09e12823          	sw	x30,144(x2)
    3cb0:	05e12c23          	sw	x30,88(x2)
    3cb4:	09d12a23          	sw	x29,148(x2)
    3cb8:	05d12a23          	sw	x29,84(x2)
    3cbc:	09012c23          	sw	x16,152(x2)
    3cc0:	05012823          	sw	x16,80(x2)
    3cc4:	09b12e23          	sw	x27,156(x2)
    3cc8:	09612023          	sw	x22,128(x2)
    3ccc:	08512223          	sw	x5,132(x2)
    3cd0:	04512623          	sw	x5,76(x2)
    3cd4:	08712423          	sw	x7,136(x2)
    3cd8:	04712423          	sw	x7,72(x2)
    3cdc:	08f12623          	sw	x15,140(x2)
    3ce0:	02f12c23          	sw	x15,56(x2)
    3ce4:	02b12223          	sw	x11,36(x2)
    3ce8:	00090513          	addi	x10,x18,0
    3cec:	1690a0ef          	jal	x1,e654 <__getf2>
    3cf0:	01c12f83          	lw	x31,28(x2)
    3cf4:	02012883          	lw	x17,32(x2)
    3cf8:	02a04863          	blt	x0,x10,3d28 <_vfprintf_r+0x2348>
    3cfc:	02412583          	lw	x11,36(x2)
    3d00:	00090513          	addi	x10,x18,0
    3d04:	01112e23          	sw	x17,28(x2)
    3d08:	03f12023          	sw	x31,32(x2)
    3d0c:	0790a0ef          	jal	x1,e584 <__eqtf2>
    3d10:	01c12883          	lw	x17,28(x2)
    3d14:	04051e63          	bne	x10,x0,3d70 <_vfprintf_r+0x2390>
    3d18:	05c12703          	lw	x14,92(x2)
    3d1c:	02012f83          	lw	x31,32(x2)
    3d20:	00177693          	andi	x13,x14,1
    3d24:	04068663          	beq	x13,x0,3d70 <_vfprintf_r+0x2390>
    3d28:	01812783          	lw	x15,24(x2)
    3d2c:	0bf12e23          	sw	x31,188(x2)
    3d30:	fffc4603          	lbu	x12,-1(x24)
    3d34:	00f7c583          	lbu	x11,15(x15)
    3d38:	000c0693          	addi	x13,x24,0
    3d3c:	02c59063          	bne	x11,x12,3d5c <_vfprintf_r+0x237c>
    3d40:	03000513          	addi	x10,x0,48
    3d44:	fea68fa3          	sb	x10,-1(x13)
    3d48:	0bc12683          	lw	x13,188(x2)
    3d4c:	fff68793          	addi	x15,x13,-1
    3d50:	0af12e23          	sw	x15,188(x2)
    3d54:	fff6c603          	lbu	x12,-1(x13)
    3d58:	fec586e3          	beq	x11,x12,3d44 <_vfprintf_r+0x2364>
    3d5c:	00160593          	addi	x11,x12,1
    3d60:	03900513          	addi	x10,x0,57
    3d64:	0ff5f593          	andi	x11,x11,255
    3d68:	0ca60c63          	beq	x12,x10,3e40 <_vfprintf_r+0x2460>
    3d6c:	feb68fa3          	sb	x11,-1(x13)
    3d70:	000c0793          	addi	x15,x24,0
    3d74:	0ac12703          	lw	x14,172(x2)
    3d78:	41a787b3          	sub	x15,x15,x26
    3d7c:	06100613          	addi	x12,x0,97
    3d80:	00e12c23          	sw	x14,24(x2)
    3d84:	fff70713          	addi	x14,x14,-1
    3d88:	00f12e23          	sw	x15,28(x2)
    3d8c:	0ae12623          	sw	x14,172(x2)
    3d90:	07000693          	addi	x13,x0,112
    3d94:	00c88663          	beq	x17,x12,3da0 <_vfprintf_r+0x23c0>
    3d98:	05000693          	addi	x13,x0,80
    3d9c:	04100893          	addi	x17,x0,65
    3da0:	00100613          	addi	x12,x0,1
    3da4:	aa8ff06f          	jal	x0,304c <_vfprintf_r+0x166c>
    3da8:	001b0693          	addi	x13,x22,1
    3dac:	00200613          	addi	x12,x0,2
    3db0:	00812503          	lw	x10,8(x2)
    3db4:	09010913          	addi	x18,x2,144
    3db8:	0ac10713          	addi	x14,x2,172
    3dbc:	00090593          	addi	x11,x18,0
    3dc0:	0bc10813          	addi	x16,x2,188
    3dc4:	0b010793          	addi	x15,x2,176
    3dc8:	05112623          	sw	x17,76(x2)
    3dcc:	02d12223          	sw	x13,36(x2)
    3dd0:	09f12823          	sw	x31,144(x2)
    3dd4:	03f12023          	sw	x31,32(x2)
    3dd8:	09e12a23          	sw	x30,148(x2)
    3ddc:	01e12e23          	sw	x30,28(x2)
    3de0:	09d12c23          	sw	x29,152(x2)
    3de4:	01d12c23          	sw	x29,24(x2)
    3de8:	09812e23          	sw	x24,156(x2)
    3dec:	3f9030ef          	jal	x1,79e4 <_ldtoa_r>
    3df0:	04c12883          	lw	x17,76(x2)
    3df4:	02412683          	lw	x13,36(x2)
    3df8:	04600593          	addi	x11,x0,70
    3dfc:	fdf8f613          	andi	x12,x17,-33
    3e00:	01812e83          	lw	x29,24(x2)
    3e04:	01c12f03          	lw	x30,28(x2)
    3e08:	02012f83          	lw	x31,32(x2)
    3e0c:	00050d13          	addi	x26,x10,0
    3e10:	00d50733          	add	x14,x10,x13
    3e14:	34b61c63          	bne	x12,x11,416c <_vfprintf_r+0x278c>
    3e18:	000d4503          	lbu	x10,0(x26)
    3e1c:	03000593          	addi	x11,x0,48
    3e20:	1eb50c63          	beq	x10,x11,4018 <_vfprintf_r+0x2638>
    3e24:	0ac12683          	lw	x13,172(x2)
    3e28:	08010593          	addi	x11,x2,128
    3e2c:	00d70733          	add	x14,x14,x13
    3e30:	b25ff06f          	jal	x0,3954 <_vfprintf_r+0x1f74>
    3e34:	000b0693          	addi	x13,x22,0
    3e38:	00300613          	addi	x12,x0,3
    3e3c:	f75ff06f          	jal	x0,3db0 <_vfprintf_r+0x23d0>
    3e40:	01812783          	lw	x15,24(x2)
    3e44:	00a7c583          	lbu	x11,10(x15)
    3e48:	feb68fa3          	sb	x11,-1(x13)
    3e4c:	f25ff06f          	jal	x0,3d70 <_vfprintf_r+0x2390>
    3e50:	0a714703          	lbu	x14,167(x2)
    3e54:	04812b83          	lw	x23,72(x2)
    3e58:	00000b13          	addi	x22,x0,0
    3e5c:	00070463          	beq	x14,x0,3e64 <_vfprintf_r+0x2484>
    3e60:	fe9fd06f          	jal	x0,1e48 <_vfprintf_r+0x468>
    3e64:	d95fd06f          	jal	x0,1bf8 <_vfprintf_r+0x218>
    3e68:	01c12783          	lw	x15,28(x2)
    3e6c:	01812703          	lw	x14,24(x2)
    3e70:	16f74663          	blt	x14,x15,3fdc <_vfprintf_r+0x25fc>
    3e74:	01812783          	lw	x15,24(x2)
    3e78:	001bf713          	andi	x14,x23,1
    3e7c:	00078913          	addi	x18,x15,0
    3e80:	00070663          	beq	x14,x0,3e8c <_vfprintf_r+0x24ac>
    3e84:	02812703          	lw	x14,40(x2)
    3e88:	00e78933          	add	x18,x15,x14
    3e8c:	400bfe13          	andi	x28,x23,1024
    3e90:	000e0663          	beq	x28,x0,3e9c <_vfprintf_r+0x24bc>
    3e94:	01812783          	lw	x15,24(x2)
    3e98:	2ef04063          	blt	x0,x15,4178 <_vfprintf_r+0x2798>
    3e9c:	fff94693          	xori	x13,x18,-1
    3ea0:	41f6d693          	srai	x13,x13,0x1f
    3ea4:	00d97db3          	and	x27,x18,x13
    3ea8:	06700893          	addi	x17,x0,103
    3eac:	02012223          	sw	x0,36(x2)
    3eb0:	02012023          	sw	x0,32(x2)
    3eb4:	a74ff06f          	jal	x0,3128 <_vfprintf_r+0x1748>
    3eb8:	0c410613          	addi	x12,x2,196
    3ebc:	00048593          	addi	x11,x9,0
    3ec0:	00090513          	addi	x10,x18,0
    3ec4:	638000ef          	jal	x1,44fc <__sprint_r>
    3ec8:	00050463          	beq	x10,x0,3ed0 <_vfprintf_r+0x24f0>
    3ecc:	9d5fe06f          	jal	x0,28a0 <_vfprintf_r+0xec0>
    3ed0:	000d4683          	lbu	x13,0(x26)
    3ed4:	0cc12603          	lw	x12,204(x2)
    3ed8:	00098593          	addi	x11,x19,0
    3edc:	01000713          	addi	x14,x0,16
    3ee0:	00700813          	addi	x16,x0,7
    3ee4:	00dc8cb3          	add	x25,x25,x13
    3ee8:	f78ff06f          	jal	x0,3660 <_vfprintf_r+0x1c80>
    3eec:	02d00793          	addi	x15,x0,45
    3ef0:	0af103a3          	sb	x15,167(x2)
    3ef4:	02d00713          	addi	x14,x0,45
    3ef8:	cf0ff06f          	jal	x0,33e8 <_vfprintf_r+0x1a08>
    3efc:	01812a23          	sw	x24,20(x2)
    3f00:	02012223          	sw	x0,36(x2)
    3f04:	02012023          	sw	x0,32(x2)
    3f08:	00012c23          	sw	x0,24(x2)
    3f0c:	000b0d93          	addi	x27,x22,0
    3f10:	000b0913          	addi	x18,x22,0
    3f14:	00000b13          	addi	x22,x0,0
    3f18:	00070463          	beq	x14,x0,3f20 <_vfprintf_r+0x2540>
    3f1c:	f2dfd06f          	jal	x0,1e48 <_vfprintf_r+0x468>
    3f20:	cd9fd06f          	jal	x0,1bf8 <_vfprintf_r+0x218>
    3f24:	00812503          	lw	x10,8(x2)
    3f28:	0c410613          	addi	x12,x2,196
    3f2c:	00048593          	addi	x11,x9,0
    3f30:	5cc000ef          	jal	x1,44fc <__sprint_r>
    3f34:	00050463          	beq	x10,x0,3f3c <_vfprintf_r+0x255c>
    3f38:	969fe06f          	jal	x0,28a0 <_vfprintf_r+0xec0>
    3f3c:	0ac12583          	lw	x11,172(x2)
    3f40:	01c12783          	lw	x15,28(x2)
    3f44:	0cc12603          	lw	x12,204(x2)
    3f48:	00098a13          	addi	x20,x19,0
    3f4c:	40b785b3          	sub	x11,x15,x11
    3f50:	c25fe06f          	jal	x0,2b74 <_vfprintf_r+0x1194>
    3f54:	0ac12783          	lw	x15,172(x2)
    3f58:	00f12c23          	sw	x15,24(x2)
    3f5c:	00070793          	addi	x15,x14,0
    3f60:	a61ff06f          	jal	x0,39c0 <_vfprintf_r+0x1fe0>
    3f64:	ff000513          	addi	x10,x0,-16
    3f68:	40b00933          	sub	x18,x0,x11
    3f6c:	0000e817          	auipc	x16,0xe
    3f70:	fb880813          	addi	x16,x16,-72 # 11f24 <zeroes.0>
    3f74:	16a5d263          	bge	x11,x10,40d8 <_vfprintf_r+0x26f8>
    3f78:	01512c23          	sw	x21,24(x2)
    3f7c:	01000b13          	addi	x22,x0,16
    3f80:	00700c13          	addi	x24,x0,7
    3f84:	00080a93          	addi	x21,x16,0
    3f88:	00c0006f          	jal	x0,3f94 <_vfprintf_r+0x25b4>
    3f8c:	ff090913          	addi	x18,x18,-16
    3f90:	152b5063          	bge	x22,x18,40d0 <_vfprintf_r+0x26f0>
    3f94:	01060613          	addi	x12,x12,16
    3f98:	00170713          	addi	x14,x14,1
    3f9c:	015a2023          	sw	x21,0(x20)
    3fa0:	016a2223          	sw	x22,4(x20)
    3fa4:	0cc12623          	sw	x12,204(x2)
    3fa8:	0ce12423          	sw	x14,200(x2)
    3fac:	008a0a13          	addi	x20,x20,8
    3fb0:	fcec5ee3          	bge	x24,x14,3f8c <_vfprintf_r+0x25ac>
    3fb4:	00812503          	lw	x10,8(x2)
    3fb8:	0c410613          	addi	x12,x2,196
    3fbc:	00048593          	addi	x11,x9,0
    3fc0:	53c000ef          	jal	x1,44fc <__sprint_r>
    3fc4:	00050463          	beq	x10,x0,3fcc <_vfprintf_r+0x25ec>
    3fc8:	8d9fe06f          	jal	x0,28a0 <_vfprintf_r+0xec0>
    3fcc:	0cc12603          	lw	x12,204(x2)
    3fd0:	0c812703          	lw	x14,200(x2)
    3fd4:	00098a13          	addi	x20,x19,0
    3fd8:	fb5ff06f          	jal	x0,3f8c <_vfprintf_r+0x25ac>
    3fdc:	01c12783          	lw	x15,28(x2)
    3fe0:	02812703          	lw	x14,40(x2)
    3fe4:	06700893          	addi	x17,x0,103
    3fe8:	00e78933          	add	x18,x15,x14
    3fec:	01812783          	lw	x15,24(x2)
    3ff0:	24f05e63          	bge	x0,x15,424c <_vfprintf_r+0x286c>
    3ff4:	400bfe13          	andi	x28,x23,1024
    3ff8:	180e1263          	bne	x28,x0,417c <_vfprintf_r+0x279c>
    3ffc:	fff94693          	xori	x13,x18,-1
    4000:	41f6d693          	srai	x13,x13,0x1f
    4004:	00d97db3          	and	x27,x18,x13
    4008:	ea5ff06f          	jal	x0,3eac <_vfprintf_r+0x24cc>
    400c:	01012383          	lw	x7,16(x2)
    4010:	000a0493          	addi	x9,x20,0
    4014:	891fe06f          	jal	x0,28a4 <_vfprintf_r+0xec4>
    4018:	08010593          	addi	x11,x2,128
    401c:	00090513          	addi	x10,x18,0
    4020:	04c12c23          	sw	x12,88(x2)
    4024:	04e12a23          	sw	x14,84(x2)
    4028:	05112823          	sw	x17,80(x2)
    402c:	04d12623          	sw	x13,76(x2)
    4030:	09f12823          	sw	x31,144(x2)
    4034:	03f12223          	sw	x31,36(x2)
    4038:	09e12a23          	sw	x30,148(x2)
    403c:	03e12023          	sw	x30,32(x2)
    4040:	09d12c23          	sw	x29,152(x2)
    4044:	01d12e23          	sw	x29,28(x2)
    4048:	00b12c23          	sw	x11,24(x2)
    404c:	09812e23          	sw	x24,156(x2)
    4050:	08012023          	sw	x0,128(x2)
    4054:	08012223          	sw	x0,132(x2)
    4058:	08012423          	sw	x0,136(x2)
    405c:	08012623          	sw	x0,140(x2)
    4060:	5240a0ef          	jal	x1,e584 <__eqtf2>
    4064:	01812583          	lw	x11,24(x2)
    4068:	01c12e83          	lw	x29,28(x2)
    406c:	02012f03          	lw	x30,32(x2)
    4070:	02412f83          	lw	x31,36(x2)
    4074:	04c12683          	lw	x13,76(x2)
    4078:	05012883          	lw	x17,80(x2)
    407c:	05412703          	lw	x14,84(x2)
    4080:	05812603          	lw	x12,88(x2)
    4084:	1e051063          	bne	x10,x0,4264 <_vfprintf_r+0x2884>
    4088:	0ac12783          	lw	x15,172(x2)
    408c:	00f70733          	add	x14,x14,x15
    4090:	00f12c23          	sw	x15,24(x2)
    4094:	41a707b3          	sub	x15,x14,x26
    4098:	00f12e23          	sw	x15,28(x2)
    409c:	01812783          	lw	x15,24(x2)
    40a0:	001bf713          	andi	x14,x23,1
    40a4:	01676733          	or	x14,x14,x22
    40a8:	1ef05a63          	bge	x0,x15,429c <_vfprintf_r+0x28bc>
    40ac:	18071663          	bne	x14,x0,4238 <_vfprintf_r+0x2858>
    40b0:	01812903          	lw	x18,24(x2)
    40b4:	06600893          	addi	x17,x0,102
    40b8:	f3dff06f          	jal	x0,3ff4 <_vfprintf_r+0x2614>
    40bc:	fff00793          	addi	x15,x0,-1
    40c0:	00f12623          	sw	x15,12(x2)
    40c4:	c95fd06f          	jal	x0,1d58 <_vfprintf_r+0x378>
    40c8:	000b8f93          	addi	x31,x23,0
    40cc:	a34fe06f          	jal	x0,2300 <_vfprintf_r+0x920>
    40d0:	000a8813          	addi	x16,x21,0
    40d4:	01812a83          	lw	x21,24(x2)
    40d8:	01260633          	add	x12,x12,x18
    40dc:	00170713          	addi	x14,x14,1
    40e0:	010a2023          	sw	x16,0(x20)
    40e4:	012a2223          	sw	x18,4(x20)
    40e8:	0cc12623          	sw	x12,204(x2)
    40ec:	0ce12423          	sw	x14,200(x2)
    40f0:	00700593          	addi	x11,x0,7
    40f4:	a6e5d263          	bge	x11,x14,3358 <_vfprintf_r+0x1978>
    40f8:	00812503          	lw	x10,8(x2)
    40fc:	0c410613          	addi	x12,x2,196
    4100:	00048593          	addi	x11,x9,0
    4104:	3f8000ef          	jal	x1,44fc <__sprint_r>
    4108:	00050463          	beq	x10,x0,4110 <_vfprintf_r+0x2730>
    410c:	f94fe06f          	jal	x0,28a0 <_vfprintf_r+0xec0>
    4110:	0cc12603          	lw	x12,204(x2)
    4114:	0c812703          	lw	x14,200(x2)
    4118:	00098a13          	addi	x20,x19,0
    411c:	b80ff06f          	jal	x0,349c <_vfprintf_r+0x1abc>
    4120:	0b610693          	addi	x13,x2,182
    4124:	00061863          	bne	x12,x0,4134 <_vfprintf_r+0x2754>
    4128:	03000693          	addi	x13,x0,48
    412c:	0ad10b23          	sb	x13,182(x2)
    4130:	0b710693          	addi	x13,x2,183
    4134:	19010793          	addi	x15,x2,400
    4138:	40f68633          	sub	x12,x13,x15
    413c:	03070713          	addi	x14,x14,48
    4140:	0dd60793          	addi	x15,x12,221
    4144:	00e68023          	sb	x14,0(x13)
    4148:	02f12c23          	sw	x15,56(x2)
    414c:	f99fe06f          	jal	x0,30e4 <_vfprintf_r+0x1704>
    4150:	00012823          	sw	x0,16(x2)
    4154:	00600b13          	addi	x22,x0,6
    4158:	e51fd06f          	jal	x0,1fa8 <_vfprintf_r+0x5c8>
    415c:	001bf713          	andi	x14,x23,1
    4160:	00071463          	bne	x14,x0,4168 <_vfprintf_r+0x2788>
    4164:	fa1fe06f          	jal	x0,3104 <_vfprintf_r+0x1724>
    4168:	f95fe06f          	jal	x0,30fc <_vfprintf_r+0x171c>
    416c:	04500613          	addi	x12,x0,69
    4170:	08010593          	addi	x11,x2,128
    4174:	fe0ff06f          	jal	x0,3954 <_vfprintf_r+0x1f74>
    4178:	06700893          	addi	x17,x0,103
    417c:	04012603          	lw	x12,64(x2)
    4180:	0ff00693          	addi	x13,x0,255
    4184:	00064703          	lbu	x14,0(x12)
    4188:	14d70a63          	beq	x14,x13,42dc <_vfprintf_r+0x28fc>
    418c:	01812783          	lw	x15,24(x2)
    4190:	00000513          	addi	x10,x0,0
    4194:	00000593          	addi	x11,x0,0
    4198:	00f75e63          	bge	x14,x15,41b4 <_vfprintf_r+0x27d4>
    419c:	40e787b3          	sub	x15,x15,x14
    41a0:	00164703          	lbu	x14,1(x12)
    41a4:	04070463          	beq	x14,x0,41ec <_vfprintf_r+0x280c>
    41a8:	00158593          	addi	x11,x11,1
    41ac:	00160613          	addi	x12,x12,1
    41b0:	fed714e3          	bne	x14,x13,4198 <_vfprintf_r+0x27b8>
    41b4:	04c12023          	sw	x12,64(x2)
    41b8:	02b12023          	sw	x11,32(x2)
    41bc:	02a12223          	sw	x10,36(x2)
    41c0:	00f12c23          	sw	x15,24(x2)
    41c4:	02412783          	lw	x15,36(x2)
    41c8:	02012703          	lw	x14,32(x2)
    41cc:	00e78733          	add	x14,x15,x14
    41d0:	04412783          	lw	x15,68(x2)
    41d4:	02f70733          	mul	x14,x14,x15
    41d8:	01270933          	add	x18,x14,x18
    41dc:	fff94693          	xori	x13,x18,-1
    41e0:	41f6d693          	srai	x13,x13,0x1f
    41e4:	00d97db3          	and	x27,x18,x13
    41e8:	f41fe06f          	jal	x0,3128 <_vfprintf_r+0x1748>
    41ec:	00064703          	lbu	x14,0(x12)
    41f0:	00150513          	addi	x10,x10,1
    41f4:	fbdff06f          	jal	x0,41b0 <_vfprintf_r+0x27d0>
    41f8:	000a0c13          	addi	x24,x20,0
    41fc:	001b0793          	addi	x15,x22,1
    4200:	03812a83          	lw	x21,56(x2)
    4204:	04812883          	lw	x17,72(x2)
    4208:	04c12b83          	lw	x23,76(x2)
    420c:	05012c83          	lw	x25,80(x2)
    4210:	05412a03          	lw	x20,84(x2)
    4214:	05812483          	lw	x9,88(x2)
    4218:	05c12d03          	lw	x26,92(x2)
    421c:	00fc07b3          	add	x15,x24,x15
    4220:	03000693          	addi	x13,x0,48
    4224:	b40b46e3          	blt	x22,x0,3d70 <_vfprintf_r+0x2390>
    4228:	001c0c13          	addi	x24,x24,1
    422c:	fedc0fa3          	sb	x13,-1(x24)
    4230:	ff879ce3          	bne	x15,x24,4228 <_vfprintf_r+0x2848>
    4234:	b41ff06f          	jal	x0,3d74 <_vfprintf_r+0x2394>
    4238:	02812703          	lw	x14,40(x2)
    423c:	06600893          	addi	x17,x0,102
    4240:	00eb0f33          	add	x30,x22,x14
    4244:	00ff0933          	add	x18,x30,x15
    4248:	dadff06f          	jal	x0,3ff4 <_vfprintf_r+0x2614>
    424c:	40f90f33          	sub	x30,x18,x15
    4250:	001f0913          	addi	x18,x30,1
    4254:	fff94693          	xori	x13,x18,-1
    4258:	41f6d693          	srai	x13,x13,0x1f
    425c:	00d97db3          	and	x27,x18,x13
    4260:	c4dff06f          	jal	x0,3eac <_vfprintf_r+0x24cc>
    4264:	00100513          	addi	x10,x0,1
    4268:	40d506b3          	sub	x13,x10,x13
    426c:	0ad12623          	sw	x13,172(x2)
    4270:	00d70733          	add	x14,x14,x13
    4274:	ee0ff06f          	jal	x0,3954 <_vfprintf_r+0x1f74>
    4278:	01412783          	lw	x15,20(x2)
    427c:	0007ab03          	lw	x22,0(x15)
    4280:	00478793          	addi	x15,x15,4
    4284:	000b5463          	bge	x22,x0,428c <_vfprintf_r+0x28ac>
    4288:	fff00b13          	addi	x22,x0,-1
    428c:	001ac883          	lbu	x17,1(x21)
    4290:	00f12a23          	sw	x15,20(x2)
    4294:	00068a93          	addi	x21,x13,0
    4298:	8d9fd06f          	jal	x0,1b70 <_vfprintf_r+0x190>
    429c:	00071a63          	bne	x14,x0,42b0 <_vfprintf_r+0x28d0>
    42a0:	00100d93          	addi	x27,x0,1
    42a4:	06600893          	addi	x17,x0,102
    42a8:	00100913          	addi	x18,x0,1
    42ac:	c01ff06f          	jal	x0,3eac <_vfprintf_r+0x24cc>
    42b0:	02812783          	lw	x15,40(x2)
    42b4:	06600893          	addi	x17,x0,102
    42b8:	00178f13          	addi	x30,x15,1
    42bc:	016f0933          	add	x18,x30,x22
    42c0:	fff94693          	xori	x13,x18,-1
    42c4:	41f6d693          	srai	x13,x13,0x1f
    42c8:	00d97db3          	and	x27,x18,x13
    42cc:	be1ff06f          	jal	x0,3eac <_vfprintf_r+0x24cc>
    42d0:	00200793          	addi	x15,x0,2
    42d4:	02f12c23          	sw	x15,56(x2)
    42d8:	e0dfe06f          	jal	x0,30e4 <_vfprintf_r+0x1704>
    42dc:	02012223          	sw	x0,36(x2)
    42e0:	02012023          	sw	x0,32(x2)
    42e4:	ee1ff06f          	jal	x0,41c4 <_vfprintf_r+0x27e4>
    42e8:	00c4d783          	lhu	x15,12(x9)
    42ec:	0407e793          	ori	x15,x15,64
    42f0:	00f49623          	sh	x15,12(x9)
    42f4:	a31fd06f          	jal	x0,1d24 <_vfprintf_r+0x344>

000042f8 <vfprintf>:
    42f8:	00060693          	addi	x13,x12,0
    42fc:	00058613          	addi	x12,x11,0
    4300:	00050593          	addi	x11,x10,0
    4304:	f041a503          	lw	x10,-252(x3) # 12bb4 <_impure_ptr>
    4308:	ed8fd06f          	jal	x0,19e0 <_vfprintf_r>

0000430c <__sbprintf>:
    430c:	b8010113          	addi	x2,x2,-1152
    4310:	00c59783          	lh	x15,12(x11)
    4314:	00e5d703          	lhu	x14,14(x11)
    4318:	0645ae03          	lw	x28,100(x11)
    431c:	01c5a303          	lw	x6,28(x11)
    4320:	0245a883          	lw	x17,36(x11)
    4324:	46812c23          	sw	x8,1144(x2)
    4328:	00058413          	addi	x8,x11,0
    432c:	000105b7          	lui	x11,0x10
    4330:	ffd58593          	addi	x11,x11,-3 # fffd <__subtf3+0x56d>
    4334:	01071713          	slli	x14,x14,0x10
    4338:	00b7f7b3          	and	x15,x15,x11
    433c:	00e7e7b3          	or	x15,x15,x14
    4340:	40000813          	addi	x16,x0,1024
    4344:	00f12a23          	sw	x15,20(x2)
    4348:	00810593          	addi	x11,x2,8
    434c:	07010793          	addi	x15,x2,112
    4350:	46912a23          	sw	x9,1140(x2)
    4354:	47212823          	sw	x18,1136(x2)
    4358:	46112e23          	sw	x1,1148(x2)
    435c:	00050913          	addi	x18,x10,0
    4360:	07c12623          	sw	x28,108(x2)
    4364:	02612223          	sw	x6,36(x2)
    4368:	03112623          	sw	x17,44(x2)
    436c:	00f12423          	sw	x15,8(x2)
    4370:	00f12c23          	sw	x15,24(x2)
    4374:	01012823          	sw	x16,16(x2)
    4378:	01012e23          	sw	x16,28(x2)
    437c:	02012023          	sw	x0,32(x2)
    4380:	e60fd0ef          	jal	x1,19e0 <_vfprintf_r>
    4384:	00050493          	addi	x9,x10,0
    4388:	02055c63          	bge	x10,x0,43c0 <__sbprintf+0xb4>
    438c:	01415783          	lhu	x15,20(x2)
    4390:	0407f793          	andi	x15,x15,64
    4394:	00078863          	beq	x15,x0,43a4 <__sbprintf+0x98>
    4398:	00c45783          	lhu	x15,12(x8)
    439c:	0407e793          	ori	x15,x15,64
    43a0:	00f41623          	sh	x15,12(x8)
    43a4:	47c12083          	lw	x1,1148(x2)
    43a8:	47812403          	lw	x8,1144(x2)
    43ac:	47012903          	lw	x18,1136(x2)
    43b0:	00048513          	addi	x10,x9,0
    43b4:	47412483          	lw	x9,1140(x2)
    43b8:	48010113          	addi	x2,x2,1152
    43bc:	00008067          	jalr	x0,0(x1)
    43c0:	00810593          	addi	x11,x2,8
    43c4:	00090513          	addi	x10,x18,0
    43c8:	291020ef          	jal	x1,6e58 <_fflush_r>
    43cc:	fc0500e3          	beq	x10,x0,438c <__sbprintf+0x80>
    43d0:	fff00493          	addi	x9,x0,-1
    43d4:	fb9ff06f          	jal	x0,438c <__sbprintf+0x80>

000043d8 <__sprint_r.part.0>:
    43d8:	0645a783          	lw	x15,100(x11)
    43dc:	fd010113          	addi	x2,x2,-48
    43e0:	01612823          	sw	x22,16(x2)
    43e4:	02112623          	sw	x1,44(x2)
    43e8:	01279713          	slli	x14,x15,0x12
    43ec:	00060b13          	addi	x22,x12,0
    43f0:	0e075863          	bge	x14,x0,44e0 <__sprint_r.part.0+0x108>
    43f4:	00862783          	lw	x15,8(x12)
    43f8:	03212023          	sw	x18,32(x2)
    43fc:	01312e23          	sw	x19,28(x2)
    4400:	01512a23          	sw	x21,20(x2)
    4404:	01712623          	sw	x23,12(x2)
    4408:	00058913          	addi	x18,x11,0
    440c:	00062b83          	lw	x23,0(x12)
    4410:	00050993          	addi	x19,x10,0
    4414:	fff00a93          	addi	x21,x0,-1
    4418:	0a078863          	beq	x15,x0,44c8 <__sprint_r.part.0+0xf0>
    441c:	02812423          	sw	x8,40(x2)
    4420:	02912223          	sw	x9,36(x2)
    4424:	01412c23          	sw	x20,24(x2)
    4428:	01812423          	sw	x24,8(x2)
    442c:	004bac03          	lw	x24,4(x23)
    4430:	000ba403          	lw	x8,0(x23)
    4434:	002c5a13          	srli	x20,x24,0x2
    4438:	060a0663          	beq	x20,x0,44a4 <__sprint_r.part.0+0xcc>
    443c:	00000493          	addi	x9,x0,0
    4440:	00c0006f          	jal	x0,444c <__sprint_r.part.0+0x74>
    4444:	00440413          	addi	x8,x8,4
    4448:	049a0c63          	beq	x20,x9,44a0 <__sprint_r.part.0+0xc8>
    444c:	00042583          	lw	x11,0(x8)
    4450:	00090613          	addi	x12,x18,0
    4454:	00098513          	addi	x10,x19,0
    4458:	4e4030ef          	jal	x1,793c <_fputwc_r>
    445c:	00148493          	addi	x9,x9,1
    4460:	ff5512e3          	bne	x10,x21,4444 <__sprint_r.part.0+0x6c>
    4464:	02812403          	lw	x8,40(x2)
    4468:	02412483          	lw	x9,36(x2)
    446c:	02012903          	lw	x18,32(x2)
    4470:	01c12983          	lw	x19,28(x2)
    4474:	01812a03          	lw	x20,24(x2)
    4478:	01412a83          	lw	x21,20(x2)
    447c:	00c12b83          	lw	x23,12(x2)
    4480:	00812c03          	lw	x24,8(x2)
    4484:	fff00513          	addi	x10,x0,-1
    4488:	02c12083          	lw	x1,44(x2)
    448c:	000b2423          	sw	x0,8(x22)
    4490:	000b2223          	sw	x0,4(x22)
    4494:	01012b03          	lw	x22,16(x2)
    4498:	03010113          	addi	x2,x2,48
    449c:	00008067          	jalr	x0,0(x1)
    44a0:	008b2783          	lw	x15,8(x22)
    44a4:	ffcc7c13          	andi	x24,x24,-4
    44a8:	418787b3          	sub	x15,x15,x24
    44ac:	00fb2423          	sw	x15,8(x22)
    44b0:	008b8b93          	addi	x23,x23,8
    44b4:	f6079ce3          	bne	x15,x0,442c <__sprint_r.part.0+0x54>
    44b8:	02812403          	lw	x8,40(x2)
    44bc:	02412483          	lw	x9,36(x2)
    44c0:	01812a03          	lw	x20,24(x2)
    44c4:	00812c03          	lw	x24,8(x2)
    44c8:	02012903          	lw	x18,32(x2)
    44cc:	01c12983          	lw	x19,28(x2)
    44d0:	01412a83          	lw	x21,20(x2)
    44d4:	00c12b83          	lw	x23,12(x2)
    44d8:	00000513          	addi	x10,x0,0
    44dc:	fadff06f          	jal	x0,4488 <__sprint_r.part.0+0xb0>
    44e0:	ef5fc0ef          	jal	x1,13d4 <__sfvwrite_r>
    44e4:	02c12083          	lw	x1,44(x2)
    44e8:	000b2423          	sw	x0,8(x22)
    44ec:	000b2223          	sw	x0,4(x22)
    44f0:	01012b03          	lw	x22,16(x2)
    44f4:	03010113          	addi	x2,x2,48
    44f8:	00008067          	jalr	x0,0(x1)

000044fc <__sprint_r>:
    44fc:	00862703          	lw	x14,8(x12)
    4500:	00070463          	beq	x14,x0,4508 <__sprint_r+0xc>
    4504:	ed5ff06f          	jal	x0,43d8 <__sprint_r.part.0>
    4508:	00062223          	sw	x0,4(x12)
    450c:	00000513          	addi	x10,x0,0
    4510:	00008067          	jalr	x0,0(x1)

00004514 <_vfiprintf_r>:
    4514:	ed010113          	addi	x2,x2,-304
    4518:	11312e23          	sw	x19,284(x2)
    451c:	11612823          	sw	x22,272(x2)
    4520:	11712623          	sw	x23,268(x2)
    4524:	11812423          	sw	x24,264(x2)
    4528:	12112623          	sw	x1,300(x2)
    452c:	0fb12e23          	sw	x27,252(x2)
    4530:	00050c13          	addi	x24,x10,0
    4534:	00058b13          	addi	x22,x11,0
    4538:	00060993          	addi	x19,x12,0
    453c:	00068b93          	addi	x23,x13,0
    4540:	00050863          	beq	x10,x0,4550 <_vfiprintf_r+0x3c>
    4544:	03452783          	lw	x15,52(x10)
    4548:	00079463          	bne	x15,x0,4550 <_vfiprintf_r+0x3c>
    454c:	1d40106f          	jal	x0,5720 <_vfiprintf_r+0x120c>
    4550:	00cb1783          	lh	x15,12(x22)
    4554:	01279713          	slli	x14,x15,0x12
    4558:	02074663          	blt	x14,x0,4584 <_vfiprintf_r+0x70>
    455c:	064b2703          	lw	x14,100(x22)
    4560:	000026b7          	lui	x13,0x2
    4564:	00d7e7b3          	or	x15,x15,x13
    4568:	ffffe6b7          	lui	x13,0xffffe
    456c:	01079793          	slli	x15,x15,0x10
    4570:	fff68693          	addi	x13,x13,-1 # ffffdfff <__heap_end+0xffbfdfff>
    4574:	4107d793          	srai	x15,x15,0x10
    4578:	00d77733          	and	x14,x14,x13
    457c:	00fb1623          	sh	x15,12(x22)
    4580:	06eb2223          	sw	x14,100(x22)
    4584:	0087f713          	andi	x14,x15,8
    4588:	38070863          	beq	x14,x0,4918 <_vfiprintf_r+0x404>
    458c:	010b2703          	lw	x14,16(x22)
    4590:	38070463          	beq	x14,x0,4918 <_vfiprintf_r+0x404>
    4594:	01a7f793          	andi	x15,x15,26
    4598:	00a00713          	addi	x14,x0,10
    459c:	38e78e63          	beq	x15,x14,4938 <_vfiprintf_r+0x424>
    45a0:	11512a23          	sw	x21,276(x2)
    45a4:	00000d93          	addi	x27,x0,0
    45a8:	04c10a93          	addi	x21,x2,76
    45ac:	12812423          	sw	x8,296(x2)
    45b0:	11412c23          	sw	x20,280(x2)
    45b4:	11912223          	sw	x25,260(x2)
    45b8:	11a12023          	sw	x26,256(x2)
    45bc:	01812223          	sw	x24,4(x2)
    45c0:	12912223          	sw	x9,292(x2)
    45c4:	13212023          	sw	x18,288(x2)
    45c8:	05512023          	sw	x21,64(x2)
    45cc:	04012423          	sw	x0,72(x2)
    45d0:	04012223          	sw	x0,68(x2)
    45d4:	000a8413          	addi	x8,x21,0
    45d8:	00012423          	sw	x0,8(x2)
    45dc:	00012e23          	sw	x0,28(x2)
    45e0:	00012c23          	sw	x0,24(x2)
    45e4:	02012023          	sw	x0,32(x2)
    45e8:	0000ed17          	auipc	x26,0xe
    45ec:	9b8d0d13          	addi	x26,x26,-1608 # 11fa0 <zeroes.0+0x7c>
    45f0:	01000a13          	addi	x20,x0,16
    45f4:	0000ec97          	auipc	x25,0xe
    45f8:	b28c8c93          	addi	x25,x25,-1240 # 1211c <zeroes.0>
    45fc:	000d8c13          	addi	x24,x27,0
    4600:	000b8813          	addi	x16,x23,0
    4604:	0009c783          	lbu	x15,0(x19)
    4608:	26078263          	beq	x15,x0,486c <_vfiprintf_r+0x358>
    460c:	00098493          	addi	x9,x19,0
    4610:	02500713          	addi	x14,x0,37
    4614:	3ce78463          	beq	x15,x14,49dc <_vfiprintf_r+0x4c8>
    4618:	0014c783          	lbu	x15,1(x9)
    461c:	00148493          	addi	x9,x9,1
    4620:	fe079ae3          	bne	x15,x0,4614 <_vfiprintf_r+0x100>
    4624:	41348933          	sub	x18,x9,x19
    4628:	25348263          	beq	x9,x19,486c <_vfiprintf_r+0x358>
    462c:	04812703          	lw	x14,72(x2)
    4630:	04412783          	lw	x15,68(x2)
    4634:	01342023          	sw	x19,0(x8)
    4638:	00e90733          	add	x14,x18,x14
    463c:	00178793          	addi	x15,x15,1
    4640:	01242223          	sw	x18,4(x8)
    4644:	04e12423          	sw	x14,72(x2)
    4648:	04f12223          	sw	x15,68(x2)
    464c:	00700693          	addi	x13,x0,7
    4650:	00840413          	addi	x8,x8,8
    4654:	02f6d463          	bge	x13,x15,467c <_vfiprintf_r+0x168>
    4658:	4e0706e3          	beq	x14,x0,5344 <_vfiprintf_r+0xe30>
    465c:	00412503          	lw	x10,4(x2)
    4660:	04010613          	addi	x12,x2,64
    4664:	000b0593          	addi	x11,x22,0
    4668:	01012623          	sw	x16,12(x2)
    466c:	d6dff0ef          	jal	x1,43d8 <__sprint_r.part.0>
    4670:	00c12803          	lw	x16,12(x2)
    4674:	30051c63          	bne	x10,x0,498c <_vfiprintf_r+0x478>
    4678:	000a8413          	addi	x8,x21,0
    467c:	0004c783          	lbu	x15,0(x9)
    4680:	012c0c33          	add	x24,x24,x18
    4684:	1e078463          	beq	x15,x0,486c <_vfiprintf_r+0x358>
    4688:	0014c703          	lbu	x14,1(x9)
    468c:	00148993          	addi	x19,x9,1
    4690:	02010da3          	sb	x0,59(x2)
    4694:	fff00493          	addi	x9,x0,-1
    4698:	00000b93          	addi	x23,x0,0
    469c:	00000d93          	addi	x27,x0,0
    46a0:	05a00913          	addi	x18,x0,90
    46a4:	00198993          	addi	x19,x19,1
    46a8:	fe070793          	addi	x15,x14,-32
    46ac:	04f96663          	bltu	x18,x15,46f8 <_vfiprintf_r+0x1e4>
    46b0:	00279793          	slli	x15,x15,0x2
    46b4:	01a787b3          	add	x15,x15,x26
    46b8:	0007a783          	lw	x15,0(x15)
    46bc:	01a787b3          	add	x15,x15,x26
    46c0:	00078067          	jalr	x0,0(x15)
    46c4:	00000b93          	addi	x23,x0,0
    46c8:	fd070793          	addi	x15,x14,-48
    46cc:	00900613          	addi	x12,x0,9
    46d0:	0009c703          	lbu	x14,0(x19)
    46d4:	002b9693          	slli	x13,x23,0x2
    46d8:	01768bb3          	add	x23,x13,x23
    46dc:	001b9b93          	slli	x23,x23,0x1
    46e0:	01778bb3          	add	x23,x15,x23
    46e4:	fd070793          	addi	x15,x14,-48
    46e8:	00198993          	addi	x19,x19,1
    46ec:	fef672e3          	bgeu	x12,x15,46d0 <_vfiprintf_r+0x1bc>
    46f0:	fe070793          	addi	x15,x14,-32
    46f4:	faf97ee3          	bgeu	x18,x15,46b0 <_vfiprintf_r+0x19c>
    46f8:	16070a63          	beq	x14,x0,486c <_vfiprintf_r+0x358>
    46fc:	08e10623          	sb	x14,140(x2)
    4700:	02010da3          	sb	x0,59(x2)
    4704:	00100693          	addi	x13,x0,1
    4708:	00100893          	addi	x17,x0,1
    470c:	08c10913          	addi	x18,x2,140
    4710:	00000493          	addi	x9,x0,0
    4714:	00000f13          	addi	x30,x0,0
    4718:	04412603          	lw	x12,68(x2)
    471c:	084dff93          	andi	x31,x27,132
    4720:	04812783          	lw	x15,72(x2)
    4724:	00160593          	addi	x11,x12,1
    4728:	00058e13          	addi	x28,x11,0
    472c:	000f9663          	bne	x31,x0,4738 <_vfiprintf_r+0x224>
    4730:	40db8733          	sub	x14,x23,x13
    4734:	2ae04ae3          	blt	x0,x14,51e8 <_vfiprintf_r+0xcd4>
    4738:	03b14703          	lbu	x14,59(x2)
    473c:	02070a63          	beq	x14,x0,4770 <_vfiprintf_r+0x25c>
    4740:	03b10713          	addi	x14,x2,59
    4744:	00178793          	addi	x15,x15,1
    4748:	00e42023          	sw	x14,0(x8)
    474c:	00100713          	addi	x14,x0,1
    4750:	00e42223          	sw	x14,4(x8)
    4754:	04f12423          	sw	x15,72(x2)
    4758:	05c12223          	sw	x28,68(x2)
    475c:	00700713          	addi	x14,x0,7
    4760:	1bc748e3          	blt	x14,x28,5110 <_vfiprintf_r+0xbfc>
    4764:	000e0613          	addi	x12,x28,0
    4768:	00840413          	addi	x8,x8,8
    476c:	001e0e13          	addi	x28,x28,1
    4770:	060f0863          	beq	x30,x0,47e0 <_vfiprintf_r+0x2cc>
    4774:	03c10713          	addi	x14,x2,60
    4778:	00278793          	addi	x15,x15,2
    477c:	00e42023          	sw	x14,0(x8)
    4780:	00200713          	addi	x14,x0,2
    4784:	00e42223          	sw	x14,4(x8)
    4788:	04f12423          	sw	x15,72(x2)
    478c:	05c12223          	sw	x28,68(x2)
    4790:	00700713          	addi	x14,x0,7
    4794:	1fc756e3          	bge	x14,x28,5180 <_vfiprintf_r+0xc6c>
    4798:	40078ae3          	beq	x15,x0,53ac <_vfiprintf_r+0xe98>
    479c:	00412503          	lw	x10,4(x2)
    47a0:	04010613          	addi	x12,x2,64
    47a4:	000b0593          	addi	x11,x22,0
    47a8:	03012223          	sw	x16,36(x2)
    47ac:	00d12a23          	sw	x13,20(x2)
    47b0:	01112823          	sw	x17,16(x2)
    47b4:	01f12623          	sw	x31,12(x2)
    47b8:	c21ff0ef          	jal	x1,43d8 <__sprint_r.part.0>
    47bc:	1c051863          	bne	x10,x0,498c <_vfiprintf_r+0x478>
    47c0:	04412603          	lw	x12,68(x2)
    47c4:	04812783          	lw	x15,72(x2)
    47c8:	02412803          	lw	x16,36(x2)
    47cc:	01412683          	lw	x13,20(x2)
    47d0:	01012883          	lw	x17,16(x2)
    47d4:	00c12f83          	lw	x31,12(x2)
    47d8:	000a8413          	addi	x8,x21,0
    47dc:	00160e13          	addi	x28,x12,1
    47e0:	08000713          	addi	x14,x0,128
    47e4:	70ef8a63          	beq	x31,x14,4ef8 <_vfiprintf_r+0x9e4>
    47e8:	411484b3          	sub	x9,x9,x17
    47ec:	02904ae3          	blt	x0,x9,5020 <_vfiprintf_r+0xb0c>
    47f0:	00f887b3          	add	x15,x17,x15
    47f4:	01242023          	sw	x18,0(x8)
    47f8:	01142223          	sw	x17,4(x8)
    47fc:	04f12423          	sw	x15,72(x2)
    4800:	05c12223          	sw	x28,68(x2)
    4804:	00700713          	addi	x14,x0,7
    4808:	21c75063          	bge	x14,x28,4a08 <_vfiprintf_r+0x4f4>
    480c:	20078263          	beq	x15,x0,4a10 <_vfiprintf_r+0x4fc>
    4810:	00412503          	lw	x10,4(x2)
    4814:	04010613          	addi	x12,x2,64
    4818:	000b0593          	addi	x11,x22,0
    481c:	01012823          	sw	x16,16(x2)
    4820:	00d12623          	sw	x13,12(x2)
    4824:	bb5ff0ef          	jal	x1,43d8 <__sprint_r.part.0>
    4828:	16051263          	bne	x10,x0,498c <_vfiprintf_r+0x478>
    482c:	04812783          	lw	x15,72(x2)
    4830:	01012803          	lw	x16,16(x2)
    4834:	00c12683          	lw	x13,12(x2)
    4838:	000a8413          	addi	x8,x21,0
    483c:	004dfd93          	andi	x27,x27,4
    4840:	000d8663          	beq	x27,x0,484c <_vfiprintf_r+0x338>
    4844:	40db84b3          	sub	x9,x23,x13
    4848:	1e904063          	blt	x0,x9,4a28 <_vfiprintf_r+0x514>
    484c:	00dbd463          	bge	x23,x13,4854 <_vfiprintf_r+0x340>
    4850:	00068b93          	addi	x23,x13,0
    4854:	017c0c33          	add	x24,x24,x23
    4858:	10079c63          	bne	x15,x0,4970 <_vfiprintf_r+0x45c>
    485c:	0009c783          	lbu	x15,0(x19)
    4860:	04012223          	sw	x0,68(x2)
    4864:	000a8413          	addi	x8,x21,0
    4868:	da0792e3          	bne	x15,x0,460c <_vfiprintf_r+0xf8>
    486c:	04812783          	lw	x15,72(x2)
    4870:	000c0d93          	addi	x27,x24,0
    4874:	00412c03          	lw	x24,4(x2)
    4878:	10078c63          	beq	x15,x0,4990 <_vfiprintf_r+0x47c>
    487c:	04010613          	addi	x12,x2,64
    4880:	000b0593          	addi	x11,x22,0
    4884:	000c0513          	addi	x10,x24,0
    4888:	b51ff0ef          	jal	x1,43d8 <__sprint_r.part.0>
    488c:	1040006f          	jal	x0,4990 <_vfiprintf_r+0x47c>
    4890:	00082b83          	lw	x23,0(x16)
    4894:	00480813          	addi	x16,x16,4
    4898:	380bca63          	blt	x23,x0,4c2c <_vfiprintf_r+0x718>
    489c:	0009c703          	lbu	x14,0(x19)
    48a0:	e05ff06f          	jal	x0,46a4 <_vfiprintf_r+0x190>
    48a4:	0009c703          	lbu	x14,0(x19)
    48a8:	020ded93          	ori	x27,x27,32
    48ac:	df9ff06f          	jal	x0,46a4 <_vfiprintf_r+0x190>
    48b0:	010ded93          	ori	x27,x27,16
    48b4:	020df793          	andi	x15,x27,32
    48b8:	26078263          	beq	x15,x0,4b1c <_vfiprintf_r+0x608>
    48bc:	00780813          	addi	x16,x16,7
    48c0:	ff887813          	andi	x16,x16,-8
    48c4:	00482703          	lw	x14,4(x16)
    48c8:	00082783          	lw	x15,0(x16)
    48cc:	00880813          	addi	x16,x16,8
    48d0:	00070893          	addi	x17,x14,0
    48d4:	26074a63          	blt	x14,x0,4b48 <_vfiprintf_r+0x634>
    48d8:	2804c863          	blt	x9,x0,4b68 <_vfiprintf_r+0x654>
    48dc:	0117e733          	or	x14,x15,x17
    48e0:	f7fdfd93          	andi	x27,x27,-129
    48e4:	28071263          	bne	x14,x0,4b68 <_vfiprintf_r+0x654>
    48e8:	70049ee3          	bne	x9,x0,5804 <_vfiprintf_r+0x12f0>
    48ec:	03b14783          	lbu	x15,59(x2)
    48f0:	00000693          	addi	x13,x0,0
    48f4:	00000893          	addi	x17,x0,0
    48f8:	0f010913          	addi	x18,x2,240
    48fc:	00078463          	beq	x15,x0,4904 <_vfiprintf_r+0x3f0>
    4900:	00168693          	addi	x13,x13,1
    4904:	002dff13          	andi	x30,x27,2
    4908:	e00f08e3          	beq	x30,x0,4718 <_vfiprintf_r+0x204>
    490c:	00268693          	addi	x13,x13,2
    4910:	00200f13          	addi	x30,x0,2
    4914:	e05ff06f          	jal	x0,4718 <_vfiprintf_r+0x204>
    4918:	000b0593          	addi	x11,x22,0
    491c:	000c0513          	addi	x10,x24,0
    4920:	5c9010ef          	jal	x1,66e8 <__swsetup_r>
    4924:	700514e3          	bne	x10,x0,582c <_vfiprintf_r+0x1318>
    4928:	00cb1783          	lh	x15,12(x22)
    492c:	00a00713          	addi	x14,x0,10
    4930:	01a7f793          	andi	x15,x15,26
    4934:	c6e796e3          	bne	x15,x14,45a0 <_vfiprintf_r+0x8c>
    4938:	00eb1783          	lh	x15,14(x22)
    493c:	c607c2e3          	blt	x15,x0,45a0 <_vfiprintf_r+0x8c>
    4940:	12c12083          	lw	x1,300(x2)
    4944:	0fc12d83          	lw	x27,252(x2)
    4948:	000b8693          	addi	x13,x23,0
    494c:	00098613          	addi	x12,x19,0
    4950:	10c12b83          	lw	x23,268(x2)
    4954:	11c12983          	lw	x19,284(x2)
    4958:	000b0593          	addi	x11,x22,0
    495c:	000c0513          	addi	x10,x24,0
    4960:	11012b03          	lw	x22,272(x2)
    4964:	10812c03          	lw	x24,264(x2)
    4968:	13010113          	addi	x2,x2,304
    496c:	7090006f          	jal	x0,5874 <__sbprintf>
    4970:	00412503          	lw	x10,4(x2)
    4974:	04010613          	addi	x12,x2,64
    4978:	000b0593          	addi	x11,x22,0
    497c:	01012623          	sw	x16,12(x2)
    4980:	a59ff0ef          	jal	x1,43d8 <__sprint_r.part.0>
    4984:	00c12803          	lw	x16,12(x2)
    4988:	ec050ae3          	beq	x10,x0,485c <_vfiprintf_r+0x348>
    498c:	000c0d93          	addi	x27,x24,0
    4990:	00cb5783          	lhu	x15,12(x22)
    4994:	12812403          	lw	x8,296(x2)
    4998:	12412483          	lw	x9,292(x2)
    499c:	0407f793          	andi	x15,x15,64
    49a0:	12012903          	lw	x18,288(x2)
    49a4:	11812a03          	lw	x20,280(x2)
    49a8:	11412a83          	lw	x21,276(x2)
    49ac:	10412c83          	lw	x25,260(x2)
    49b0:	10012d03          	lw	x26,256(x2)
    49b4:	66079ce3          	bne	x15,x0,582c <_vfiprintf_r+0x1318>
    49b8:	12c12083          	lw	x1,300(x2)
    49bc:	11c12983          	lw	x19,284(x2)
    49c0:	11012b03          	lw	x22,272(x2)
    49c4:	10c12b83          	lw	x23,268(x2)
    49c8:	10812c03          	lw	x24,264(x2)
    49cc:	000d8513          	addi	x10,x27,0
    49d0:	0fc12d83          	lw	x27,252(x2)
    49d4:	13010113          	addi	x2,x2,304
    49d8:	00008067          	jalr	x0,0(x1)
    49dc:	41348933          	sub	x18,x9,x19
    49e0:	c53496e3          	bne	x9,x19,462c <_vfiprintf_r+0x118>
    49e4:	0004c783          	lbu	x15,0(x9)
    49e8:	c9dff06f          	jal	x0,4684 <_vfiprintf_r+0x170>
    49ec:	00100713          	addi	x14,x0,1
    49f0:	00088793          	addi	x15,x17,0
    49f4:	05212623          	sw	x18,76(x2)
    49f8:	05112823          	sw	x17,80(x2)
    49fc:	05112423          	sw	x17,72(x2)
    4a00:	04e12223          	sw	x14,68(x2)
    4a04:	000a8413          	addi	x8,x21,0
    4a08:	00840413          	addi	x8,x8,8
    4a0c:	e31ff06f          	jal	x0,483c <_vfiprintf_r+0x328>
    4a10:	04012223          	sw	x0,68(x2)
    4a14:	004dfd93          	andi	x27,x27,4
    4a18:	0c0d8ce3          	beq	x27,x0,52f0 <_vfiprintf_r+0xddc>
    4a1c:	40db84b3          	sub	x9,x23,x13
    4a20:	0c9058e3          	bge	x0,x9,52f0 <_vfiprintf_r+0xddc>
    4a24:	000a8413          	addi	x8,x21,0
    4a28:	01000713          	addi	x14,x0,16
    4a2c:	04412603          	lw	x12,68(x2)
    4a30:	5e9756e3          	bge	x14,x9,581c <_vfiprintf_r+0x1308>
    4a34:	0000de17          	auipc	x28,0xd
    4a38:	6d8e0e13          	addi	x28,x28,1752 # 1210c <blanks.1>
    4a3c:	00d12623          	sw	x13,12(x2)
    4a40:	01000913          	addi	x18,x0,16
    4a44:	00040693          	addi	x13,x8,0
    4a48:	00700d93          	addi	x27,x0,7
    4a4c:	00048413          	addi	x8,x9,0
    4a50:	01012823          	sw	x16,16(x2)
    4a54:	000e0493          	addi	x9,x28,0
    4a58:	0180006f          	jal	x0,4a70 <_vfiprintf_r+0x55c>
    4a5c:	00260593          	addi	x11,x12,2
    4a60:	00868693          	addi	x13,x13,8
    4a64:	00070613          	addi	x12,x14,0
    4a68:	ff040413          	addi	x8,x8,-16
    4a6c:	04895863          	bge	x18,x8,4abc <_vfiprintf_r+0x5a8>
    4a70:	01078793          	addi	x15,x15,16
    4a74:	00160713          	addi	x14,x12,1
    4a78:	0096a023          	sw	x9,0(x13)
    4a7c:	0126a223          	sw	x18,4(x13)
    4a80:	04f12423          	sw	x15,72(x2)
    4a84:	04e12223          	sw	x14,68(x2)
    4a88:	fceddae3          	bge	x27,x14,4a5c <_vfiprintf_r+0x548>
    4a8c:	44078e63          	beq	x15,x0,4ee8 <_vfiprintf_r+0x9d4>
    4a90:	00412503          	lw	x10,4(x2)
    4a94:	04010613          	addi	x12,x2,64
    4a98:	000b0593          	addi	x11,x22,0
    4a9c:	93dff0ef          	jal	x1,43d8 <__sprint_r.part.0>
    4aa0:	ee0516e3          	bne	x10,x0,498c <_vfiprintf_r+0x478>
    4aa4:	04412603          	lw	x12,68(x2)
    4aa8:	ff040413          	addi	x8,x8,-16
    4aac:	04812783          	lw	x15,72(x2)
    4ab0:	000a8693          	addi	x13,x21,0
    4ab4:	00160593          	addi	x11,x12,1
    4ab8:	fa894ce3          	blt	x18,x8,4a70 <_vfiprintf_r+0x55c>
    4abc:	00048e13          	addi	x28,x9,0
    4ac0:	01012803          	lw	x16,16(x2)
    4ac4:	00040493          	addi	x9,x8,0
    4ac8:	00068413          	addi	x8,x13,0
    4acc:	00c12683          	lw	x13,12(x2)
    4ad0:	009787b3          	add	x15,x15,x9
    4ad4:	01c42023          	sw	x28,0(x8)
    4ad8:	00942223          	sw	x9,4(x8)
    4adc:	04f12423          	sw	x15,72(x2)
    4ae0:	04b12223          	sw	x11,68(x2)
    4ae4:	00700713          	addi	x14,x0,7
    4ae8:	d6b752e3          	bge	x14,x11,484c <_vfiprintf_r+0x338>
    4aec:	000782e3          	beq	x15,x0,52f0 <_vfiprintf_r+0xddc>
    4af0:	00412503          	lw	x10,4(x2)
    4af4:	04010613          	addi	x12,x2,64
    4af8:	000b0593          	addi	x11,x22,0
    4afc:	01012823          	sw	x16,16(x2)
    4b00:	00d12623          	sw	x13,12(x2)
    4b04:	8d5ff0ef          	jal	x1,43d8 <__sprint_r.part.0>
    4b08:	e80512e3          	bne	x10,x0,498c <_vfiprintf_r+0x478>
    4b0c:	04812783          	lw	x15,72(x2)
    4b10:	01012803          	lw	x16,16(x2)
    4b14:	00c12683          	lw	x13,12(x2)
    4b18:	d35ff06f          	jal	x0,484c <_vfiprintf_r+0x338>
    4b1c:	010df713          	andi	x14,x27,16
    4b20:	00082783          	lw	x15,0(x16)
    4b24:	00480813          	addi	x16,x16,4
    4b28:	0e071c63          	bne	x14,x0,4c20 <_vfiprintf_r+0x70c>
    4b2c:	040df713          	andi	x14,x27,64
    4b30:	0e070463          	beq	x14,x0,4c18 <_vfiprintf_r+0x704>
    4b34:	01079793          	slli	x15,x15,0x10
    4b38:	4107d793          	srai	x15,x15,0x10
    4b3c:	41f7d893          	srai	x17,x15,0x1f
    4b40:	00088713          	addi	x14,x17,0
    4b44:	d8075ae3          	bge	x14,x0,48d8 <_vfiprintf_r+0x3c4>
    4b48:	02d00693          	addi	x13,x0,45
    4b4c:	00f03733          	sltu	x14,x0,x15
    4b50:	411008b3          	sub	x17,x0,x17
    4b54:	02d10da3          	sb	x13,59(x2)
    4b58:	40e888b3          	sub	x17,x17,x14
    4b5c:	40f007b3          	sub	x15,x0,x15
    4b60:	0004c463          	blt	x9,x0,4b68 <_vfiprintf_r+0x654>
    4b64:	f7fdfd93          	andi	x27,x27,-129
    4b68:	0a0894e3          	bne	x17,x0,5410 <_vfiprintf_r+0xefc>
    4b6c:	00900713          	addi	x14,x0,9
    4b70:	0af760e3          	bltu	x14,x15,5410 <_vfiprintf_r+0xefc>
    4b74:	03078793          	addi	x15,x15,48
    4b78:	0ff7f793          	andi	x15,x15,255
    4b7c:	0ef107a3          	sb	x15,239(x2)
    4b80:	00048693          	addi	x13,x9,0
    4b84:	00904463          	blt	x0,x9,4b8c <_vfiprintf_r+0x678>
    4b88:	00100693          	addi	x13,x0,1
    4b8c:	00100893          	addi	x17,x0,1
    4b90:	0ef10913          	addi	x18,x2,239
    4b94:	03b14783          	lbu	x15,59(x2)
    4b98:	d60794e3          	bne	x15,x0,4900 <_vfiprintf_r+0x3ec>
    4b9c:	d69ff06f          	jal	x0,4904 <_vfiprintf_r+0x3f0>
    4ba0:	00082903          	lw	x18,0(x16)
    4ba4:	02010da3          	sb	x0,59(x2)
    4ba8:	00480813          	addi	x16,x16,4
    4bac:	3a0906e3          	beq	x18,x0,5758 <_vfiprintf_r+0x1244>
    4bb0:	01012623          	sw	x16,12(x2)
    4bb4:	2404c8e3          	blt	x9,x0,5604 <_vfiprintf_r+0x10f0>
    4bb8:	00048613          	addi	x12,x9,0
    4bbc:	00000593          	addi	x11,x0,0
    4bc0:	00090513          	addi	x10,x18,0
    4bc4:	5e4010ef          	jal	x1,61a8 <memchr>
    4bc8:	00c12803          	lw	x16,12(x2)
    4bcc:	00048893          	addi	x17,x9,0
    4bd0:	00050463          	beq	x10,x0,4bd8 <_vfiprintf_r+0x6c4>
    4bd4:	412508b3          	sub	x17,x10,x18
    4bd8:	03b14783          	lbu	x15,59(x2)
    4bdc:	fff8c693          	xori	x13,x17,-1
    4be0:	41f6d693          	srai	x13,x13,0x1f
    4be4:	00d8f6b3          	and	x13,x17,x13
    4be8:	00000493          	addi	x9,x0,0
    4bec:	00000f13          	addi	x30,x0,0
    4bf0:	d00798e3          	bne	x15,x0,4900 <_vfiprintf_r+0x3ec>
    4bf4:	b25ff06f          	jal	x0,4718 <_vfiprintf_r+0x204>
    4bf8:	00082783          	lw	x15,0(x16)
    4bfc:	02010da3          	sb	x0,59(x2)
    4c00:	00480813          	addi	x16,x16,4
    4c04:	08f10623          	sb	x15,140(x2)
    4c08:	00100693          	addi	x13,x0,1
    4c0c:	00100893          	addi	x17,x0,1
    4c10:	08c10913          	addi	x18,x2,140
    4c14:	afdff06f          	jal	x0,4710 <_vfiprintf_r+0x1fc>
    4c18:	200df713          	andi	x14,x27,512
    4c1c:	3a071ee3          	bne	x14,x0,57d8 <_vfiprintf_r+0x12c4>
    4c20:	41f7d893          	srai	x17,x15,0x1f
    4c24:	00088713          	addi	x14,x17,0
    4c28:	cadff06f          	jal	x0,48d4 <_vfiprintf_r+0x3c0>
    4c2c:	41700bb3          	sub	x23,x0,x23
    4c30:	0009c703          	lbu	x14,0(x19)
    4c34:	004ded93          	ori	x27,x27,4
    4c38:	a6dff06f          	jal	x0,46a4 <_vfiprintf_r+0x190>
    4c3c:	02b00793          	addi	x15,x0,43
    4c40:	0009c703          	lbu	x14,0(x19)
    4c44:	02f10da3          	sb	x15,59(x2)
    4c48:	a5dff06f          	jal	x0,46a4 <_vfiprintf_r+0x190>
    4c4c:	0009c703          	lbu	x14,0(x19)
    4c50:	080ded93          	ori	x27,x27,128
    4c54:	a51ff06f          	jal	x0,46a4 <_vfiprintf_r+0x190>
    4c58:	0009c703          	lbu	x14,0(x19)
    4c5c:	02a00793          	addi	x15,x0,42
    4c60:	00198613          	addi	x12,x19,1
    4c64:	3ef700e3          	beq	x14,x15,5844 <_vfiprintf_r+0x1330>
    4c68:	fd070793          	addi	x15,x14,-48
    4c6c:	00900693          	addi	x13,x0,9
    4c70:	00000493          	addi	x9,x0,0
    4c74:	00900593          	addi	x11,x0,9
    4c78:	02f6e463          	bltu	x13,x15,4ca0 <_vfiprintf_r+0x78c>
    4c7c:	00064703          	lbu	x14,0(x12)
    4c80:	00249693          	slli	x13,x9,0x2
    4c84:	009684b3          	add	x9,x13,x9
    4c88:	00149493          	slli	x9,x9,0x1
    4c8c:	00f484b3          	add	x9,x9,x15
    4c90:	fd070793          	addi	x15,x14,-48
    4c94:	00160613          	addi	x12,x12,1
    4c98:	fef5f2e3          	bgeu	x11,x15,4c7c <_vfiprintf_r+0x768>
    4c9c:	0c04c0e3          	blt	x9,x0,555c <_vfiprintf_r+0x1048>
    4ca0:	00060993          	addi	x19,x12,0
    4ca4:	a05ff06f          	jal	x0,46a8 <_vfiprintf_r+0x194>
    4ca8:	00412503          	lw	x10,4(x2)
    4cac:	01012623          	sw	x16,12(x2)
    4cb0:	5c8010ef          	jal	x1,6278 <_localeconv_r>
    4cb4:	00452783          	lw	x15,4(x10)
    4cb8:	00078513          	addi	x10,x15,0
    4cbc:	02f12023          	sw	x15,32(x2)
    4cc0:	19d010ef          	jal	x1,665c <strlen>
    4cc4:	00050793          	addi	x15,x10,0
    4cc8:	00412503          	lw	x10,4(x2)
    4ccc:	00f12c23          	sw	x15,24(x2)
    4cd0:	5a8010ef          	jal	x1,6278 <_localeconv_r>
    4cd4:	00852683          	lw	x13,8(x10)
    4cd8:	01812783          	lw	x15,24(x2)
    4cdc:	0009c703          	lbu	x14,0(x19)
    4ce0:	00d12e23          	sw	x13,28(x2)
    4ce4:	00c12803          	lw	x16,12(x2)
    4ce8:	9a078ee3          	beq	x15,x0,46a4 <_vfiprintf_r+0x190>
    4cec:	9a068ce3          	beq	x13,x0,46a4 <_vfiprintf_r+0x190>
    4cf0:	0006c783          	lbu	x15,0(x13)
    4cf4:	9a0788e3          	beq	x15,x0,46a4 <_vfiprintf_r+0x190>
    4cf8:	400ded93          	ori	x27,x27,1024
    4cfc:	9a9ff06f          	jal	x0,46a4 <_vfiprintf_r+0x190>
    4d00:	0009c703          	lbu	x14,0(x19)
    4d04:	001ded93          	ori	x27,x27,1
    4d08:	99dff06f          	jal	x0,46a4 <_vfiprintf_r+0x190>
    4d0c:	03b14783          	lbu	x15,59(x2)
    4d10:	0009c703          	lbu	x14,0(x19)
    4d14:	980798e3          	bne	x15,x0,46a4 <_vfiprintf_r+0x190>
    4d18:	02000793          	addi	x15,x0,32
    4d1c:	02f10da3          	sb	x15,59(x2)
    4d20:	985ff06f          	jal	x0,46a4 <_vfiprintf_r+0x190>
    4d24:	010de713          	ori	x14,x27,16
    4d28:	02077793          	andi	x15,x14,32
    4d2c:	64078463          	beq	x15,x0,5374 <_vfiprintf_r+0xe60>
    4d30:	00780813          	addi	x16,x16,7
    4d34:	ff887813          	andi	x16,x16,-8
    4d38:	00082783          	lw	x15,0(x16)
    4d3c:	00482603          	lw	x12,4(x16)
    4d40:	00880813          	addi	x16,x16,8
    4d44:	02010da3          	sb	x0,59(x2)
    4d48:	bff77d93          	andi	x27,x14,-1025
    4d4c:	0a04c663          	blt	x9,x0,4df8 <_vfiprintf_r+0x8e4>
    4d50:	00c7e6b3          	or	x13,x15,x12
    4d54:	b7f77713          	andi	x14,x14,-1153
    4d58:	1a069ce3          	bne	x13,x0,5710 <_vfiprintf_r+0x11fc>
    4d5c:	000d8693          	addi	x13,x27,0
    4d60:	00000793          	addi	x15,x0,0
    4d64:	00070d93          	addi	x27,x14,0
    4d68:	06049c63          	bne	x9,x0,4de0 <_vfiprintf_r+0x8cc>
    4d6c:	b80790e3          	bne	x15,x0,48ec <_vfiprintf_r+0x3d8>
    4d70:	0016f893          	andi	x17,x13,1
    4d74:	78088c63          	beq	x17,x0,550c <_vfiprintf_r+0xff8>
    4d78:	03000793          	addi	x15,x0,48
    4d7c:	0ef107a3          	sb	x15,239(x2)
    4d80:	00088693          	addi	x13,x17,0
    4d84:	0ef10913          	addi	x18,x2,239
    4d88:	e0dff06f          	jal	x0,4b94 <_vfiprintf_r+0x680>
    4d8c:	0009c703          	lbu	x14,0(x19)
    4d90:	06c00793          	addi	x15,x0,108
    4d94:	1af702e3          	beq	x14,x15,5738 <_vfiprintf_r+0x1224>
    4d98:	010ded93          	ori	x27,x27,16
    4d9c:	909ff06f          	jal	x0,46a4 <_vfiprintf_r+0x190>
    4da0:	010de693          	ori	x13,x27,16
    4da4:	0206f793          	andi	x15,x13,32
    4da8:	5a078263          	beq	x15,x0,534c <_vfiprintf_r+0xe38>
    4dac:	00780813          	addi	x16,x16,7
    4db0:	ff887813          	andi	x16,x16,-8
    4db4:	00082783          	lw	x15,0(x16)
    4db8:	00482883          	lw	x17,4(x16)
    4dbc:	00880813          	addi	x16,x16,8
    4dc0:	02010da3          	sb	x0,59(x2)
    4dc4:	00068d93          	addi	x27,x13,0
    4dc8:	da04c0e3          	blt	x9,x0,4b68 <_vfiprintf_r+0x654>
    4dcc:	0117e733          	or	x14,x15,x17
    4dd0:	f7f6fd93          	andi	x27,x13,-129
    4dd4:	d8071ae3          	bne	x14,x0,4b68 <_vfiprintf_r+0x654>
    4dd8:	00100793          	addi	x15,x0,1
    4ddc:	f80488e3          	beq	x9,x0,4d6c <_vfiprintf_r+0x858>
    4de0:	00100713          	addi	x14,x0,1
    4de4:	22e780e3          	beq	x15,x14,5804 <_vfiprintf_r+0x12f0>
    4de8:	00200713          	addi	x14,x0,2
    4dec:	1ae784e3          	beq	x15,x14,5794 <_vfiprintf_r+0x1280>
    4df0:	00000793          	addi	x15,x0,0
    4df4:	00000613          	addi	x12,x0,0
    4df8:	0f010913          	addi	x18,x2,240
    4dfc:	01d61693          	slli	x13,x12,0x1d
    4e00:	0077f713          	andi	x14,x15,7
    4e04:	0037d793          	srli	x15,x15,0x3
    4e08:	03070713          	addi	x14,x14,48
    4e0c:	00f6e7b3          	or	x15,x13,x15
    4e10:	00365613          	srli	x12,x12,0x3
    4e14:	fee90fa3          	sb	x14,-1(x18)
    4e18:	00c7e6b3          	or	x13,x15,x12
    4e1c:	00090593          	addi	x11,x18,0
    4e20:	fff90913          	addi	x18,x18,-1
    4e24:	fc069ce3          	bne	x13,x0,4dfc <_vfiprintf_r+0x8e8>
    4e28:	001df793          	andi	x15,x27,1
    4e2c:	3a078263          	beq	x15,x0,51d0 <_vfiprintf_r+0xcbc>
    4e30:	03000793          	addi	x15,x0,48
    4e34:	38f70e63          	beq	x14,x15,51d0 <_vfiprintf_r+0xcbc>
    4e38:	ffe58593          	addi	x11,x11,-2
    4e3c:	fef90fa3          	sb	x15,-1(x18)
    4e40:	0f010793          	addi	x15,x2,240
    4e44:	40b788b3          	sub	x17,x15,x11
    4e48:	00048693          	addi	x13,x9,0
    4e4c:	7114c263          	blt	x9,x17,5550 <_vfiprintf_r+0x103c>
    4e50:	00058913          	addi	x18,x11,0
    4e54:	d41ff06f          	jal	x0,4b94 <_vfiprintf_r+0x680>
    4e58:	0009c703          	lbu	x14,0(x19)
    4e5c:	06800793          	addi	x15,x0,104
    4e60:	0cf704e3          	beq	x14,x15,5728 <_vfiprintf_r+0x1214>
    4e64:	040ded93          	ori	x27,x27,64
    4e68:	83dff06f          	jal	x0,46a4 <_vfiprintf_r+0x190>
    4e6c:	00008737          	lui	x14,0x8
    4e70:	83070713          	addi	x14,x14,-2000 # 7830 <_read_r+0x44>
    4e74:	02e11e23          	sh	x14,60(x2)
    4e78:	0000d717          	auipc	x14,0xd
    4e7c:	c3c70713          	addi	x14,x14,-964 # 11ab4 <__clzsi2+0x338>
    4e80:	00082783          	lw	x15,0(x16)
    4e84:	00000613          	addi	x12,x0,0
    4e88:	002ded93          	ori	x27,x27,2
    4e8c:	00480813          	addi	x16,x16,4
    4e90:	00e12423          	sw	x14,8(x2)
    4e94:	02010da3          	sb	x0,59(x2)
    4e98:	3004c263          	blt	x9,x0,519c <_vfiprintf_r+0xc88>
    4e9c:	00c7e733          	or	x14,x15,x12
    4ea0:	f7fdf593          	andi	x11,x27,-129
    4ea4:	2e071663          	bne	x14,x0,5190 <_vfiprintf_r+0xc7c>
    4ea8:	000d8693          	addi	x13,x27,0
    4eac:	00200793          	addi	x15,x0,2
    4eb0:	00058d93          	addi	x27,x11,0
    4eb4:	eb5ff06f          	jal	x0,4d68 <_vfiprintf_r+0x854>
    4eb8:	020df793          	andi	x15,x27,32
    4ebc:	66079663          	bne	x15,x0,5528 <_vfiprintf_r+0x1014>
    4ec0:	010df793          	andi	x15,x27,16
    4ec4:	080792e3          	bne	x15,x0,5748 <_vfiprintf_r+0x1234>
    4ec8:	040df793          	andi	x15,x27,64
    4ecc:	0e079ee3          	bne	x15,x0,57c8 <_vfiprintf_r+0x12b4>
    4ed0:	200dfd93          	andi	x27,x27,512
    4ed4:	060d8ae3          	beq	x27,x0,5748 <_vfiprintf_r+0x1234>
    4ed8:	00082783          	lw	x15,0(x16)
    4edc:	00480813          	addi	x16,x16,4
    4ee0:	01878023          	sb	x24,0(x15)
    4ee4:	f20ff06f          	jal	x0,4604 <_vfiprintf_r+0xf0>
    4ee8:	00100593          	addi	x11,x0,1
    4eec:	00000613          	addi	x12,x0,0
    4ef0:	000a8693          	addi	x13,x21,0
    4ef4:	b75ff06f          	jal	x0,4a68 <_vfiprintf_r+0x554>
    4ef8:	40db8f33          	sub	x30,x23,x13
    4efc:	8fe056e3          	bge	x0,x30,47e8 <_vfiprintf_r+0x2d4>
    4f00:	01000713          	addi	x14,x0,16
    4f04:	13e758e3          	bge	x14,x30,5834 <_vfiprintf_r+0x1320>
    4f08:	0000de97          	auipc	x29,0xd
    4f0c:	214e8e93          	addi	x29,x29,532 # 1211c <zeroes.0>
    4f10:	00912823          	sw	x9,16(x2)
    4f14:	00d12a23          	sw	x13,20(x2)
    4f18:	01000e13          	addi	x28,x0,16
    4f1c:	00040693          	addi	x13,x8,0
    4f20:	00700f93          	addi	x31,x0,7
    4f24:	01112623          	sw	x17,12(x2)
    4f28:	000f0413          	addi	x8,x30,0
    4f2c:	03012223          	sw	x16,36(x2)
    4f30:	000e8493          	addi	x9,x29,0
    4f34:	0180006f          	jal	x0,4f4c <_vfiprintf_r+0xa38>
    4f38:	00260593          	addi	x11,x12,2
    4f3c:	00868693          	addi	x13,x13,8
    4f40:	00070613          	addi	x12,x14,0
    4f44:	ff040413          	addi	x8,x8,-16
    4f48:	048e5c63          	bge	x28,x8,4fa0 <_vfiprintf_r+0xa8c>
    4f4c:	01078793          	addi	x15,x15,16
    4f50:	00160713          	addi	x14,x12,1
    4f54:	0096a023          	sw	x9,0(x13)
    4f58:	01c6a223          	sw	x28,4(x13)
    4f5c:	04f12423          	sw	x15,72(x2)
    4f60:	04e12223          	sw	x14,68(x2)
    4f64:	fcefdae3          	bge	x31,x14,4f38 <_vfiprintf_r+0xa24>
    4f68:	18078c63          	beq	x15,x0,5100 <_vfiprintf_r+0xbec>
    4f6c:	00412503          	lw	x10,4(x2)
    4f70:	04010613          	addi	x12,x2,64
    4f74:	000b0593          	addi	x11,x22,0
    4f78:	c60ff0ef          	jal	x1,43d8 <__sprint_r.part.0>
    4f7c:	a00518e3          	bne	x10,x0,498c <_vfiprintf_r+0x478>
    4f80:	04412603          	lw	x12,68(x2)
    4f84:	01000e13          	addi	x28,x0,16
    4f88:	ff040413          	addi	x8,x8,-16
    4f8c:	04812783          	lw	x15,72(x2)
    4f90:	000a8693          	addi	x13,x21,0
    4f94:	00160593          	addi	x11,x12,1
    4f98:	00700f93          	addi	x31,x0,7
    4f9c:	fa8e48e3          	blt	x28,x8,4f4c <_vfiprintf_r+0xa38>
    4fa0:	00040f13          	addi	x30,x8,0
    4fa4:	00048e93          	addi	x29,x9,0
    4fa8:	00068413          	addi	x8,x13,0
    4fac:	00c12883          	lw	x17,12(x2)
    4fb0:	01412683          	lw	x13,20(x2)
    4fb4:	02412803          	lw	x16,36(x2)
    4fb8:	01012483          	lw	x9,16(x2)
    4fbc:	01e787b3          	add	x15,x15,x30
    4fc0:	01d42023          	sw	x29,0(x8)
    4fc4:	01e42223          	sw	x30,4(x8)
    4fc8:	04f12423          	sw	x15,72(x2)
    4fcc:	04b12223          	sw	x11,68(x2)
    4fd0:	00700713          	addi	x14,x0,7
    4fd4:	54b75263          	bge	x14,x11,5518 <_vfiprintf_r+0x1004>
    4fd8:	7c078463          	beq	x15,x0,57a0 <_vfiprintf_r+0x128c>
    4fdc:	00412503          	lw	x10,4(x2)
    4fe0:	04010613          	addi	x12,x2,64
    4fe4:	000b0593          	addi	x11,x22,0
    4fe8:	01012a23          	sw	x16,20(x2)
    4fec:	00d12823          	sw	x13,16(x2)
    4ff0:	01112623          	sw	x17,12(x2)
    4ff4:	be4ff0ef          	jal	x1,43d8 <__sprint_r.part.0>
    4ff8:	98051ae3          	bne	x10,x0,498c <_vfiprintf_r+0x478>
    4ffc:	00c12883          	lw	x17,12(x2)
    5000:	04412603          	lw	x12,68(x2)
    5004:	04812783          	lw	x15,72(x2)
    5008:	411484b3          	sub	x9,x9,x17
    500c:	01412803          	lw	x16,20(x2)
    5010:	01012683          	lw	x13,16(x2)
    5014:	000a8413          	addi	x8,x21,0
    5018:	00160e13          	addi	x28,x12,1
    501c:	fc905a63          	bge	x0,x9,47f0 <_vfiprintf_r+0x2dc>
    5020:	0000de97          	auipc	x29,0xd
    5024:	0fce8e93          	addi	x29,x29,252 # 1211c <zeroes.0>
    5028:	0a9a5063          	bge	x20,x9,50c8 <_vfiprintf_r+0xbb4>
    502c:	00d12823          	sw	x13,16(x2)
    5030:	00700f13          	addi	x30,x0,7
    5034:	00040693          	addi	x13,x8,0
    5038:	01112623          	sw	x17,12(x2)
    503c:	00048413          	addi	x8,x9,0
    5040:	01012a23          	sw	x16,20(x2)
    5044:	000c8493          	addi	x9,x25,0
    5048:	0180006f          	jal	x0,5060 <_vfiprintf_r+0xb4c>
    504c:	00260e13          	addi	x28,x12,2
    5050:	00868693          	addi	x13,x13,8
    5054:	00070613          	addi	x12,x14,0
    5058:	ff040413          	addi	x8,x8,-16
    505c:	048a5a63          	bge	x20,x8,50b0 <_vfiprintf_r+0xb9c>
    5060:	01078793          	addi	x15,x15,16
    5064:	00160713          	addi	x14,x12,1
    5068:	0196a023          	sw	x25,0(x13)
    506c:	0146a223          	sw	x20,4(x13)
    5070:	04f12423          	sw	x15,72(x2)
    5074:	04e12223          	sw	x14,68(x2)
    5078:	fcef5ae3          	bge	x30,x14,504c <_vfiprintf_r+0xb38>
    507c:	06078a63          	beq	x15,x0,50f0 <_vfiprintf_r+0xbdc>
    5080:	00412503          	lw	x10,4(x2)
    5084:	04010613          	addi	x12,x2,64
    5088:	000b0593          	addi	x11,x22,0
    508c:	b4cff0ef          	jal	x1,43d8 <__sprint_r.part.0>
    5090:	8e051ee3          	bne	x10,x0,498c <_vfiprintf_r+0x478>
    5094:	04412603          	lw	x12,68(x2)
    5098:	ff040413          	addi	x8,x8,-16
    509c:	04812783          	lw	x15,72(x2)
    50a0:	000a8693          	addi	x13,x21,0
    50a4:	00160e13          	addi	x28,x12,1
    50a8:	00700f13          	addi	x30,x0,7
    50ac:	fa8a4ae3          	blt	x20,x8,5060 <_vfiprintf_r+0xb4c>
    50b0:	00048e93          	addi	x29,x9,0
    50b4:	00c12883          	lw	x17,12(x2)
    50b8:	00040493          	addi	x9,x8,0
    50bc:	01412803          	lw	x16,20(x2)
    50c0:	00068413          	addi	x8,x13,0
    50c4:	01012683          	lw	x13,16(x2)
    50c8:	009787b3          	add	x15,x15,x9
    50cc:	01d42023          	sw	x29,0(x8)
    50d0:	00942223          	sw	x9,4(x8)
    50d4:	04f12423          	sw	x15,72(x2)
    50d8:	05c12223          	sw	x28,68(x2)
    50dc:	00700713          	addi	x14,x0,7
    50e0:	23c74063          	blt	x14,x28,5300 <_vfiprintf_r+0xdec>
    50e4:	00840413          	addi	x8,x8,8
    50e8:	001e0e13          	addi	x28,x28,1
    50ec:	f04ff06f          	jal	x0,47f0 <_vfiprintf_r+0x2dc>
    50f0:	00100e13          	addi	x28,x0,1
    50f4:	00000613          	addi	x12,x0,0
    50f8:	000a8693          	addi	x13,x21,0
    50fc:	f5dff06f          	jal	x0,5058 <_vfiprintf_r+0xb44>
    5100:	00100593          	addi	x11,x0,1
    5104:	00000613          	addi	x12,x0,0
    5108:	000a8693          	addi	x13,x21,0
    510c:	e39ff06f          	jal	x0,4f44 <_vfiprintf_r+0xa30>
    5110:	04078a63          	beq	x15,x0,5164 <_vfiprintf_r+0xc50>
    5114:	00412503          	lw	x10,4(x2)
    5118:	04010613          	addi	x12,x2,64
    511c:	000b0593          	addi	x11,x22,0
    5120:	03012423          	sw	x16,40(x2)
    5124:	02d12223          	sw	x13,36(x2)
    5128:	01112a23          	sw	x17,20(x2)
    512c:	01f12823          	sw	x31,16(x2)
    5130:	01e12623          	sw	x30,12(x2)
    5134:	aa4ff0ef          	jal	x1,43d8 <__sprint_r.part.0>
    5138:	84051ae3          	bne	x10,x0,498c <_vfiprintf_r+0x478>
    513c:	04412603          	lw	x12,68(x2)
    5140:	04812783          	lw	x15,72(x2)
    5144:	02812803          	lw	x16,40(x2)
    5148:	02412683          	lw	x13,36(x2)
    514c:	01412883          	lw	x17,20(x2)
    5150:	01012f83          	lw	x31,16(x2)
    5154:	00c12f03          	lw	x30,12(x2)
    5158:	000a8413          	addi	x8,x21,0
    515c:	00160e13          	addi	x28,x12,1
    5160:	e10ff06f          	jal	x0,4770 <_vfiprintf_r+0x25c>
    5164:	3c0f0e63          	beq	x30,x0,5540 <_vfiprintf_r+0x102c>
    5168:	03c10793          	addi	x15,x2,60
    516c:	04f12623          	sw	x15,76(x2)
    5170:	00200793          	addi	x15,x0,2
    5174:	04f12823          	sw	x15,80(x2)
    5178:	00100e13          	addi	x28,x0,1
    517c:	000a8413          	addi	x8,x21,0
    5180:	000e0613          	addi	x12,x28,0
    5184:	00840413          	addi	x8,x8,8
    5188:	001e0e13          	addi	x28,x28,1
    518c:	e54ff06f          	jal	x0,47e0 <_vfiprintf_r+0x2cc>
    5190:	00200713          	addi	x14,x0,2
    5194:	00058d93          	addi	x27,x11,0
    5198:	c60700e3          	beq	x14,x0,4df8 <_vfiprintf_r+0x8e4>
    519c:	00812583          	lw	x11,8(x2)
    51a0:	0f010913          	addi	x18,x2,240
    51a4:	00f7f713          	andi	x14,x15,15
    51a8:	00e58733          	add	x14,x11,x14
    51ac:	00074683          	lbu	x13,0(x14)
    51b0:	0047d793          	srli	x15,x15,0x4
    51b4:	01c61713          	slli	x14,x12,0x1c
    51b8:	00f767b3          	or	x15,x14,x15
    51bc:	00465613          	srli	x12,x12,0x4
    51c0:	fed90fa3          	sb	x13,-1(x18)
    51c4:	00c7e733          	or	x14,x15,x12
    51c8:	fff90913          	addi	x18,x18,-1
    51cc:	fc071ce3          	bne	x14,x0,51a4 <_vfiprintf_r+0xc90>
    51d0:	0f010793          	addi	x15,x2,240
    51d4:	412788b3          	sub	x17,x15,x18
    51d8:	00048693          	addi	x13,x9,0
    51dc:	9b14dce3          	bge	x9,x17,4b94 <_vfiprintf_r+0x680>
    51e0:	00088693          	addi	x13,x17,0
    51e4:	9b1ff06f          	jal	x0,4b94 <_vfiprintf_r+0x680>
    51e8:	01000513          	addi	x10,x0,16
    51ec:	62e55063          	bge	x10,x14,580c <_vfiprintf_r+0x12f8>
    51f0:	0000de17          	auipc	x28,0xd
    51f4:	f1ce0e13          	addi	x28,x28,-228 # 1210c <blanks.1>
    51f8:	02912223          	sw	x9,36(x2)
    51fc:	02d12423          	sw	x13,40(x2)
    5200:	01000e93          	addi	x29,x0,16
    5204:	00040693          	addi	x13,x8,0
    5208:	00700293          	addi	x5,x0,7
    520c:	01e12623          	sw	x30,12(x2)
    5210:	01f12823          	sw	x31,16(x2)
    5214:	01112a23          	sw	x17,20(x2)
    5218:	00070413          	addi	x8,x14,0
    521c:	03012623          	sw	x16,44(x2)
    5220:	000e0493          	addi	x9,x28,0
    5224:	01c0006f          	jal	x0,5240 <_vfiprintf_r+0xd2c>
    5228:	00260513          	addi	x10,x12,2
    522c:	00868693          	addi	x13,x13,8
    5230:	00058613          	addi	x12,x11,0
    5234:	ff040413          	addi	x8,x8,-16
    5238:	048edc63          	bge	x29,x8,5290 <_vfiprintf_r+0xd7c>
    523c:	00160593          	addi	x11,x12,1
    5240:	01078793          	addi	x15,x15,16
    5244:	0096a023          	sw	x9,0(x13)
    5248:	01d6a223          	sw	x29,4(x13)
    524c:	04f12423          	sw	x15,72(x2)
    5250:	04b12223          	sw	x11,68(x2)
    5254:	fcb2dae3          	bge	x5,x11,5228 <_vfiprintf_r+0xd14>
    5258:	08078463          	beq	x15,x0,52e0 <_vfiprintf_r+0xdcc>
    525c:	00412503          	lw	x10,4(x2)
    5260:	04010613          	addi	x12,x2,64
    5264:	000b0593          	addi	x11,x22,0
    5268:	970ff0ef          	jal	x1,43d8 <__sprint_r.part.0>
    526c:	f2051063          	bne	x10,x0,498c <_vfiprintf_r+0x478>
    5270:	04412603          	lw	x12,68(x2)
    5274:	01000e93          	addi	x29,x0,16
    5278:	ff040413          	addi	x8,x8,-16
    527c:	04812783          	lw	x15,72(x2)
    5280:	000a8693          	addi	x13,x21,0
    5284:	00160513          	addi	x10,x12,1
    5288:	00700293          	addi	x5,x0,7
    528c:	fa8ec8e3          	blt	x29,x8,523c <_vfiprintf_r+0xd28>
    5290:	00040713          	addi	x14,x8,0
    5294:	00048e13          	addi	x28,x9,0
    5298:	00068413          	addi	x8,x13,0
    529c:	00c12f03          	lw	x30,12(x2)
    52a0:	01012f83          	lw	x31,16(x2)
    52a4:	01412883          	lw	x17,20(x2)
    52a8:	02812683          	lw	x13,40(x2)
    52ac:	02c12803          	lw	x16,44(x2)
    52b0:	02412483          	lw	x9,36(x2)
    52b4:	00e787b3          	add	x15,x15,x14
    52b8:	00e42223          	sw	x14,4(x8)
    52bc:	01c42023          	sw	x28,0(x8)
    52c0:	04f12423          	sw	x15,72(x2)
    52c4:	04a12223          	sw	x10,68(x2)
    52c8:	00700713          	addi	x14,x0,7
    52cc:	0ea74863          	blt	x14,x10,53bc <_vfiprintf_r+0xea8>
    52d0:	00840413          	addi	x8,x8,8
    52d4:	00150e13          	addi	x28,x10,1
    52d8:	00050613          	addi	x12,x10,0
    52dc:	c5cff06f          	jal	x0,4738 <_vfiprintf_r+0x224>
    52e0:	00000613          	addi	x12,x0,0
    52e4:	00100513          	addi	x10,x0,1
    52e8:	000a8693          	addi	x13,x21,0
    52ec:	f49ff06f          	jal	x0,5234 <_vfiprintf_r+0xd20>
    52f0:	00dbd463          	bge	x23,x13,52f8 <_vfiprintf_r+0xde4>
    52f4:	00068b93          	addi	x23,x13,0
    52f8:	017c0c33          	add	x24,x24,x23
    52fc:	d60ff06f          	jal	x0,485c <_vfiprintf_r+0x348>
    5300:	ee078663          	beq	x15,x0,49ec <_vfiprintf_r+0x4d8>
    5304:	00412503          	lw	x10,4(x2)
    5308:	04010613          	addi	x12,x2,64
    530c:	000b0593          	addi	x11,x22,0
    5310:	01012a23          	sw	x16,20(x2)
    5314:	00d12823          	sw	x13,16(x2)
    5318:	01112623          	sw	x17,12(x2)
    531c:	8bcff0ef          	jal	x1,43d8 <__sprint_r.part.0>
    5320:	e6051663          	bne	x10,x0,498c <_vfiprintf_r+0x478>
    5324:	04412e03          	lw	x28,68(x2)
    5328:	04812783          	lw	x15,72(x2)
    532c:	01412803          	lw	x16,20(x2)
    5330:	01012683          	lw	x13,16(x2)
    5334:	00c12883          	lw	x17,12(x2)
    5338:	000a8413          	addi	x8,x21,0
    533c:	001e0e13          	addi	x28,x28,1
    5340:	cb0ff06f          	jal	x0,47f0 <_vfiprintf_r+0x2dc>
    5344:	04012223          	sw	x0,68(x2)
    5348:	b30ff06f          	jal	x0,4678 <_vfiprintf_r+0x164>
    534c:	0106f713          	andi	x14,x13,16
    5350:	00082783          	lw	x15,0(x16)
    5354:	00480813          	addi	x16,x16,4
    5358:	00071a63          	bne	x14,x0,536c <_vfiprintf_r+0xe58>
    535c:	0406f713          	andi	x14,x13,64
    5360:	40070a63          	beq	x14,x0,5774 <_vfiprintf_r+0x1260>
    5364:	01079793          	slli	x15,x15,0x10
    5368:	0107d793          	srli	x15,x15,0x10
    536c:	00000893          	addi	x17,x0,0
    5370:	a51ff06f          	jal	x0,4dc0 <_vfiprintf_r+0x8ac>
    5374:	01077693          	andi	x13,x14,16
    5378:	00082783          	lw	x15,0(x16)
    537c:	00480813          	addi	x16,x16,4
    5380:	02069263          	bne	x13,x0,53a4 <_vfiprintf_r+0xe90>
    5384:	04077693          	andi	x13,x14,64
    5388:	00068a63          	beq	x13,x0,539c <_vfiprintf_r+0xe88>
    538c:	01079793          	slli	x15,x15,0x10
    5390:	0107d793          	srli	x15,x15,0x10
    5394:	00000613          	addi	x12,x0,0
    5398:	9adff06f          	jal	x0,4d44 <_vfiprintf_r+0x830>
    539c:	20077693          	andi	x13,x14,512
    53a0:	44069663          	bne	x13,x0,57ec <_vfiprintf_r+0x12d8>
    53a4:	00000613          	addi	x12,x0,0
    53a8:	99dff06f          	jal	x0,4d44 <_vfiprintf_r+0x830>
    53ac:	00100e13          	addi	x28,x0,1
    53b0:	00000613          	addi	x12,x0,0
    53b4:	000a8413          	addi	x8,x21,0
    53b8:	c28ff06f          	jal	x0,47e0 <_vfiprintf_r+0x2cc>
    53bc:	24078e63          	beq	x15,x0,5618 <_vfiprintf_r+0x1104>
    53c0:	00412503          	lw	x10,4(x2)
    53c4:	04010613          	addi	x12,x2,64
    53c8:	000b0593          	addi	x11,x22,0
    53cc:	03012423          	sw	x16,40(x2)
    53d0:	02d12223          	sw	x13,36(x2)
    53d4:	01112a23          	sw	x17,20(x2)
    53d8:	01f12823          	sw	x31,16(x2)
    53dc:	01e12623          	sw	x30,12(x2)
    53e0:	ff9fe0ef          	jal	x1,43d8 <__sprint_r.part.0>
    53e4:	da051463          	bne	x10,x0,498c <_vfiprintf_r+0x478>
    53e8:	04412603          	lw	x12,68(x2)
    53ec:	04812783          	lw	x15,72(x2)
    53f0:	02812803          	lw	x16,40(x2)
    53f4:	02412683          	lw	x13,36(x2)
    53f8:	01412883          	lw	x17,20(x2)
    53fc:	01012f83          	lw	x31,16(x2)
    5400:	00c12f03          	lw	x30,12(x2)
    5404:	000a8413          	addi	x8,x21,0
    5408:	00160e13          	addi	x28,x12,1
    540c:	b2cff06f          	jal	x0,4738 <_vfiprintf_r+0x224>
    5410:	ccccde37          	lui	x28,0xccccd
    5414:	ccccdfb7          	lui	x31,0xccccd
    5418:	01c12303          	lw	x6,28(x2)
    541c:	400dff13          	andi	x30,x27,1024
    5420:	00000513          	addi	x10,x0,0
    5424:	0f010593          	addi	x11,x2,240
    5428:	00500e93          	addi	x29,x0,5
    542c:	ccde0e13          	addi	x28,x28,-819 # cccccccd <__heap_end+0xcc8ccccd>
    5430:	cccf8f93          	addi	x31,x31,-820 # cccccccc <__heap_end+0xcc8ccccc>
    5434:	0ff00293          	addi	x5,x0,255
    5438:	0540006f          	jal	x0,548c <_vfiprintf_r+0xf78>
    543c:	00f93733          	sltu	x14,x18,x15
    5440:	00e90733          	add	x14,x18,x14
    5444:	03d77733          	remu	x14,x14,x29
    5448:	40e78733          	sub	x14,x15,x14
    544c:	00e7b633          	sltu	x12,x15,x14
    5450:	40c88633          	sub	x12,x17,x12
    5454:	03f703b3          	mul	x7,x14,x31
    5458:	03c60633          	mul	x12,x12,x28
    545c:	03c735b3          	mulhu	x11,x14,x28
    5460:	00760633          	add	x12,x12,x7
    5464:	03c70733          	mul	x14,x14,x28
    5468:	00b60633          	add	x12,x12,x11
    546c:	01f61593          	slli	x11,x12,0x1f
    5470:	00165613          	srli	x12,x12,0x1
    5474:	00175713          	srli	x14,x14,0x1
    5478:	00e5e733          	or	x14,x11,x14
    547c:	30088663          	beq	x17,x0,5788 <_vfiprintf_r+0x1274>
    5480:	00070793          	addi	x15,x14,0
    5484:	00060893          	addi	x17,x12,0
    5488:	00068593          	addi	x11,x13,0
    548c:	01178933          	add	x18,x15,x17
    5490:	00f93733          	sltu	x14,x18,x15
    5494:	00e90733          	add	x14,x18,x14
    5498:	03d77733          	remu	x14,x14,x29
    549c:	fff58693          	addi	x13,x11,-1
    54a0:	00150513          	addi	x10,x10,1
    54a4:	40e78733          	sub	x14,x15,x14
    54a8:	00e7b3b3          	sltu	x7,x15,x14
    54ac:	407883b3          	sub	x7,x17,x7
    54b0:	03c73633          	mulhu	x12,x14,x28
    54b4:	03c383b3          	mul	x7,x7,x28
    54b8:	03c70733          	mul	x14,x14,x28
    54bc:	00c383b3          	add	x7,x7,x12
    54c0:	01f39393          	slli	x7,x7,0x1f
    54c4:	00175613          	srli	x12,x14,0x1
    54c8:	00c3e633          	or	x12,x7,x12
    54cc:	00261713          	slli	x14,x12,0x2
    54d0:	00c70733          	add	x14,x14,x12
    54d4:	00171713          	slli	x14,x14,0x1
    54d8:	40e78733          	sub	x14,x15,x14
    54dc:	03070713          	addi	x14,x14,48
    54e0:	fee58fa3          	sb	x14,-1(x11)
    54e4:	f40f0ce3          	beq	x30,x0,543c <_vfiprintf_r+0xf28>
    54e8:	00034703          	lbu	x14,0(x6)
    54ec:	f4a718e3          	bne	x14,x10,543c <_vfiprintf_r+0xf28>
    54f0:	f45506e3          	beq	x10,x5,543c <_vfiprintf_r+0xf28>
    54f4:	14089463          	bne	x17,x0,563c <_vfiprintf_r+0x1128>
    54f8:	00900713          	addi	x14,x0,9
    54fc:	14f76063          	bltu	x14,x15,563c <_vfiprintf_r+0x1128>
    5500:	00612e23          	sw	x6,28(x2)
    5504:	00068913          	addi	x18,x13,0
    5508:	cc9ff06f          	jal	x0,51d0 <_vfiprintf_r+0xcbc>
    550c:	00000693          	addi	x13,x0,0
    5510:	0f010913          	addi	x18,x2,240
    5514:	e80ff06f          	jal	x0,4b94 <_vfiprintf_r+0x680>
    5518:	00840413          	addi	x8,x8,8
    551c:	00158e13          	addi	x28,x11,1
    5520:	00058613          	addi	x12,x11,0
    5524:	ac4ff06f          	jal	x0,47e8 <_vfiprintf_r+0x2d4>
    5528:	00082783          	lw	x15,0(x16)
    552c:	41fc5713          	srai	x14,x24,0x1f
    5530:	00480813          	addi	x16,x16,4
    5534:	0187a023          	sw	x24,0(x15)
    5538:	00e7a223          	sw	x14,4(x15)
    553c:	8c8ff06f          	jal	x0,4604 <_vfiprintf_r+0xf0>
    5540:	00000613          	addi	x12,x0,0
    5544:	00100e13          	addi	x28,x0,1
    5548:	000a8413          	addi	x8,x21,0
    554c:	a94ff06f          	jal	x0,47e0 <_vfiprintf_r+0x2cc>
    5550:	00088693          	addi	x13,x17,0
    5554:	00058913          	addi	x18,x11,0
    5558:	e3cff06f          	jal	x0,4b94 <_vfiprintf_r+0x680>
    555c:	fff00493          	addi	x9,x0,-1
    5560:	00060993          	addi	x19,x12,0
    5564:	944ff06f          	jal	x0,46a8 <_vfiprintf_r+0x194>
    5568:	000d8693          	addi	x13,x27,0
    556c:	839ff06f          	jal	x0,4da4 <_vfiprintf_r+0x890>
    5570:	000d8713          	addi	x14,x27,0
    5574:	fb4ff06f          	jal	x0,4d28 <_vfiprintf_r+0x814>
    5578:	0000c797          	auipc	x15,0xc
    557c:	55078793          	addi	x15,x15,1360 # 11ac8 <__clzsi2+0x34c>
    5580:	00f12423          	sw	x15,8(x2)
    5584:	020df793          	andi	x15,x27,32
    5588:	04078a63          	beq	x15,x0,55dc <_vfiprintf_r+0x10c8>
    558c:	00780813          	addi	x16,x16,7
    5590:	ff887813          	andi	x16,x16,-8
    5594:	00082783          	lw	x15,0(x16)
    5598:	00482603          	lw	x12,4(x16)
    559c:	00880813          	addi	x16,x16,8
    55a0:	001df693          	andi	x13,x27,1
    55a4:	00068e63          	beq	x13,x0,55c0 <_vfiprintf_r+0x10ac>
    55a8:	00c7e6b3          	or	x13,x15,x12
    55ac:	00068a63          	beq	x13,x0,55c0 <_vfiprintf_r+0x10ac>
    55b0:	03000693          	addi	x13,x0,48
    55b4:	02d10e23          	sb	x13,60(x2)
    55b8:	02e10ea3          	sb	x14,61(x2)
    55bc:	002ded93          	ori	x27,x27,2
    55c0:	bffdfd93          	andi	x27,x27,-1025
    55c4:	8d1ff06f          	jal	x0,4e94 <_vfiprintf_r+0x980>
    55c8:	0000c797          	auipc	x15,0xc
    55cc:	4ec78793          	addi	x15,x15,1260 # 11ab4 <__clzsi2+0x338>
    55d0:	00f12423          	sw	x15,8(x2)
    55d4:	020df793          	andi	x15,x27,32
    55d8:	fa079ae3          	bne	x15,x0,558c <_vfiprintf_r+0x1078>
    55dc:	010df693          	andi	x13,x27,16
    55e0:	00082783          	lw	x15,0(x16)
    55e4:	00480813          	addi	x16,x16,4
    55e8:	12069063          	bne	x13,x0,5708 <_vfiprintf_r+0x11f4>
    55ec:	040df693          	andi	x13,x27,64
    55f0:	10068863          	beq	x13,x0,5700 <_vfiprintf_r+0x11ec>
    55f4:	01079793          	slli	x15,x15,0x10
    55f8:	0107d793          	srli	x15,x15,0x10
    55fc:	00000613          	addi	x12,x0,0
    5600:	fa1ff06f          	jal	x0,55a0 <_vfiprintf_r+0x108c>
    5604:	00090513          	addi	x10,x18,0
    5608:	054010ef          	jal	x1,665c <strlen>
    560c:	00c12803          	lw	x16,12(x2)
    5610:	00050893          	addi	x17,x10,0
    5614:	dc4ff06f          	jal	x0,4bd8 <_vfiprintf_r+0x6c4>
    5618:	03b14703          	lbu	x14,59(x2)
    561c:	18070e63          	beq	x14,x0,57b8 <_vfiprintf_r+0x12a4>
    5620:	03b10793          	addi	x15,x2,59
    5624:	04f12623          	sw	x15,76(x2)
    5628:	00100793          	addi	x15,x0,1
    562c:	04f12823          	sw	x15,80(x2)
    5630:	00100e13          	addi	x28,x0,1
    5634:	000a8413          	addi	x8,x21,0
    5638:	92cff06f          	jal	x0,4764 <_vfiprintf_r+0x250>
    563c:	02f12223          	sw	x15,36(x2)
    5640:	01812783          	lw	x15,24(x2)
    5644:	02012583          	lw	x11,32(x2)
    5648:	03112423          	sw	x17,40(x2)
    564c:	40f686b3          	sub	x13,x13,x15
    5650:	00078613          	addi	x12,x15,0
    5654:	00068513          	addi	x10,x13,0
    5658:	01012e23          	sw	x16,28(x2)
    565c:	01e12a23          	sw	x30,20(x2)
    5660:	00612823          	sw	x6,16(x2)
    5664:	00d12623          	sw	x13,12(x2)
    5668:	7d9010ef          	jal	x1,7640 <strncpy>
    566c:	02412783          	lw	x15,36(x2)
    5670:	00500613          	addi	x12,x0,5
    5674:	01012303          	lw	x6,16(x2)
    5678:	00f93733          	sltu	x14,x18,x15
    567c:	00e90733          	add	x14,x18,x14
    5680:	02c77733          	remu	x14,x14,x12
    5684:	00134603          	lbu	x12,1(x6)
    5688:	02812883          	lw	x17,40(x2)
    568c:	ccccd5b7          	lui	x11,0xccccd
    5690:	00c03633          	sltu	x12,x0,x12
    5694:	00c30333          	add	x6,x6,x12
    5698:	ccd58593          	addi	x11,x11,-819 # cccccccd <__heap_end+0xcc8ccccd>
    569c:	00c12683          	lw	x13,12(x2)
    56a0:	01412f03          	lw	x30,20(x2)
    56a4:	01c12803          	lw	x16,28(x2)
    56a8:	00000513          	addi	x10,x0,0
    56ac:	00500e93          	addi	x29,x0,5
    56b0:	0ff00293          	addi	x5,x0,255
    56b4:	40e78733          	sub	x14,x15,x14
    56b8:	00e7b633          	sltu	x12,x15,x14
    56bc:	ccccd7b7          	lui	x15,0xccccd
    56c0:	40c88633          	sub	x12,x17,x12
    56c4:	ccc78793          	addi	x15,x15,-820 # cccccccc <__heap_end+0xcc8ccccc>
    56c8:	02f707b3          	mul	x15,x14,x15
    56cc:	02b60633          	mul	x12,x12,x11
    56d0:	02b738b3          	mulhu	x17,x14,x11
    56d4:	00f60633          	add	x12,x12,x15
    56d8:	02b707b3          	mul	x15,x14,x11
    56dc:	01160633          	add	x12,x12,x17
    56e0:	01f61713          	slli	x14,x12,0x1f
    56e4:	00165613          	srli	x12,x12,0x1
    56e8:	0017d793          	srli	x15,x15,0x1
    56ec:	00f76733          	or	x14,x14,x15
    56f0:	ccccd7b7          	lui	x15,0xccccd
    56f4:	ccd78e13          	addi	x28,x15,-819 # cccccccd <__heap_end+0xcc8ccccd>
    56f8:	ccc78f93          	addi	x31,x15,-820
    56fc:	d85ff06f          	jal	x0,5480 <_vfiprintf_r+0xf6c>
    5700:	200df693          	andi	x13,x27,512
    5704:	0e069a63          	bne	x13,x0,57f8 <_vfiprintf_r+0x12e4>
    5708:	00000613          	addi	x12,x0,0
    570c:	e95ff06f          	jal	x0,55a0 <_vfiprintf_r+0x108c>
    5710:	00070d93          	addi	x27,x14,0
    5714:	00000713          	addi	x14,x0,0
    5718:	ee070063          	beq	x14,x0,4df8 <_vfiprintf_r+0x8e4>
    571c:	a81ff06f          	jal	x0,519c <_vfiprintf_r+0xc88>
    5720:	e88fb0ef          	jal	x1,da8 <__sinit>
    5724:	e2dfe06f          	jal	x0,4550 <_vfiprintf_r+0x3c>
    5728:	0019c703          	lbu	x14,1(x19)
    572c:	200ded93          	ori	x27,x27,512
    5730:	00198993          	addi	x19,x19,1
    5734:	f71fe06f          	jal	x0,46a4 <_vfiprintf_r+0x190>
    5738:	0019c703          	lbu	x14,1(x19)
    573c:	020ded93          	ori	x27,x27,32
    5740:	00198993          	addi	x19,x19,1
    5744:	f61fe06f          	jal	x0,46a4 <_vfiprintf_r+0x190>
    5748:	00082783          	lw	x15,0(x16)
    574c:	00480813          	addi	x16,x16,4
    5750:	0187a023          	sw	x24,0(x15)
    5754:	eb1fe06f          	jal	x0,4604 <_vfiprintf_r+0xf0>
    5758:	00600793          	addi	x15,x0,6
    575c:	00048893          	addi	x17,x9,0
    5760:	0497e863          	bltu	x15,x9,57b0 <_vfiprintf_r+0x129c>
    5764:	00088693          	addi	x13,x17,0
    5768:	0000c917          	auipc	x18,0xc
    576c:	37490913          	addi	x18,x18,884 # 11adc <__clzsi2+0x360>
    5770:	fa1fe06f          	jal	x0,4710 <_vfiprintf_r+0x1fc>
    5774:	2006f713          	andi	x14,x13,512
    5778:	be070ae3          	beq	x14,x0,536c <_vfiprintf_r+0xe58>
    577c:	0ff7f793          	andi	x15,x15,255
    5780:	00000893          	addi	x17,x0,0
    5784:	e3cff06f          	jal	x0,4dc0 <_vfiprintf_r+0x8ac>
    5788:	00900593          	addi	x11,x0,9
    578c:	cef5eae3          	bltu	x11,x15,5480 <_vfiprintf_r+0xf6c>
    5790:	d71ff06f          	jal	x0,5500 <_vfiprintf_r+0xfec>
    5794:	00000793          	addi	x15,x0,0
    5798:	00000613          	addi	x12,x0,0
    579c:	a01ff06f          	jal	x0,519c <_vfiprintf_r+0xc88>
    57a0:	00100e13          	addi	x28,x0,1
    57a4:	00000613          	addi	x12,x0,0
    57a8:	000a8413          	addi	x8,x21,0
    57ac:	83cff06f          	jal	x0,47e8 <_vfiprintf_r+0x2d4>
    57b0:	00600893          	addi	x17,x0,6
    57b4:	fb1ff06f          	jal	x0,5764 <_vfiprintf_r+0x1250>
    57b8:	00000613          	addi	x12,x0,0
    57bc:	00100e13          	addi	x28,x0,1
    57c0:	000a8413          	addi	x8,x21,0
    57c4:	fadfe06f          	jal	x0,4770 <_vfiprintf_r+0x25c>
    57c8:	00082783          	lw	x15,0(x16)
    57cc:	00480813          	addi	x16,x16,4
    57d0:	01879023          	sh	x24,0(x15)
    57d4:	e31fe06f          	jal	x0,4604 <_vfiprintf_r+0xf0>
    57d8:	01879793          	slli	x15,x15,0x18
    57dc:	4187d793          	srai	x15,x15,0x18
    57e0:	41f7d893          	srai	x17,x15,0x1f
    57e4:	00088713          	addi	x14,x17,0
    57e8:	8ecff06f          	jal	x0,48d4 <_vfiprintf_r+0x3c0>
    57ec:	0ff7f793          	andi	x15,x15,255
    57f0:	00000613          	addi	x12,x0,0
    57f4:	d50ff06f          	jal	x0,4d44 <_vfiprintf_r+0x830>
    57f8:	0ff7f793          	andi	x15,x15,255
    57fc:	00000613          	addi	x12,x0,0
    5800:	da1ff06f          	jal	x0,55a0 <_vfiprintf_r+0x108c>
    5804:	03000793          	addi	x15,x0,48
    5808:	b74ff06f          	jal	x0,4b7c <_vfiprintf_r+0x668>
    580c:	00058513          	addi	x10,x11,0
    5810:	0000de17          	auipc	x28,0xd
    5814:	8fce0e13          	addi	x28,x28,-1796 # 1210c <blanks.1>
    5818:	a9dff06f          	jal	x0,52b4 <_vfiprintf_r+0xda0>
    581c:	00160593          	addi	x11,x12,1
    5820:	0000de17          	auipc	x28,0xd
    5824:	8ece0e13          	addi	x28,x28,-1812 # 1210c <blanks.1>
    5828:	aa8ff06f          	jal	x0,4ad0 <_vfiprintf_r+0x5bc>
    582c:	fff00d93          	addi	x27,x0,-1
    5830:	988ff06f          	jal	x0,49b8 <_vfiprintf_r+0x4a4>
    5834:	000e0593          	addi	x11,x28,0
    5838:	0000de97          	auipc	x29,0xd
    583c:	8e4e8e93          	addi	x29,x29,-1820 # 1211c <zeroes.0>
    5840:	f7cff06f          	jal	x0,4fbc <_vfiprintf_r+0xaa8>
    5844:	00082483          	lw	x9,0(x16)
    5848:	00480813          	addi	x16,x16,4
    584c:	0004d463          	bge	x9,x0,5854 <_vfiprintf_r+0x1340>
    5850:	fff00493          	addi	x9,x0,-1
    5854:	0019c703          	lbu	x14,1(x19)
    5858:	00060993          	addi	x19,x12,0
    585c:	e49fe06f          	jal	x0,46a4 <_vfiprintf_r+0x190>

00005860 <vfiprintf>:
    5860:	00060693          	addi	x13,x12,0
    5864:	00058613          	addi	x12,x11,0
    5868:	00050593          	addi	x11,x10,0
    586c:	f041a503          	lw	x10,-252(x3) # 12bb4 <_impure_ptr>
    5870:	ca5fe06f          	jal	x0,4514 <_vfiprintf_r>

00005874 <__sbprintf>:
    5874:	b8010113          	addi	x2,x2,-1152
    5878:	00c59783          	lh	x15,12(x11)
    587c:	00e5d703          	lhu	x14,14(x11)
    5880:	0645ae03          	lw	x28,100(x11)
    5884:	01c5a303          	lw	x6,28(x11)
    5888:	0245a883          	lw	x17,36(x11)
    588c:	46812c23          	sw	x8,1144(x2)
    5890:	00058413          	addi	x8,x11,0
    5894:	000105b7          	lui	x11,0x10
    5898:	ffd58593          	addi	x11,x11,-3 # fffd <__subtf3+0x56d>
    589c:	01071713          	slli	x14,x14,0x10
    58a0:	00b7f7b3          	and	x15,x15,x11
    58a4:	00e7e7b3          	or	x15,x15,x14
    58a8:	40000813          	addi	x16,x0,1024
    58ac:	00f12a23          	sw	x15,20(x2)
    58b0:	00810593          	addi	x11,x2,8
    58b4:	07010793          	addi	x15,x2,112
    58b8:	46912a23          	sw	x9,1140(x2)
    58bc:	47212823          	sw	x18,1136(x2)
    58c0:	46112e23          	sw	x1,1148(x2)
    58c4:	00050913          	addi	x18,x10,0
    58c8:	07c12623          	sw	x28,108(x2)
    58cc:	02612223          	sw	x6,36(x2)
    58d0:	03112623          	sw	x17,44(x2)
    58d4:	00f12423          	sw	x15,8(x2)
    58d8:	00f12c23          	sw	x15,24(x2)
    58dc:	01012823          	sw	x16,16(x2)
    58e0:	01012e23          	sw	x16,28(x2)
    58e4:	02012023          	sw	x0,32(x2)
    58e8:	c2dfe0ef          	jal	x1,4514 <_vfiprintf_r>
    58ec:	00050493          	addi	x9,x10,0
    58f0:	02055c63          	bge	x10,x0,5928 <__sbprintf+0xb4>
    58f4:	01415783          	lhu	x15,20(x2)
    58f8:	0407f793          	andi	x15,x15,64
    58fc:	00078863          	beq	x15,x0,590c <__sbprintf+0x98>
    5900:	00c45783          	lhu	x15,12(x8)
    5904:	0407e793          	ori	x15,x15,64
    5908:	00f41623          	sh	x15,12(x8)
    590c:	47c12083          	lw	x1,1148(x2)
    5910:	47812403          	lw	x8,1144(x2)
    5914:	47012903          	lw	x18,1136(x2)
    5918:	00048513          	addi	x10,x9,0
    591c:	47412483          	lw	x9,1140(x2)
    5920:	48010113          	addi	x2,x2,1152
    5924:	00008067          	jalr	x0,0(x1)
    5928:	00810593          	addi	x11,x2,8
    592c:	00090513          	addi	x10,x18,0
    5930:	528010ef          	jal	x1,6e58 <_fflush_r>
    5934:	fc0500e3          	beq	x10,x0,58f4 <__sbprintf+0x80>
    5938:	fff00493          	addi	x9,x0,-1
    593c:	fb9ff06f          	jal	x0,58f4 <__sbprintf+0x80>

00005940 <__register_exitproc>:
    5940:	f1018713          	addi	x14,x3,-240 # 12bc0 <__atexit>
    5944:	00072783          	lw	x15,0(x14)
    5948:	04078c63          	beq	x15,x0,59a0 <__register_exitproc+0x60>
    594c:	0047a703          	lw	x14,4(x15)
    5950:	01f00813          	addi	x16,x0,31
    5954:	06e84e63          	blt	x16,x14,59d0 <__register_exitproc+0x90>
    5958:	00271813          	slli	x16,x14,0x2
    595c:	02050663          	beq	x10,x0,5988 <__register_exitproc+0x48>
    5960:	01078333          	add	x6,x15,x16
    5964:	08c32423          	sw	x12,136(x6)
    5968:	1887a883          	lw	x17,392(x15)
    596c:	00100613          	addi	x12,x0,1
    5970:	00e61633          	sll	x12,x12,x14
    5974:	00c8e8b3          	or	x17,x17,x12
    5978:	1917a423          	sw	x17,392(x15)
    597c:	10d32423          	sw	x13,264(x6)
    5980:	00200693          	addi	x13,x0,2
    5984:	02d50463          	beq	x10,x13,59ac <__register_exitproc+0x6c>
    5988:	00170713          	addi	x14,x14,1
    598c:	00e7a223          	sw	x14,4(x15)
    5990:	010787b3          	add	x15,x15,x16
    5994:	00b7a423          	sw	x11,8(x15)
    5998:	00000513          	addi	x10,x0,0
    599c:	00008067          	jalr	x0,0(x1)
    59a0:	06418793          	addi	x15,x3,100 # 12d14 <__atexit0>
    59a4:	00f72023          	sw	x15,0(x14)
    59a8:	fa5ff06f          	jal	x0,594c <__register_exitproc+0xc>
    59ac:	18c7a683          	lw	x13,396(x15)
    59b0:	00170713          	addi	x14,x14,1
    59b4:	00e7a223          	sw	x14,4(x15)
    59b8:	00c6e6b3          	or	x13,x13,x12
    59bc:	18d7a623          	sw	x13,396(x15)
    59c0:	010787b3          	add	x15,x15,x16
    59c4:	00b7a423          	sw	x11,8(x15)
    59c8:	00000513          	addi	x10,x0,0
    59cc:	00008067          	jalr	x0,0(x1)
    59d0:	fff00513          	addi	x10,x0,-1
    59d4:	00008067          	jalr	x0,0(x1)

000059d8 <_malloc_r>:
    59d8:	fd010113          	addi	x2,x2,-48
    59dc:	03212023          	sw	x18,32(x2)
    59e0:	02112623          	sw	x1,44(x2)
    59e4:	02812423          	sw	x8,40(x2)
    59e8:	02912223          	sw	x9,36(x2)
    59ec:	01312e23          	sw	x19,28(x2)
    59f0:	00b58793          	addi	x15,x11,11
    59f4:	01600713          	addi	x14,x0,22
    59f8:	00050913          	addi	x18,x10,0
    59fc:	08f76063          	bltu	x14,x15,5a7c <_malloc_r+0xa4>
    5a00:	01000793          	addi	x15,x0,16
    5a04:	20b7e063          	bltu	x15,x11,5c04 <_malloc_r+0x22c>
    5a08:	1a0010ef          	jal	x1,6ba8 <__malloc_lock>
    5a0c:	01800793          	addi	x15,x0,24
    5a10:	00200593          	addi	x11,x0,2
    5a14:	01000493          	addi	x9,x0,16
    5a18:	92c18993          	addi	x19,x3,-1748 # 125dc <__malloc_av_>
    5a1c:	00f987b3          	add	x15,x19,x15
    5a20:	0047a403          	lw	x8,4(x15)
    5a24:	ff878713          	addi	x14,x15,-8
    5a28:	40e40a63          	beq	x8,x14,5e3c <_malloc_r+0x464>
    5a2c:	00442783          	lw	x15,4(x8)
    5a30:	00c42683          	lw	x13,12(x8)
    5a34:	00842603          	lw	x12,8(x8)
    5a38:	ffc7f793          	andi	x15,x15,-4
    5a3c:	00f407b3          	add	x15,x8,x15
    5a40:	0047a703          	lw	x14,4(x15)
    5a44:	00d62623          	sw	x13,12(x12)
    5a48:	00c6a423          	sw	x12,8(x13)
    5a4c:	00176713          	ori	x14,x14,1
    5a50:	00090513          	addi	x10,x18,0
    5a54:	00e7a223          	sw	x14,4(x15)
    5a58:	154010ef          	jal	x1,6bac <__malloc_unlock>
    5a5c:	02c12083          	lw	x1,44(x2)
    5a60:	00840513          	addi	x10,x8,8
    5a64:	02812403          	lw	x8,40(x2)
    5a68:	02412483          	lw	x9,36(x2)
    5a6c:	02012903          	lw	x18,32(x2)
    5a70:	01c12983          	lw	x19,28(x2)
    5a74:	03010113          	addi	x2,x2,48
    5a78:	00008067          	jalr	x0,0(x1)
    5a7c:	ff87f493          	andi	x9,x15,-8
    5a80:	1807c263          	blt	x15,x0,5c04 <_malloc_r+0x22c>
    5a84:	18b4e063          	bltu	x9,x11,5c04 <_malloc_r+0x22c>
    5a88:	120010ef          	jal	x1,6ba8 <__malloc_lock>
    5a8c:	1f700793          	addi	x15,x0,503
    5a90:	4c97f063          	bgeu	x15,x9,5f50 <_malloc_r+0x578>
    5a94:	0094d793          	srli	x15,x9,0x9
    5a98:	18078a63          	beq	x15,x0,5c2c <_malloc_r+0x254>
    5a9c:	00400713          	addi	x14,x0,4
    5aa0:	40f76663          	bltu	x14,x15,5eac <_malloc_r+0x4d4>
    5aa4:	0064d793          	srli	x15,x9,0x6
    5aa8:	03978593          	addi	x11,x15,57
    5aac:	03878813          	addi	x16,x15,56
    5ab0:	00359613          	slli	x12,x11,0x3
    5ab4:	92c18993          	addi	x19,x3,-1748 # 125dc <__malloc_av_>
    5ab8:	00c98633          	add	x12,x19,x12
    5abc:	00462403          	lw	x8,4(x12)
    5ac0:	ff860613          	addi	x12,x12,-8
    5ac4:	02860863          	beq	x12,x8,5af4 <_malloc_r+0x11c>
    5ac8:	00f00513          	addi	x10,x0,15
    5acc:	0140006f          	jal	x0,5ae0 <_malloc_r+0x108>
    5ad0:	00c42683          	lw	x13,12(x8)
    5ad4:	36075063          	bge	x14,x0,5e34 <_malloc_r+0x45c>
    5ad8:	00d60e63          	beq	x12,x13,5af4 <_malloc_r+0x11c>
    5adc:	00068413          	addi	x8,x13,0
    5ae0:	00442783          	lw	x15,4(x8)
    5ae4:	ffc7f793          	andi	x15,x15,-4
    5ae8:	40978733          	sub	x14,x15,x9
    5aec:	fee552e3          	bge	x10,x14,5ad0 <_malloc_r+0xf8>
    5af0:	00080593          	addi	x11,x16,0
    5af4:	0109a403          	lw	x8,16(x19)
    5af8:	93418893          	addi	x17,x3,-1740 # 125e4 <__malloc_av_+0x8>
    5afc:	2b140c63          	beq	x8,x17,5db4 <_malloc_r+0x3dc>
    5b00:	00442783          	lw	x15,4(x8)
    5b04:	00f00693          	addi	x13,x0,15
    5b08:	ffc7f793          	andi	x15,x15,-4
    5b0c:	40978733          	sub	x14,x15,x9
    5b10:	44e6c663          	blt	x13,x14,5f5c <_malloc_r+0x584>
    5b14:	0119aa23          	sw	x17,20(x19)
    5b18:	0119a823          	sw	x17,16(x19)
    5b1c:	40075a63          	bge	x14,x0,5f30 <_malloc_r+0x558>
    5b20:	1ff00713          	addi	x14,x0,511
    5b24:	0049a503          	lw	x10,4(x19)
    5b28:	32f76263          	bltu	x14,x15,5e4c <_malloc_r+0x474>
    5b2c:	ff87f713          	andi	x14,x15,-8
    5b30:	00870713          	addi	x14,x14,8
    5b34:	00e98733          	add	x14,x19,x14
    5b38:	00072683          	lw	x13,0(x14)
    5b3c:	0057d613          	srli	x12,x15,0x5
    5b40:	00100793          	addi	x15,x0,1
    5b44:	00c797b3          	sll	x15,x15,x12
    5b48:	00f56533          	or	x10,x10,x15
    5b4c:	ff870793          	addi	x15,x14,-8
    5b50:	00f42623          	sw	x15,12(x8)
    5b54:	00d42423          	sw	x13,8(x8)
    5b58:	00a9a223          	sw	x10,4(x19)
    5b5c:	00872023          	sw	x8,0(x14)
    5b60:	0086a623          	sw	x8,12(x13)
    5b64:	4025d793          	srai	x15,x11,0x2
    5b68:	00100613          	addi	x12,x0,1
    5b6c:	00f61633          	sll	x12,x12,x15
    5b70:	0cc56663          	bltu	x10,x12,5c3c <_malloc_r+0x264>
    5b74:	00a677b3          	and	x15,x12,x10
    5b78:	02079463          	bne	x15,x0,5ba0 <_malloc_r+0x1c8>
    5b7c:	00161613          	slli	x12,x12,0x1
    5b80:	ffc5f593          	andi	x11,x11,-4
    5b84:	00a677b3          	and	x15,x12,x10
    5b88:	00458593          	addi	x11,x11,4
    5b8c:	00079a63          	bne	x15,x0,5ba0 <_malloc_r+0x1c8>
    5b90:	00161613          	slli	x12,x12,0x1
    5b94:	00a677b3          	and	x15,x12,x10
    5b98:	00458593          	addi	x11,x11,4
    5b9c:	fe078ae3          	beq	x15,x0,5b90 <_malloc_r+0x1b8>
    5ba0:	00f00813          	addi	x16,x0,15
    5ba4:	00359313          	slli	x6,x11,0x3
    5ba8:	00698333          	add	x6,x19,x6
    5bac:	00030513          	addi	x10,x6,0
    5bb0:	00c52783          	lw	x15,12(x10)
    5bb4:	00058e13          	addi	x28,x11,0
    5bb8:	30f50c63          	beq	x10,x15,5ed0 <_malloc_r+0x4f8>
    5bbc:	0047a703          	lw	x14,4(x15)
    5bc0:	00078413          	addi	x8,x15,0
    5bc4:	00c7a783          	lw	x15,12(x15)
    5bc8:	ffc77713          	andi	x14,x14,-4
    5bcc:	409706b3          	sub	x13,x14,x9
    5bd0:	30d84c63          	blt	x16,x13,5ee8 <_malloc_r+0x510>
    5bd4:	fe06c2e3          	blt	x13,x0,5bb8 <_malloc_r+0x1e0>
    5bd8:	00e40733          	add	x14,x8,x14
    5bdc:	00472683          	lw	x13,4(x14)
    5be0:	00842603          	lw	x12,8(x8)
    5be4:	00090513          	addi	x10,x18,0
    5be8:	0016e693          	ori	x13,x13,1
    5bec:	00d72223          	sw	x13,4(x14)
    5bf0:	00f62623          	sw	x15,12(x12)
    5bf4:	00c7a423          	sw	x12,8(x15)
    5bf8:	7b5000ef          	jal	x1,6bac <__malloc_unlock>
    5bfc:	00840513          	addi	x10,x8,8
    5c00:	0100006f          	jal	x0,5c10 <_malloc_r+0x238>
    5c04:	00c00793          	addi	x15,x0,12
    5c08:	00f92023          	sw	x15,0(x18)
    5c0c:	00000513          	addi	x10,x0,0
    5c10:	02c12083          	lw	x1,44(x2)
    5c14:	02812403          	lw	x8,40(x2)
    5c18:	02412483          	lw	x9,36(x2)
    5c1c:	02012903          	lw	x18,32(x2)
    5c20:	01c12983          	lw	x19,28(x2)
    5c24:	03010113          	addi	x2,x2,48
    5c28:	00008067          	jalr	x0,0(x1)
    5c2c:	20000613          	addi	x12,x0,512
    5c30:	04000593          	addi	x11,x0,64
    5c34:	03f00813          	addi	x16,x0,63
    5c38:	e7dff06f          	jal	x0,5ab4 <_malloc_r+0xdc>
    5c3c:	0089a403          	lw	x8,8(x19)
    5c40:	01612823          	sw	x22,16(x2)
    5c44:	00442783          	lw	x15,4(x8)
    5c48:	ffc7fb13          	andi	x22,x15,-4
    5c4c:	009b6863          	bltu	x22,x9,5c5c <_malloc_r+0x284>
    5c50:	409b0733          	sub	x14,x22,x9
    5c54:	00f00793          	addi	x15,x0,15
    5c58:	18e7cc63          	blt	x15,x14,5df0 <_malloc_r+0x418>
    5c5c:	01912223          	sw	x25,4(x2)
    5c60:	f0818c93          	addi	x25,x3,-248 # 12bb8 <__malloc_sbrk_base>
    5c64:	000ca703          	lw	x14,0(x25)
    5c68:	01412c23          	sw	x20,24(x2)
    5c6c:	01512a23          	sw	x21,20(x2)
    5c70:	01712623          	sw	x23,12(x2)
    5c74:	f241aa83          	lw	x21,-220(x3) # 12bd4 <__malloc_top_pad>
    5c78:	fff00793          	addi	x15,x0,-1
    5c7c:	01640a33          	add	x20,x8,x22
    5c80:	01548ab3          	add	x21,x9,x21
    5c84:	3af70263          	beq	x14,x15,6028 <_malloc_r+0x650>
    5c88:	000017b7          	lui	x15,0x1
    5c8c:	00f78793          	addi	x15,x15,15 # 100f <_free_r+0xdb>
    5c90:	00fa8ab3          	add	x21,x21,x15
    5c94:	fffff7b7          	lui	x15,0xfffff
    5c98:	00fafab3          	and	x21,x21,x15
    5c9c:	000a8593          	addi	x11,x21,0
    5ca0:	00090513          	addi	x10,x18,0
    5ca4:	ee0fb0ef          	jal	x1,1384 <_sbrk_r>
    5ca8:	fff00793          	addi	x15,x0,-1
    5cac:	00050b93          	addi	x23,x10,0
    5cb0:	42f50e63          	beq	x10,x15,60ec <_malloc_r+0x714>
    5cb4:	01812423          	sw	x24,8(x2)
    5cb8:	11456263          	bltu	x10,x20,5dbc <_malloc_r+0x3e4>
    5cbc:	1f418c13          	addi	x24,x3,500 # 12ea4 <__malloc_current_mallinfo>
    5cc0:	000c2583          	lw	x11,0(x24)
    5cc4:	00ba85b3          	add	x11,x21,x11
    5cc8:	00bc2023          	sw	x11,0(x24)
    5ccc:	00058713          	addi	x14,x11,0
    5cd0:	42aa0463          	beq	x20,x10,60f8 <_malloc_r+0x720>
    5cd4:	000ca683          	lw	x13,0(x25)
    5cd8:	fff00793          	addi	x15,x0,-1
    5cdc:	42f68c63          	beq	x13,x15,6114 <_malloc_r+0x73c>
    5ce0:	414b87b3          	sub	x15,x23,x20
    5ce4:	00e787b3          	add	x15,x15,x14
    5ce8:	00fc2023          	sw	x15,0(x24)
    5cec:	007bfc93          	andi	x25,x23,7
    5cf0:	340c8c63          	beq	x25,x0,6048 <_malloc_r+0x670>
    5cf4:	419b8bb3          	sub	x23,x23,x25
    5cf8:	000015b7          	lui	x11,0x1
    5cfc:	008b8b93          	addi	x23,x23,8
    5d00:	00858593          	addi	x11,x11,8 # 1008 <_free_r+0xd4>
    5d04:	015b8ab3          	add	x21,x23,x21
    5d08:	419585b3          	sub	x11,x11,x25
    5d0c:	415585b3          	sub	x11,x11,x21
    5d10:	01459593          	slli	x11,x11,0x14
    5d14:	0145da13          	srli	x20,x11,0x14
    5d18:	000a0593          	addi	x11,x20,0
    5d1c:	00090513          	addi	x10,x18,0
    5d20:	e64fb0ef          	jal	x1,1384 <_sbrk_r>
    5d24:	fff00793          	addi	x15,x0,-1
    5d28:	42f50663          	beq	x10,x15,6154 <_malloc_r+0x77c>
    5d2c:	41750533          	sub	x10,x10,x23
    5d30:	01450ab3          	add	x21,x10,x20
    5d34:	000c2703          	lw	x14,0(x24)
    5d38:	0179a423          	sw	x23,8(x19)
    5d3c:	001ae793          	ori	x15,x21,1
    5d40:	00ea05b3          	add	x11,x20,x14
    5d44:	00bc2023          	sw	x11,0(x24)
    5d48:	00fba223          	sw	x15,4(x23)
    5d4c:	03340e63          	beq	x8,x19,5d88 <_malloc_r+0x3b0>
    5d50:	00f00693          	addi	x13,x0,15
    5d54:	3366f063          	bgeu	x13,x22,6074 <_malloc_r+0x69c>
    5d58:	00442703          	lw	x14,4(x8)
    5d5c:	ff4b0793          	addi	x15,x22,-12
    5d60:	ff87f793          	andi	x15,x15,-8
    5d64:	00177713          	andi	x14,x14,1
    5d68:	00f76733          	or	x14,x14,x15
    5d6c:	00e42223          	sw	x14,4(x8)
    5d70:	00500613          	addi	x12,x0,5
    5d74:	00f40733          	add	x14,x8,x15
    5d78:	00c72223          	sw	x12,4(x14)
    5d7c:	00c72423          	sw	x12,8(x14)
    5d80:	28f6e863          	bltu	x13,x15,6010 <_malloc_r+0x638>
    5d84:	004ba783          	lw	x15,4(x23)
    5d88:	f2018713          	addi	x14,x3,-224 # 12bd0 <__malloc_max_sbrked_mem>
    5d8c:	00072683          	lw	x13,0(x14)
    5d90:	00b6f463          	bgeu	x13,x11,5d98 <_malloc_r+0x3c0>
    5d94:	00b72023          	sw	x11,0(x14)
    5d98:	f1c18713          	addi	x14,x3,-228 # 12bcc <__malloc_max_total_mem>
    5d9c:	00072683          	lw	x13,0(x14)
    5da0:	00b6f463          	bgeu	x13,x11,5da8 <_malloc_r+0x3d0>
    5da4:	00b72023          	sw	x11,0(x14)
    5da8:	00812c03          	lw	x24,8(x2)
    5dac:	000b8413          	addi	x8,x23,0
    5db0:	01c0006f          	jal	x0,5dcc <_malloc_r+0x3f4>
    5db4:	0049a503          	lw	x10,4(x19)
    5db8:	dadff06f          	jal	x0,5b64 <_malloc_r+0x18c>
    5dbc:	31340e63          	beq	x8,x19,60d8 <_malloc_r+0x700>
    5dc0:	0089a403          	lw	x8,8(x19)
    5dc4:	00812c03          	lw	x24,8(x2)
    5dc8:	00442783          	lw	x15,4(x8)
    5dcc:	ffc7f793          	andi	x15,x15,-4
    5dd0:	40978733          	sub	x14,x15,x9
    5dd4:	2a97e663          	bltu	x15,x9,6080 <_malloc_r+0x6a8>
    5dd8:	00f00793          	addi	x15,x0,15
    5ddc:	2ae7d263          	bge	x15,x14,6080 <_malloc_r+0x6a8>
    5de0:	01812a03          	lw	x20,24(x2)
    5de4:	01412a83          	lw	x21,20(x2)
    5de8:	00c12b83          	lw	x23,12(x2)
    5dec:	00412c83          	lw	x25,4(x2)
    5df0:	0014e793          	ori	x15,x9,1
    5df4:	00f42223          	sw	x15,4(x8)
    5df8:	009404b3          	add	x9,x8,x9
    5dfc:	0099a423          	sw	x9,8(x19)
    5e00:	00176713          	ori	x14,x14,1
    5e04:	00090513          	addi	x10,x18,0
    5e08:	00e4a223          	sw	x14,4(x9)
    5e0c:	5a1000ef          	jal	x1,6bac <__malloc_unlock>
    5e10:	02c12083          	lw	x1,44(x2)
    5e14:	00840513          	addi	x10,x8,8
    5e18:	02812403          	lw	x8,40(x2)
    5e1c:	01012b03          	lw	x22,16(x2)
    5e20:	02412483          	lw	x9,36(x2)
    5e24:	02012903          	lw	x18,32(x2)
    5e28:	01c12983          	lw	x19,28(x2)
    5e2c:	03010113          	addi	x2,x2,48
    5e30:	00008067          	jalr	x0,0(x1)
    5e34:	00842603          	lw	x12,8(x8)
    5e38:	c05ff06f          	jal	x0,5a3c <_malloc_r+0x64>
    5e3c:	00c7a403          	lw	x8,12(x15) # fffff00c <__heap_end+0xffbff00c>
    5e40:	00258593          	addi	x11,x11,2
    5e44:	ca8788e3          	beq	x15,x8,5af4 <_malloc_r+0x11c>
    5e48:	be5ff06f          	jal	x0,5a2c <_malloc_r+0x54>
    5e4c:	0097d713          	srli	x14,x15,0x9
    5e50:	00400693          	addi	x13,x0,4
    5e54:	14e6f263          	bgeu	x13,x14,5f98 <_malloc_r+0x5c0>
    5e58:	01400693          	addi	x13,x0,20
    5e5c:	24e6e263          	bltu	x13,x14,60a0 <_malloc_r+0x6c8>
    5e60:	05c70613          	addi	x12,x14,92
    5e64:	05b70693          	addi	x13,x14,91
    5e68:	00361613          	slli	x12,x12,0x3
    5e6c:	00c98633          	add	x12,x19,x12
    5e70:	00062703          	lw	x14,0(x12)
    5e74:	ff860613          	addi	x12,x12,-8
    5e78:	00e61863          	bne	x12,x14,5e88 <_malloc_r+0x4b0>
    5e7c:	1b40006f          	jal	x0,6030 <_malloc_r+0x658>
    5e80:	00872703          	lw	x14,8(x14)
    5e84:	00e60863          	beq	x12,x14,5e94 <_malloc_r+0x4bc>
    5e88:	00472683          	lw	x13,4(x14)
    5e8c:	ffc6f693          	andi	x13,x13,-4
    5e90:	fed7e8e3          	bltu	x15,x13,5e80 <_malloc_r+0x4a8>
    5e94:	00c72603          	lw	x12,12(x14)
    5e98:	00c42623          	sw	x12,12(x8)
    5e9c:	00e42423          	sw	x14,8(x8)
    5ea0:	00862423          	sw	x8,8(x12)
    5ea4:	00872623          	sw	x8,12(x14)
    5ea8:	cbdff06f          	jal	x0,5b64 <_malloc_r+0x18c>
    5eac:	01400713          	addi	x14,x0,20
    5eb0:	0ef77e63          	bgeu	x14,x15,5fac <_malloc_r+0x5d4>
    5eb4:	05400713          	addi	x14,x0,84
    5eb8:	20f76263          	bltu	x14,x15,60bc <_malloc_r+0x6e4>
    5ebc:	00c4d793          	srli	x15,x9,0xc
    5ec0:	06f78593          	addi	x11,x15,111
    5ec4:	06e78813          	addi	x16,x15,110
    5ec8:	00359613          	slli	x12,x11,0x3
    5ecc:	be9ff06f          	jal	x0,5ab4 <_malloc_r+0xdc>
    5ed0:	001e0e13          	addi	x28,x28,1
    5ed4:	003e7793          	andi	x15,x28,3
    5ed8:	00850513          	addi	x10,x10,8
    5edc:	0e078663          	beq	x15,x0,5fc8 <_malloc_r+0x5f0>
    5ee0:	00c52783          	lw	x15,12(x10)
    5ee4:	cd5ff06f          	jal	x0,5bb8 <_malloc_r+0x1e0>
    5ee8:	00842603          	lw	x12,8(x8)
    5eec:	0014e593          	ori	x11,x9,1
    5ef0:	00b42223          	sw	x11,4(x8)
    5ef4:	00f62623          	sw	x15,12(x12)
    5ef8:	00c7a423          	sw	x12,8(x15)
    5efc:	009404b3          	add	x9,x8,x9
    5f00:	0099aa23          	sw	x9,20(x19)
    5f04:	0099a823          	sw	x9,16(x19)
    5f08:	0016e793          	ori	x15,x13,1
    5f0c:	0114a623          	sw	x17,12(x9)
    5f10:	0114a423          	sw	x17,8(x9)
    5f14:	00f4a223          	sw	x15,4(x9)
    5f18:	00e40733          	add	x14,x8,x14
    5f1c:	00090513          	addi	x10,x18,0
    5f20:	00d72023          	sw	x13,0(x14)
    5f24:	489000ef          	jal	x1,6bac <__malloc_unlock>
    5f28:	00840513          	addi	x10,x8,8
    5f2c:	ce5ff06f          	jal	x0,5c10 <_malloc_r+0x238>
    5f30:	00f407b3          	add	x15,x8,x15
    5f34:	0047a703          	lw	x14,4(x15)
    5f38:	00090513          	addi	x10,x18,0
    5f3c:	00176713          	ori	x14,x14,1
    5f40:	00e7a223          	sw	x14,4(x15)
    5f44:	469000ef          	jal	x1,6bac <__malloc_unlock>
    5f48:	00840513          	addi	x10,x8,8
    5f4c:	cc5ff06f          	jal	x0,5c10 <_malloc_r+0x238>
    5f50:	0034d593          	srli	x11,x9,0x3
    5f54:	00848793          	addi	x15,x9,8
    5f58:	ac1ff06f          	jal	x0,5a18 <_malloc_r+0x40>
    5f5c:	0014e693          	ori	x13,x9,1
    5f60:	00d42223          	sw	x13,4(x8)
    5f64:	009404b3          	add	x9,x8,x9
    5f68:	0099aa23          	sw	x9,20(x19)
    5f6c:	0099a823          	sw	x9,16(x19)
    5f70:	00176693          	ori	x13,x14,1
    5f74:	0114a623          	sw	x17,12(x9)
    5f78:	0114a423          	sw	x17,8(x9)
    5f7c:	00d4a223          	sw	x13,4(x9)
    5f80:	00f407b3          	add	x15,x8,x15
    5f84:	00090513          	addi	x10,x18,0
    5f88:	00e7a023          	sw	x14,0(x15)
    5f8c:	421000ef          	jal	x1,6bac <__malloc_unlock>
    5f90:	00840513          	addi	x10,x8,8
    5f94:	c7dff06f          	jal	x0,5c10 <_malloc_r+0x238>
    5f98:	0067d713          	srli	x14,x15,0x6
    5f9c:	03970613          	addi	x12,x14,57
    5fa0:	03870693          	addi	x13,x14,56
    5fa4:	00361613          	slli	x12,x12,0x3
    5fa8:	ec5ff06f          	jal	x0,5e6c <_malloc_r+0x494>
    5fac:	05c78593          	addi	x11,x15,92
    5fb0:	05b78813          	addi	x16,x15,91
    5fb4:	00359613          	slli	x12,x11,0x3
    5fb8:	afdff06f          	jal	x0,5ab4 <_malloc_r+0xdc>
    5fbc:	00832783          	lw	x15,8(x6)
    5fc0:	fff58593          	addi	x11,x11,-1
    5fc4:	1c679e63          	bne	x15,x6,61a0 <_malloc_r+0x7c8>
    5fc8:	0035f793          	andi	x15,x11,3
    5fcc:	ff830313          	addi	x6,x6,-8
    5fd0:	fe0796e3          	bne	x15,x0,5fbc <_malloc_r+0x5e4>
    5fd4:	0049a703          	lw	x14,4(x19)
    5fd8:	fff64793          	xori	x15,x12,-1
    5fdc:	00e7f7b3          	and	x15,x15,x14
    5fe0:	00f9a223          	sw	x15,4(x19)
    5fe4:	00161613          	slli	x12,x12,0x1
    5fe8:	c4c7eae3          	bltu	x15,x12,5c3c <_malloc_r+0x264>
    5fec:	c40608e3          	beq	x12,x0,5c3c <_malloc_r+0x264>
    5ff0:	00f67733          	and	x14,x12,x15
    5ff4:	00071a63          	bne	x14,x0,6008 <_malloc_r+0x630>
    5ff8:	00161613          	slli	x12,x12,0x1
    5ffc:	00f67733          	and	x14,x12,x15
    6000:	004e0e13          	addi	x28,x28,4
    6004:	fe070ae3          	beq	x14,x0,5ff8 <_malloc_r+0x620>
    6008:	000e0593          	addi	x11,x28,0
    600c:	b99ff06f          	jal	x0,5ba4 <_malloc_r+0x1cc>
    6010:	00840593          	addi	x11,x8,8
    6014:	00090513          	addi	x10,x18,0
    6018:	f1dfa0ef          	jal	x1,f34 <_free_r>
    601c:	000c2583          	lw	x11,0(x24)
    6020:	0089ab83          	lw	x23,8(x19)
    6024:	d61ff06f          	jal	x0,5d84 <_malloc_r+0x3ac>
    6028:	010a8a93          	addi	x21,x21,16
    602c:	c71ff06f          	jal	x0,5c9c <_malloc_r+0x2c4>
    6030:	4026d693          	srai	x13,x13,0x2
    6034:	00100793          	addi	x15,x0,1
    6038:	00d797b3          	sll	x15,x15,x13
    603c:	00f56533          	or	x10,x10,x15
    6040:	00a9a223          	sw	x10,4(x19)
    6044:	e55ff06f          	jal	x0,5e98 <_malloc_r+0x4c0>
    6048:	015b85b3          	add	x11,x23,x21
    604c:	40b005b3          	sub	x11,x0,x11
    6050:	01459593          	slli	x11,x11,0x14
    6054:	0145da13          	srli	x20,x11,0x14
    6058:	000a0593          	addi	x11,x20,0
    605c:	00090513          	addi	x10,x18,0
    6060:	b24fb0ef          	jal	x1,1384 <_sbrk_r>
    6064:	fff00793          	addi	x15,x0,-1
    6068:	ccf512e3          	bne	x10,x15,5d2c <_malloc_r+0x354>
    606c:	00000a13          	addi	x20,x0,0
    6070:	cc5ff06f          	jal	x0,5d34 <_malloc_r+0x35c>
    6074:	00812c03          	lw	x24,8(x2)
    6078:	00100793          	addi	x15,x0,1
    607c:	00fba223          	sw	x15,4(x23)
    6080:	00090513          	addi	x10,x18,0
    6084:	329000ef          	jal	x1,6bac <__malloc_unlock>
    6088:	01812a03          	lw	x20,24(x2)
    608c:	01412a83          	lw	x21,20(x2)
    6090:	01012b03          	lw	x22,16(x2)
    6094:	00c12b83          	lw	x23,12(x2)
    6098:	00412c83          	lw	x25,4(x2)
    609c:	b71ff06f          	jal	x0,5c0c <_malloc_r+0x234>
    60a0:	05400693          	addi	x13,x0,84
    60a4:	06e6ec63          	bltu	x13,x14,611c <_malloc_r+0x744>
    60a8:	00c7d713          	srli	x14,x15,0xc
    60ac:	06f70613          	addi	x12,x14,111
    60b0:	06e70693          	addi	x13,x14,110
    60b4:	00361613          	slli	x12,x12,0x3
    60b8:	db5ff06f          	jal	x0,5e6c <_malloc_r+0x494>
    60bc:	15400713          	addi	x14,x0,340
    60c0:	06f76c63          	bltu	x14,x15,6138 <_malloc_r+0x760>
    60c4:	00f4d793          	srli	x15,x9,0xf
    60c8:	07878593          	addi	x11,x15,120
    60cc:	07778813          	addi	x16,x15,119
    60d0:	00359613          	slli	x12,x11,0x3
    60d4:	9e1ff06f          	jal	x0,5ab4 <_malloc_r+0xdc>
    60d8:	1f418c13          	addi	x24,x3,500 # 12ea4 <__malloc_current_mallinfo>
    60dc:	000c2703          	lw	x14,0(x24)
    60e0:	00ea8733          	add	x14,x21,x14
    60e4:	00ec2023          	sw	x14,0(x24)
    60e8:	bedff06f          	jal	x0,5cd4 <_malloc_r+0x2fc>
    60ec:	0089a403          	lw	x8,8(x19)
    60f0:	00442783          	lw	x15,4(x8)
    60f4:	cd9ff06f          	jal	x0,5dcc <_malloc_r+0x3f4>
    60f8:	01451793          	slli	x15,x10,0x14
    60fc:	bc079ce3          	bne	x15,x0,5cd4 <_malloc_r+0x2fc>
    6100:	0089ab83          	lw	x23,8(x19)
    6104:	015b07b3          	add	x15,x22,x21
    6108:	0017e793          	ori	x15,x15,1
    610c:	00fba223          	sw	x15,4(x23)
    6110:	c79ff06f          	jal	x0,5d88 <_malloc_r+0x3b0>
    6114:	017ca023          	sw	x23,0(x25)
    6118:	bd5ff06f          	jal	x0,5cec <_malloc_r+0x314>
    611c:	15400693          	addi	x13,x0,340
    6120:	04e6e463          	bltu	x13,x14,6168 <_malloc_r+0x790>
    6124:	00f7d713          	srli	x14,x15,0xf
    6128:	07870613          	addi	x12,x14,120
    612c:	07770693          	addi	x13,x14,119
    6130:	00361613          	slli	x12,x12,0x3
    6134:	d39ff06f          	jal	x0,5e6c <_malloc_r+0x494>
    6138:	55400713          	addi	x14,x0,1364
    613c:	04f76463          	bltu	x14,x15,6184 <_malloc_r+0x7ac>
    6140:	0124d793          	srli	x15,x9,0x12
    6144:	07d78593          	addi	x11,x15,125
    6148:	07c78813          	addi	x16,x15,124
    614c:	00359613          	slli	x12,x11,0x3
    6150:	965ff06f          	jal	x0,5ab4 <_malloc_r+0xdc>
    6154:	ff8c8c93          	addi	x25,x25,-8
    6158:	019a8ab3          	add	x21,x21,x25
    615c:	417a8ab3          	sub	x21,x21,x23
    6160:	00000a13          	addi	x20,x0,0
    6164:	bd1ff06f          	jal	x0,5d34 <_malloc_r+0x35c>
    6168:	55400693          	addi	x13,x0,1364
    616c:	02e6e463          	bltu	x13,x14,6194 <_malloc_r+0x7bc>
    6170:	0127d713          	srli	x14,x15,0x12
    6174:	07d70613          	addi	x12,x14,125
    6178:	07c70693          	addi	x13,x14,124
    617c:	00361613          	slli	x12,x12,0x3
    6180:	cedff06f          	jal	x0,5e6c <_malloc_r+0x494>
    6184:	3f800613          	addi	x12,x0,1016
    6188:	07f00593          	addi	x11,x0,127
    618c:	07e00813          	addi	x16,x0,126
    6190:	925ff06f          	jal	x0,5ab4 <_malloc_r+0xdc>
    6194:	3f800613          	addi	x12,x0,1016
    6198:	07e00693          	addi	x13,x0,126
    619c:	cd1ff06f          	jal	x0,5e6c <_malloc_r+0x494>
    61a0:	0049a783          	lw	x15,4(x19)
    61a4:	e41ff06f          	jal	x0,5fe4 <_malloc_r+0x60c>

000061a8 <memchr>:
    61a8:	00357793          	andi	x15,x10,3
    61ac:	0ff5f693          	andi	x13,x11,255
    61b0:	02078a63          	beq	x15,x0,61e4 <memchr+0x3c>
    61b4:	fff60793          	addi	x15,x12,-1
    61b8:	02060e63          	beq	x12,x0,61f4 <memchr+0x4c>
    61bc:	fff00613          	addi	x12,x0,-1
    61c0:	0180006f          	jal	x0,61d8 <memchr+0x30>
    61c4:	00150513          	addi	x10,x10,1
    61c8:	00357713          	andi	x14,x10,3
    61cc:	00070e63          	beq	x14,x0,61e8 <memchr+0x40>
    61d0:	fff78793          	addi	x15,x15,-1
    61d4:	02c78063          	beq	x15,x12,61f4 <memchr+0x4c>
    61d8:	00054703          	lbu	x14,0(x10)
    61dc:	fed714e3          	bne	x14,x13,61c4 <memchr+0x1c>
    61e0:	00008067          	jalr	x0,0(x1)
    61e4:	00060793          	addi	x15,x12,0
    61e8:	00300713          	addi	x14,x0,3
    61ec:	02f76663          	bltu	x14,x15,6218 <memchr+0x70>
    61f0:	00079663          	bne	x15,x0,61fc <memchr+0x54>
    61f4:	00000513          	addi	x10,x0,0
    61f8:	00008067          	jalr	x0,0(x1)
    61fc:	00f507b3          	add	x15,x10,x15
    6200:	00c0006f          	jal	x0,620c <memchr+0x64>
    6204:	00150513          	addi	x10,x10,1
    6208:	fea786e3          	beq	x15,x10,61f4 <memchr+0x4c>
    620c:	00054703          	lbu	x14,0(x10)
    6210:	fed71ae3          	bne	x14,x13,6204 <memchr+0x5c>
    6214:	00008067          	jalr	x0,0(x1)
    6218:	0ff5f593          	andi	x11,x11,255
    621c:	00859713          	slli	x14,x11,0x8
    6220:	00b705b3          	add	x11,x14,x11
    6224:	01059713          	slli	x14,x11,0x10
    6228:	feff08b7          	lui	x17,0xfeff0
    622c:	80808837          	lui	x16,0x80808
    6230:	00e585b3          	add	x11,x11,x14
    6234:	eff88893          	addi	x17,x17,-257 # fefefeff <__heap_end+0xfebefeff>
    6238:	08080813          	addi	x16,x16,128 # 80808080 <__heap_end+0x80408080>
    623c:	00300313          	addi	x6,x0,3
    6240:	00052703          	lw	x14,0(x10)
    6244:	00e5c733          	xor	x14,x11,x14
    6248:	01170633          	add	x12,x14,x17
    624c:	fff74713          	xori	x14,x14,-1
    6250:	00e67733          	and	x14,x12,x14
    6254:	01077733          	and	x14,x14,x16
    6258:	fa0712e3          	bne	x14,x0,61fc <memchr+0x54>
    625c:	ffc78793          	addi	x15,x15,-4
    6260:	00450513          	addi	x10,x10,4
    6264:	fcf36ee3          	bltu	x6,x15,6240 <memchr+0x98>
    6268:	f8079ae3          	bne	x15,x0,61fc <memchr+0x54>
    626c:	f89ff06f          	jal	x0,61f4 <memchr+0x4c>

00006270 <__localeconv_l>:
    6270:	0f050513          	addi	x10,x10,240
    6274:	00008067          	jalr	x0,0(x1)

00006278 <_localeconv_r>:
    6278:	e2418513          	addi	x10,x3,-476 # 12ad4 <__global_locale+0xf0>
    627c:	00008067          	jalr	x0,0(x1)

00006280 <localeconv>:
    6280:	e2418513          	addi	x10,x3,-476 # 12ad4 <__global_locale+0xf0>
    6284:	00008067          	jalr	x0,0(x1)

00006288 <_fclose_r>:
    6288:	ff010113          	addi	x2,x2,-16
    628c:	00112623          	sw	x1,12(x2)
    6290:	01212023          	sw	x18,0(x2)
    6294:	02058863          	beq	x11,x0,62c4 <_fclose_r+0x3c>
    6298:	00812423          	sw	x8,8(x2)
    629c:	00912223          	sw	x9,4(x2)
    62a0:	00058413          	addi	x8,x11,0
    62a4:	00050493          	addi	x9,x10,0
    62a8:	00050663          	beq	x10,x0,62b4 <_fclose_r+0x2c>
    62ac:	03452783          	lw	x15,52(x10)
    62b0:	0c078c63          	beq	x15,x0,6388 <_fclose_r+0x100>
    62b4:	00c41783          	lh	x15,12(x8)
    62b8:	02079263          	bne	x15,x0,62dc <_fclose_r+0x54>
    62bc:	00812403          	lw	x8,8(x2)
    62c0:	00412483          	lw	x9,4(x2)
    62c4:	00c12083          	lw	x1,12(x2)
    62c8:	00000913          	addi	x18,x0,0
    62cc:	00090513          	addi	x10,x18,0
    62d0:	00012903          	lw	x18,0(x2)
    62d4:	01010113          	addi	x2,x2,16
    62d8:	00008067          	jalr	x0,0(x1)
    62dc:	00040593          	addi	x11,x8,0
    62e0:	00048513          	addi	x10,x9,0
    62e4:	11d000ef          	jal	x1,6c00 <__sflush_r>
    62e8:	02c42783          	lw	x15,44(x8)
    62ec:	00050913          	addi	x18,x10,0
    62f0:	00078a63          	beq	x15,x0,6304 <_fclose_r+0x7c>
    62f4:	01c42583          	lw	x11,28(x8)
    62f8:	00048513          	addi	x10,x9,0
    62fc:	000780e7          	jalr	x1,0(x15)
    6300:	06054463          	blt	x10,x0,6368 <_fclose_r+0xe0>
    6304:	00c45783          	lhu	x15,12(x8)
    6308:	0807f793          	andi	x15,x15,128
    630c:	06079663          	bne	x15,x0,6378 <_fclose_r+0xf0>
    6310:	03042583          	lw	x11,48(x8)
    6314:	00058c63          	beq	x11,x0,632c <_fclose_r+0xa4>
    6318:	04040793          	addi	x15,x8,64
    631c:	00f58663          	beq	x11,x15,6328 <_fclose_r+0xa0>
    6320:	00048513          	addi	x10,x9,0
    6324:	c11fa0ef          	jal	x1,f34 <_free_r>
    6328:	02042823          	sw	x0,48(x8)
    632c:	04442583          	lw	x11,68(x8)
    6330:	00058863          	beq	x11,x0,6340 <_fclose_r+0xb8>
    6334:	00048513          	addi	x10,x9,0
    6338:	bfdfa0ef          	jal	x1,f34 <_free_r>
    633c:	04042223          	sw	x0,68(x8)
    6340:	a8dfa0ef          	jal	x1,dcc <__sfp_lock_acquire>
    6344:	00041623          	sh	x0,12(x8)
    6348:	a89fa0ef          	jal	x1,dd0 <__sfp_lock_release>
    634c:	00c12083          	lw	x1,12(x2)
    6350:	00812403          	lw	x8,8(x2)
    6354:	00412483          	lw	x9,4(x2)
    6358:	00090513          	addi	x10,x18,0
    635c:	00012903          	lw	x18,0(x2)
    6360:	01010113          	addi	x2,x2,16
    6364:	00008067          	jalr	x0,0(x1)
    6368:	00c45783          	lhu	x15,12(x8)
    636c:	fff00913          	addi	x18,x0,-1
    6370:	0807f793          	andi	x15,x15,128
    6374:	f8078ee3          	beq	x15,x0,6310 <_fclose_r+0x88>
    6378:	01042583          	lw	x11,16(x8)
    637c:	00048513          	addi	x10,x9,0
    6380:	bb5fa0ef          	jal	x1,f34 <_free_r>
    6384:	f8dff06f          	jal	x0,6310 <_fclose_r+0x88>
    6388:	a21fa0ef          	jal	x1,da8 <__sinit>
    638c:	f29ff06f          	jal	x0,62b4 <_fclose_r+0x2c>

00006390 <fclose>:
    6390:	00050593          	addi	x11,x10,0
    6394:	f041a503          	lw	x10,-252(x3) # 12bb4 <_impure_ptr>
    6398:	ef1ff06f          	jal	x0,6288 <_fclose_r>

0000639c <memmove>:
    639c:	02a5f663          	bgeu	x11,x10,63c8 <memmove+0x2c>
    63a0:	00c58733          	add	x14,x11,x12
    63a4:	02e57263          	bgeu	x10,x14,63c8 <memmove+0x2c>
    63a8:	00c507b3          	add	x15,x10,x12
    63ac:	04060663          	beq	x12,x0,63f8 <memmove+0x5c>
    63b0:	fff74683          	lbu	x13,-1(x14)
    63b4:	fff78793          	addi	x15,x15,-1
    63b8:	fff70713          	addi	x14,x14,-1
    63bc:	00d78023          	sb	x13,0(x15)
    63c0:	fef518e3          	bne	x10,x15,63b0 <memmove+0x14>
    63c4:	00008067          	jalr	x0,0(x1)
    63c8:	00f00793          	addi	x15,x0,15
    63cc:	02c7e863          	bltu	x15,x12,63fc <memmove+0x60>
    63d0:	00050793          	addi	x15,x10,0
    63d4:	fff60693          	addi	x13,x12,-1
    63d8:	0c060a63          	beq	x12,x0,64ac <memmove+0x110>
    63dc:	00168693          	addi	x13,x13,1
    63e0:	00d786b3          	add	x13,x15,x13
    63e4:	0005c703          	lbu	x14,0(x11)
    63e8:	00178793          	addi	x15,x15,1
    63ec:	00158593          	addi	x11,x11,1
    63f0:	fee78fa3          	sb	x14,-1(x15)
    63f4:	fed798e3          	bne	x15,x13,63e4 <memmove+0x48>
    63f8:	00008067          	jalr	x0,0(x1)
    63fc:	00b567b3          	or	x15,x10,x11
    6400:	0037f793          	andi	x15,x15,3
    6404:	08079e63          	bne	x15,x0,64a0 <memmove+0x104>
    6408:	ff060893          	addi	x17,x12,-16
    640c:	ff08f893          	andi	x17,x17,-16
    6410:	01088893          	addi	x17,x17,16
    6414:	011507b3          	add	x15,x10,x17
    6418:	00058693          	addi	x13,x11,0
    641c:	00050713          	addi	x14,x10,0
    6420:	0006a803          	lw	x16,0(x13)
    6424:	01068693          	addi	x13,x13,16
    6428:	01070713          	addi	x14,x14,16
    642c:	ff072823          	sw	x16,-16(x14)
    6430:	ff46a803          	lw	x16,-12(x13)
    6434:	ff072a23          	sw	x16,-12(x14)
    6438:	ff86a803          	lw	x16,-8(x13)
    643c:	ff072c23          	sw	x16,-8(x14)
    6440:	ffc6a803          	lw	x16,-4(x13)
    6444:	ff072e23          	sw	x16,-4(x14)
    6448:	fcf71ce3          	bne	x14,x15,6420 <memmove+0x84>
    644c:	00c67713          	andi	x14,x12,12
    6450:	011585b3          	add	x11,x11,x17
    6454:	00f67813          	andi	x16,x12,15
    6458:	04070c63          	beq	x14,x0,64b0 <memmove+0x114>
    645c:	00058693          	addi	x13,x11,0
    6460:	00078713          	addi	x14,x15,0
    6464:	01078eb3          	add	x29,x15,x16
    6468:	00300e13          	addi	x28,x0,3
    646c:	0006a303          	lw	x6,0(x13)
    6470:	00470713          	addi	x14,x14,4
    6474:	40ee88b3          	sub	x17,x29,x14
    6478:	fe672e23          	sw	x6,-4(x14)
    647c:	00468693          	addi	x13,x13,4
    6480:	ff1e66e3          	bltu	x28,x17,646c <memmove+0xd0>
    6484:	ffc80713          	addi	x14,x16,-4
    6488:	ffc77713          	andi	x14,x14,-4
    648c:	00470713          	addi	x14,x14,4
    6490:	00367613          	andi	x12,x12,3
    6494:	00e787b3          	add	x15,x15,x14
    6498:	00e585b3          	add	x11,x11,x14
    649c:	f39ff06f          	jal	x0,63d4 <memmove+0x38>
    64a0:	fff60693          	addi	x13,x12,-1
    64a4:	00050793          	addi	x15,x10,0
    64a8:	f35ff06f          	jal	x0,63dc <memmove+0x40>
    64ac:	00008067          	jalr	x0,0(x1)
    64b0:	00080613          	addi	x12,x16,0
    64b4:	f21ff06f          	jal	x0,63d4 <memmove+0x38>

000064b8 <memcpy>:
    64b8:	00a5c7b3          	xor	x15,x11,x10
    64bc:	0037f793          	andi	x15,x15,3
    64c0:	00c508b3          	add	x17,x10,x12
    64c4:	06079463          	bne	x15,x0,652c <memcpy+0x74>
    64c8:	00300793          	addi	x15,x0,3
    64cc:	06c7f063          	bgeu	x15,x12,652c <memcpy+0x74>
    64d0:	00357793          	andi	x15,x10,3
    64d4:	00050713          	addi	x14,x10,0
    64d8:	06079a63          	bne	x15,x0,654c <memcpy+0x94>
    64dc:	ffc8f613          	andi	x12,x17,-4
    64e0:	40e606b3          	sub	x13,x12,x14
    64e4:	02000793          	addi	x15,x0,32
    64e8:	08d7ce63          	blt	x15,x13,6584 <memcpy+0xcc>
    64ec:	00058693          	addi	x13,x11,0
    64f0:	00070793          	addi	x15,x14,0
    64f4:	02c77863          	bgeu	x14,x12,6524 <memcpy+0x6c>
    64f8:	0006a803          	lw	x16,0(x13)
    64fc:	00478793          	addi	x15,x15,4
    6500:	00468693          	addi	x13,x13,4
    6504:	ff07ae23          	sw	x16,-4(x15)
    6508:	fec7e8e3          	bltu	x15,x12,64f8 <memcpy+0x40>
    650c:	fff60793          	addi	x15,x12,-1
    6510:	40e787b3          	sub	x15,x15,x14
    6514:	ffc7f793          	andi	x15,x15,-4
    6518:	00478793          	addi	x15,x15,4
    651c:	00f70733          	add	x14,x14,x15
    6520:	00f585b3          	add	x11,x11,x15
    6524:	01176863          	bltu	x14,x17,6534 <memcpy+0x7c>
    6528:	00008067          	jalr	x0,0(x1)
    652c:	00050713          	addi	x14,x10,0
    6530:	05157863          	bgeu	x10,x17,6580 <memcpy+0xc8>
    6534:	0005c783          	lbu	x15,0(x11)
    6538:	00170713          	addi	x14,x14,1
    653c:	00158593          	addi	x11,x11,1
    6540:	fef70fa3          	sb	x15,-1(x14)
    6544:	fee898e3          	bne	x17,x14,6534 <memcpy+0x7c>
    6548:	00008067          	jalr	x0,0(x1)
    654c:	0005c683          	lbu	x13,0(x11)
    6550:	00170713          	addi	x14,x14,1
    6554:	00377793          	andi	x15,x14,3
    6558:	fed70fa3          	sb	x13,-1(x14)
    655c:	00158593          	addi	x11,x11,1
    6560:	f6078ee3          	beq	x15,x0,64dc <memcpy+0x24>
    6564:	0005c683          	lbu	x13,0(x11)
    6568:	00170713          	addi	x14,x14,1
    656c:	00377793          	andi	x15,x14,3
    6570:	fed70fa3          	sb	x13,-1(x14)
    6574:	00158593          	addi	x11,x11,1
    6578:	fc079ae3          	bne	x15,x0,654c <memcpy+0x94>
    657c:	f61ff06f          	jal	x0,64dc <memcpy+0x24>
    6580:	00008067          	jalr	x0,0(x1)
    6584:	ff010113          	addi	x2,x2,-16
    6588:	00812623          	sw	x8,12(x2)
    658c:	02000413          	addi	x8,x0,32
    6590:	0005a383          	lw	x7,0(x11)
    6594:	0045a283          	lw	x5,4(x11)
    6598:	0085af83          	lw	x31,8(x11)
    659c:	00c5af03          	lw	x30,12(x11)
    65a0:	0105ae83          	lw	x29,16(x11)
    65a4:	0145ae03          	lw	x28,20(x11)
    65a8:	0185a303          	lw	x6,24(x11)
    65ac:	01c5a803          	lw	x16,28(x11)
    65b0:	0205a683          	lw	x13,32(x11)
    65b4:	02470713          	addi	x14,x14,36
    65b8:	40e607b3          	sub	x15,x12,x14
    65bc:	fc772e23          	sw	x7,-36(x14)
    65c0:	fe572023          	sw	x5,-32(x14)
    65c4:	fff72223          	sw	x31,-28(x14)
    65c8:	ffe72423          	sw	x30,-24(x14)
    65cc:	ffd72623          	sw	x29,-20(x14)
    65d0:	ffc72823          	sw	x28,-16(x14)
    65d4:	fe672a23          	sw	x6,-12(x14)
    65d8:	ff072c23          	sw	x16,-8(x14)
    65dc:	fed72e23          	sw	x13,-4(x14)
    65e0:	02458593          	addi	x11,x11,36
    65e4:	faf446e3          	blt	x8,x15,6590 <memcpy+0xd8>
    65e8:	00058693          	addi	x13,x11,0
    65ec:	00070793          	addi	x15,x14,0
    65f0:	02c77863          	bgeu	x14,x12,6620 <memcpy+0x168>
    65f4:	0006a803          	lw	x16,0(x13)
    65f8:	00478793          	addi	x15,x15,4
    65fc:	00468693          	addi	x13,x13,4
    6600:	ff07ae23          	sw	x16,-4(x15)
    6604:	fec7e8e3          	bltu	x15,x12,65f4 <memcpy+0x13c>
    6608:	fff60793          	addi	x15,x12,-1
    660c:	40e787b3          	sub	x15,x15,x14
    6610:	ffc7f793          	andi	x15,x15,-4
    6614:	00478793          	addi	x15,x15,4
    6618:	00f70733          	add	x14,x14,x15
    661c:	00f585b3          	add	x11,x11,x15
    6620:	01176863          	bltu	x14,x17,6630 <memcpy+0x178>
    6624:	00c12403          	lw	x8,12(x2)
    6628:	01010113          	addi	x2,x2,16
    662c:	00008067          	jalr	x0,0(x1)
    6630:	0005c783          	lbu	x15,0(x11)
    6634:	00170713          	addi	x14,x14,1
    6638:	00158593          	addi	x11,x11,1
    663c:	fef70fa3          	sb	x15,-1(x14)
    6640:	fee882e3          	beq	x17,x14,6624 <memcpy+0x16c>
    6644:	0005c783          	lbu	x15,0(x11)
    6648:	00170713          	addi	x14,x14,1
    664c:	00158593          	addi	x11,x11,1
    6650:	fef70fa3          	sb	x15,-1(x14)
    6654:	fce89ee3          	bne	x17,x14,6630 <memcpy+0x178>
    6658:	fcdff06f          	jal	x0,6624 <memcpy+0x16c>

0000665c <strlen>:
    665c:	00357793          	andi	x15,x10,3
    6660:	00050713          	addi	x14,x10,0
    6664:	04079c63          	bne	x15,x0,66bc <strlen+0x60>
    6668:	7f7f86b7          	lui	x13,0x7f7f8
    666c:	f7f68693          	addi	x13,x13,-129 # 7f7f7f7f <__heap_end+0x7f3f7f7f>
    6670:	fff00593          	addi	x11,x0,-1
    6674:	00072603          	lw	x12,0(x14)
    6678:	00470713          	addi	x14,x14,4
    667c:	00d677b3          	and	x15,x12,x13
    6680:	00d787b3          	add	x15,x15,x13
    6684:	00c7e7b3          	or	x15,x15,x12
    6688:	00d7e7b3          	or	x15,x15,x13
    668c:	feb784e3          	beq	x15,x11,6674 <strlen+0x18>
    6690:	ffc74683          	lbu	x13,-4(x14)
    6694:	40a707b3          	sub	x15,x14,x10
    6698:	04068463          	beq	x13,x0,66e0 <strlen+0x84>
    669c:	ffd74683          	lbu	x13,-3(x14)
    66a0:	02068c63          	beq	x13,x0,66d8 <strlen+0x7c>
    66a4:	ffe74503          	lbu	x10,-2(x14)
    66a8:	00a03533          	sltu	x10,x0,x10
    66ac:	00f50533          	add	x10,x10,x15
    66b0:	ffe50513          	addi	x10,x10,-2
    66b4:	00008067          	jalr	x0,0(x1)
    66b8:	fa0688e3          	beq	x13,x0,6668 <strlen+0xc>
    66bc:	00074783          	lbu	x15,0(x14)
    66c0:	00170713          	addi	x14,x14,1
    66c4:	00377693          	andi	x13,x14,3
    66c8:	fe0798e3          	bne	x15,x0,66b8 <strlen+0x5c>
    66cc:	40a70733          	sub	x14,x14,x10
    66d0:	fff70513          	addi	x10,x14,-1
    66d4:	00008067          	jalr	x0,0(x1)
    66d8:	ffd78513          	addi	x10,x15,-3
    66dc:	00008067          	jalr	x0,0(x1)
    66e0:	ffc78513          	addi	x10,x15,-4
    66e4:	00008067          	jalr	x0,0(x1)

000066e8 <__swsetup_r>:
    66e8:	ff010113          	addi	x2,x2,-16
    66ec:	00812423          	sw	x8,8(x2)
    66f0:	00912223          	sw	x9,4(x2)
    66f4:	00112623          	sw	x1,12(x2)
    66f8:	f041a783          	lw	x15,-252(x3) # 12bb4 <_impure_ptr>
    66fc:	00050493          	addi	x9,x10,0
    6700:	00058413          	addi	x8,x11,0
    6704:	00078663          	beq	x15,x0,6710 <__swsetup_r+0x28>
    6708:	0347a703          	lw	x14,52(x15)
    670c:	0e070c63          	beq	x14,x0,6804 <__swsetup_r+0x11c>
    6710:	00c41783          	lh	x15,12(x8)
    6714:	0087f713          	andi	x14,x15,8
    6718:	06070a63          	beq	x14,x0,678c <__swsetup_r+0xa4>
    671c:	01042703          	lw	x14,16(x8)
    6720:	08070663          	beq	x14,x0,67ac <__swsetup_r+0xc4>
    6724:	0017f693          	andi	x13,x15,1
    6728:	02068863          	beq	x13,x0,6758 <__swsetup_r+0x70>
    672c:	01442683          	lw	x13,20(x8)
    6730:	00042423          	sw	x0,8(x8)
    6734:	00000513          	addi	x10,x0,0
    6738:	40d006b3          	sub	x13,x0,x13
    673c:	00d42c23          	sw	x13,24(x8)
    6740:	02070a63          	beq	x14,x0,6774 <__swsetup_r+0x8c>
    6744:	00c12083          	lw	x1,12(x2)
    6748:	00812403          	lw	x8,8(x2)
    674c:	00412483          	lw	x9,4(x2)
    6750:	01010113          	addi	x2,x2,16
    6754:	00008067          	jalr	x0,0(x1)
    6758:	0027f693          	andi	x13,x15,2
    675c:	00000613          	addi	x12,x0,0
    6760:	00069463          	bne	x13,x0,6768 <__swsetup_r+0x80>
    6764:	01442603          	lw	x12,20(x8)
    6768:	00c42423          	sw	x12,8(x8)
    676c:	00000513          	addi	x10,x0,0
    6770:	fc071ae3          	bne	x14,x0,6744 <__swsetup_r+0x5c>
    6774:	0807f713          	andi	x14,x15,128
    6778:	fc0706e3          	beq	x14,x0,6744 <__swsetup_r+0x5c>
    677c:	0407e793          	ori	x15,x15,64
    6780:	00f41623          	sh	x15,12(x8)
    6784:	fff00513          	addi	x10,x0,-1
    6788:	fbdff06f          	jal	x0,6744 <__swsetup_r+0x5c>
    678c:	0107f713          	andi	x14,x15,16
    6790:	08070063          	beq	x14,x0,6810 <__swsetup_r+0x128>
    6794:	0047f713          	andi	x14,x15,4
    6798:	02071c63          	bne	x14,x0,67d0 <__swsetup_r+0xe8>
    679c:	01042703          	lw	x14,16(x8)
    67a0:	0087e793          	ori	x15,x15,8
    67a4:	00f41623          	sh	x15,12(x8)
    67a8:	f6071ee3          	bne	x14,x0,6724 <__swsetup_r+0x3c>
    67ac:	2807f693          	andi	x13,x15,640
    67b0:	20000613          	addi	x12,x0,512
    67b4:	f6c688e3          	beq	x13,x12,6724 <__swsetup_r+0x3c>
    67b8:	00040593          	addi	x11,x8,0
    67bc:	00048513          	addi	x10,x9,0
    67c0:	068000ef          	jal	x1,6828 <__smakebuf_r>
    67c4:	00c41783          	lh	x15,12(x8)
    67c8:	01042703          	lw	x14,16(x8)
    67cc:	f59ff06f          	jal	x0,6724 <__swsetup_r+0x3c>
    67d0:	03042583          	lw	x11,48(x8)
    67d4:	00058e63          	beq	x11,x0,67f0 <__swsetup_r+0x108>
    67d8:	04040713          	addi	x14,x8,64
    67dc:	00e58863          	beq	x11,x14,67ec <__swsetup_r+0x104>
    67e0:	00048513          	addi	x10,x9,0
    67e4:	f50fa0ef          	jal	x1,f34 <_free_r>
    67e8:	00c41783          	lh	x15,12(x8)
    67ec:	02042823          	sw	x0,48(x8)
    67f0:	01042703          	lw	x14,16(x8)
    67f4:	fdb7f793          	andi	x15,x15,-37
    67f8:	00042223          	sw	x0,4(x8)
    67fc:	00e42023          	sw	x14,0(x8)
    6800:	fa1ff06f          	jal	x0,67a0 <__swsetup_r+0xb8>
    6804:	00078513          	addi	x10,x15,0
    6808:	da0fa0ef          	jal	x1,da8 <__sinit>
    680c:	f05ff06f          	jal	x0,6710 <__swsetup_r+0x28>
    6810:	00900713          	addi	x14,x0,9
    6814:	00e4a023          	sw	x14,0(x9)
    6818:	0407e793          	ori	x15,x15,64
    681c:	00f41623          	sh	x15,12(x8)
    6820:	fff00513          	addi	x10,x0,-1
    6824:	f21ff06f          	jal	x0,6744 <__swsetup_r+0x5c>

00006828 <__smakebuf_r>:
    6828:	00c59783          	lh	x15,12(x11)
    682c:	f9010113          	addi	x2,x2,-112
    6830:	06812423          	sw	x8,104(x2)
    6834:	06112623          	sw	x1,108(x2)
    6838:	0027f713          	andi	x14,x15,2
    683c:	00058413          	addi	x8,x11,0
    6840:	02070463          	beq	x14,x0,6868 <__smakebuf_r+0x40>
    6844:	04358793          	addi	x15,x11,67
    6848:	00f5a023          	sw	x15,0(x11)
    684c:	00f5a823          	sw	x15,16(x11)
    6850:	00100793          	addi	x15,x0,1
    6854:	00f5aa23          	sw	x15,20(x11)
    6858:	06c12083          	lw	x1,108(x2)
    685c:	06812403          	lw	x8,104(x2)
    6860:	07010113          	addi	x2,x2,112
    6864:	00008067          	jalr	x0,0(x1)
    6868:	00e59583          	lh	x11,14(x11)
    686c:	07212023          	sw	x18,96(x2)
    6870:	06912223          	sw	x9,100(x2)
    6874:	00050913          	addi	x18,x10,0
    6878:	0605ce63          	blt	x11,x0,68f4 <__smakebuf_r+0xcc>
    687c:	00810613          	addi	x12,x2,8
    6880:	669000ef          	jal	x1,76e8 <_fstat_r>
    6884:	06054663          	blt	x10,x0,68f0 <__smakebuf_r+0xc8>
    6888:	40000593          	addi	x11,x0,1024
    688c:	00090513          	addi	x10,x18,0
    6890:	00c12483          	lw	x9,12(x2)
    6894:	944ff0ef          	jal	x1,59d8 <_malloc_r>
    6898:	00c41783          	lh	x15,12(x8)
    689c:	0a050a63          	beq	x10,x0,6950 <__smakebuf_r+0x128>
    68a0:	40000713          	addi	x14,x0,1024
    68a4:	0807e793          	ori	x15,x15,128
    68a8:	00e42a23          	sw	x14,20(x8)
    68ac:	0000f737          	lui	x14,0xf
    68b0:	00e4f4b3          	and	x9,x9,x14
    68b4:	00f41623          	sh	x15,12(x8)
    68b8:	00a42023          	sw	x10,0(x8)
    68bc:	00a42823          	sw	x10,16(x8)
    68c0:	00002737          	lui	x14,0x2
    68c4:	0ce49663          	bne	x9,x14,6990 <__smakebuf_r+0x168>
    68c8:	00e41583          	lh	x11,14(x8)
    68cc:	00090513          	addi	x10,x18,0
    68d0:	671000ef          	jal	x1,7740 <_isatty_r>
    68d4:	00001737          	lui	x14,0x1
    68d8:	00c41783          	lh	x15,12(x8)
    68dc:	80070713          	addi	x14,x14,-2048 # 800 <memset+0x94>
    68e0:	04050863          	beq	x10,x0,6930 <__smakebuf_r+0x108>
    68e4:	ffc7f793          	andi	x15,x15,-4
    68e8:	0017e793          	ori	x15,x15,1
    68ec:	0440006f          	jal	x0,6930 <__smakebuf_r+0x108>
    68f0:	00c41783          	lh	x15,12(x8)
    68f4:	0807f493          	andi	x9,x15,128
    68f8:	0014b493          	sltiu	x9,x9,1
    68fc:	409004b3          	sub	x9,x0,x9
    6900:	3c04f493          	andi	x9,x9,960
    6904:	04048493          	addi	x9,x9,64
    6908:	00048593          	addi	x11,x9,0
    690c:	00090513          	addi	x10,x18,0
    6910:	8c8ff0ef          	jal	x1,59d8 <_malloc_r>
    6914:	00c41783          	lh	x15,12(x8)
    6918:	02050c63          	beq	x10,x0,6950 <__smakebuf_r+0x128>
    691c:	0807e793          	ori	x15,x15,128
    6920:	00a42023          	sw	x10,0(x8)
    6924:	00a42823          	sw	x10,16(x8)
    6928:	00942a23          	sw	x9,20(x8)
    692c:	00000713          	addi	x14,x0,0
    6930:	00e7e7b3          	or	x15,x15,x14
    6934:	06c12083          	lw	x1,108(x2)
    6938:	00f41623          	sh	x15,12(x8)
    693c:	06812403          	lw	x8,104(x2)
    6940:	06412483          	lw	x9,100(x2)
    6944:	06012903          	lw	x18,96(x2)
    6948:	07010113          	addi	x2,x2,112
    694c:	00008067          	jalr	x0,0(x1)
    6950:	2007f713          	andi	x14,x15,512
    6954:	02071863          	bne	x14,x0,6984 <__smakebuf_r+0x15c>
    6958:	ffc7f793          	andi	x15,x15,-4
    695c:	0027e793          	ori	x15,x15,2
    6960:	04340713          	addi	x14,x8,67
    6964:	00f41623          	sh	x15,12(x8)
    6968:	00100793          	addi	x15,x0,1
    696c:	06412483          	lw	x9,100(x2)
    6970:	06012903          	lw	x18,96(x2)
    6974:	00e42023          	sw	x14,0(x8)
    6978:	00e42823          	sw	x14,16(x8)
    697c:	00f42a23          	sw	x15,20(x8)
    6980:	ed9ff06f          	jal	x0,6858 <__smakebuf_r+0x30>
    6984:	06412483          	lw	x9,100(x2)
    6988:	06012903          	lw	x18,96(x2)
    698c:	ecdff06f          	jal	x0,6858 <__smakebuf_r+0x30>
    6990:	00001737          	lui	x14,0x1
    6994:	80070713          	addi	x14,x14,-2048 # 800 <memset+0x94>
    6998:	f99ff06f          	jal	x0,6930 <__smakebuf_r+0x108>

0000699c <__swhatbuf_r>:
    699c:	f9010113          	addi	x2,x2,-112
    69a0:	06812423          	sw	x8,104(x2)
    69a4:	00058413          	addi	x8,x11,0
    69a8:	00e59583          	lh	x11,14(x11)
    69ac:	06912223          	sw	x9,100(x2)
    69b0:	07212023          	sw	x18,96(x2)
    69b4:	06112623          	sw	x1,108(x2)
    69b8:	00060493          	addi	x9,x12,0
    69bc:	00068913          	addi	x18,x13,0
    69c0:	0405ca63          	blt	x11,x0,6a14 <__swhatbuf_r+0x78>
    69c4:	00810613          	addi	x12,x2,8
    69c8:	521000ef          	jal	x1,76e8 <_fstat_r>
    69cc:	04054463          	blt	x10,x0,6a14 <__swhatbuf_r+0x78>
    69d0:	00c12703          	lw	x14,12(x2)
    69d4:	0000f7b7          	lui	x15,0xf
    69d8:	06c12083          	lw	x1,108(x2)
    69dc:	00e7f7b3          	and	x15,x15,x14
    69e0:	ffffe737          	lui	x14,0xffffe
    69e4:	00e787b3          	add	x15,x15,x14
    69e8:	06812403          	lw	x8,104(x2)
    69ec:	0017b793          	sltiu	x15,x15,1
    69f0:	00f92023          	sw	x15,0(x18)
    69f4:	40000713          	addi	x14,x0,1024
    69f8:	00e4a023          	sw	x14,0(x9)
    69fc:	00001537          	lui	x10,0x1
    6a00:	06412483          	lw	x9,100(x2)
    6a04:	06012903          	lw	x18,96(x2)
    6a08:	80050513          	addi	x10,x10,-2048 # 800 <memset+0x94>
    6a0c:	07010113          	addi	x2,x2,112
    6a10:	00008067          	jalr	x0,0(x1)
    6a14:	00c45783          	lhu	x15,12(x8)
    6a18:	0807f793          	andi	x15,x15,128
    6a1c:	02078863          	beq	x15,x0,6a4c <__swhatbuf_r+0xb0>
    6a20:	06c12083          	lw	x1,108(x2)
    6a24:	06812403          	lw	x8,104(x2)
    6a28:	00000793          	addi	x15,x0,0
    6a2c:	00f92023          	sw	x15,0(x18)
    6a30:	04000713          	addi	x14,x0,64
    6a34:	00e4a023          	sw	x14,0(x9)
    6a38:	06012903          	lw	x18,96(x2)
    6a3c:	06412483          	lw	x9,100(x2)
    6a40:	00000513          	addi	x10,x0,0
    6a44:	07010113          	addi	x2,x2,112
    6a48:	00008067          	jalr	x0,0(x1)
    6a4c:	06c12083          	lw	x1,108(x2)
    6a50:	06812403          	lw	x8,104(x2)
    6a54:	00f92023          	sw	x15,0(x18)
    6a58:	40000713          	addi	x14,x0,1024
    6a5c:	00e4a023          	sw	x14,0(x9)
    6a60:	06012903          	lw	x18,96(x2)
    6a64:	06412483          	lw	x9,100(x2)
    6a68:	00000513          	addi	x10,x0,0
    6a6c:	07010113          	addi	x2,x2,112
    6a70:	00008067          	jalr	x0,0(x1)

00006a74 <_putc_r>:
    6a74:	fe010113          	addi	x2,x2,-32
    6a78:	00812c23          	sw	x8,24(x2)
    6a7c:	00112e23          	sw	x1,28(x2)
    6a80:	00050413          	addi	x8,x10,0
    6a84:	00050663          	beq	x10,x0,6a90 <_putc_r+0x1c>
    6a88:	03452783          	lw	x15,52(x10)
    6a8c:	06078063          	beq	x15,x0,6aec <_putc_r+0x78>
    6a90:	00862783          	lw	x15,8(x12)
    6a94:	fff78793          	addi	x15,x15,-1 # efff <__multf3+0x6eb>
    6a98:	00f62423          	sw	x15,8(x12)
    6a9c:	0007dc63          	bge	x15,x0,6ab4 <_putc_r+0x40>
    6aa0:	01862703          	lw	x14,24(x12)
    6aa4:	02e7ca63          	blt	x15,x14,6ad8 <_putc_r+0x64>
    6aa8:	0ff5f793          	andi	x15,x11,255
    6aac:	00a00713          	addi	x14,x0,10
    6ab0:	02e78463          	beq	x15,x14,6ad8 <_putc_r+0x64>
    6ab4:	00062783          	lw	x15,0(x12)
    6ab8:	0ff5f513          	andi	x10,x11,255
    6abc:	00178713          	addi	x14,x15,1
    6ac0:	00e62023          	sw	x14,0(x12)
    6ac4:	00b78023          	sb	x11,0(x15)
    6ac8:	01c12083          	lw	x1,28(x2)
    6acc:	01812403          	lw	x8,24(x2)
    6ad0:	02010113          	addi	x2,x2,32
    6ad4:	00008067          	jalr	x0,0(x1)
    6ad8:	00040513          	addi	x10,x8,0
    6adc:	01812403          	lw	x8,24(x2)
    6ae0:	01c12083          	lw	x1,28(x2)
    6ae4:	02010113          	addi	x2,x2,32
    6ae8:	67c0306f          	jal	x0,a164 <__swbuf_r>
    6aec:	00c12623          	sw	x12,12(x2)
    6af0:	00b12423          	sw	x11,8(x2)
    6af4:	ab4fa0ef          	jal	x1,da8 <__sinit>
    6af8:	00c12603          	lw	x12,12(x2)
    6afc:	00812583          	lw	x11,8(x2)
    6b00:	f91ff06f          	jal	x0,6a90 <_putc_r+0x1c>

00006b04 <putc>:
    6b04:	fe010113          	addi	x2,x2,-32
    6b08:	00912c23          	sw	x9,24(x2)
    6b0c:	01212a23          	sw	x18,20(x2)
    6b10:	00112e23          	sw	x1,28(x2)
    6b14:	f041a903          	lw	x18,-252(x3) # 12bb4 <_impure_ptr>
    6b18:	00050493          	addi	x9,x10,0
    6b1c:	00090663          	beq	x18,x0,6b28 <putc+0x24>
    6b20:	03492783          	lw	x15,52(x18)
    6b24:	06078863          	beq	x15,x0,6b94 <putc+0x90>
    6b28:	0085a783          	lw	x15,8(x11)
    6b2c:	fff78793          	addi	x15,x15,-1
    6b30:	00f5a423          	sw	x15,8(x11)
    6b34:	0007dc63          	bge	x15,x0,6b4c <putc+0x48>
    6b38:	0185a703          	lw	x14,24(x11)
    6b3c:	02e7cc63          	blt	x15,x14,6b74 <putc+0x70>
    6b40:	0ff4f793          	andi	x15,x9,255
    6b44:	00a00713          	addi	x14,x0,10
    6b48:	02e78663          	beq	x15,x14,6b74 <putc+0x70>
    6b4c:	0005a783          	lw	x15,0(x11)
    6b50:	0ff4f513          	andi	x10,x9,255
    6b54:	00178713          	addi	x14,x15,1
    6b58:	00e5a023          	sw	x14,0(x11)
    6b5c:	00978023          	sb	x9,0(x15)
    6b60:	01c12083          	lw	x1,28(x2)
    6b64:	01812483          	lw	x9,24(x2)
    6b68:	01412903          	lw	x18,20(x2)
    6b6c:	02010113          	addi	x2,x2,32
    6b70:	00008067          	jalr	x0,0(x1)
    6b74:	01c12083          	lw	x1,28(x2)
    6b78:	00058613          	addi	x12,x11,0
    6b7c:	00090513          	addi	x10,x18,0
    6b80:	00048593          	addi	x11,x9,0
    6b84:	01412903          	lw	x18,20(x2)
    6b88:	01812483          	lw	x9,24(x2)
    6b8c:	02010113          	addi	x2,x2,32
    6b90:	5d40306f          	jal	x0,a164 <__swbuf_r>
    6b94:	00090513          	addi	x10,x18,0
    6b98:	00b12623          	sw	x11,12(x2)
    6b9c:	a0cfa0ef          	jal	x1,da8 <__sinit>
    6ba0:	00c12583          	lw	x11,12(x2)
    6ba4:	f85ff06f          	jal	x0,6b28 <putc+0x24>

00006ba8 <__malloc_lock>:
    6ba8:	00008067          	jalr	x0,0(x1)

00006bac <__malloc_unlock>:
    6bac:	00008067          	jalr	x0,0(x1)

00006bb0 <_close_r>:
    6bb0:	ff010113          	addi	x2,x2,-16
    6bb4:	00812423          	sw	x8,8(x2)
    6bb8:	00050413          	addi	x8,x10,0
    6bbc:	00058513          	addi	x10,x11,0
    6bc0:	f001aa23          	sw	x0,-236(x3) # 12bc4 <errno>
    6bc4:	00112623          	sw	x1,12(x2)
    6bc8:	f42f90ef          	jal	x1,30a <_close>
    6bcc:	fff00793          	addi	x15,x0,-1
    6bd0:	00f50a63          	beq	x10,x15,6be4 <_close_r+0x34>
    6bd4:	00c12083          	lw	x1,12(x2)
    6bd8:	00812403          	lw	x8,8(x2)
    6bdc:	01010113          	addi	x2,x2,16
    6be0:	00008067          	jalr	x0,0(x1)
    6be4:	f141a783          	lw	x15,-236(x3) # 12bc4 <errno>
    6be8:	fe0786e3          	beq	x15,x0,6bd4 <_close_r+0x24>
    6bec:	00c12083          	lw	x1,12(x2)
    6bf0:	00f42023          	sw	x15,0(x8)
    6bf4:	00812403          	lw	x8,8(x2)
    6bf8:	01010113          	addi	x2,x2,16
    6bfc:	00008067          	jalr	x0,0(x1)

00006c00 <__sflush_r>:
    6c00:	00c59783          	lh	x15,12(x11)
    6c04:	fe010113          	addi	x2,x2,-32
    6c08:	00812c23          	sw	x8,24(x2)
    6c0c:	01312623          	sw	x19,12(x2)
    6c10:	00112e23          	sw	x1,28(x2)
    6c14:	0087f713          	andi	x14,x15,8
    6c18:	00058413          	addi	x8,x11,0
    6c1c:	00050993          	addi	x19,x10,0
    6c20:	12071063          	bne	x14,x0,6d40 <__sflush_r+0x140>
    6c24:	00001737          	lui	x14,0x1
    6c28:	80070713          	addi	x14,x14,-2048 # 800 <memset+0x94>
    6c2c:	0045a683          	lw	x13,4(x11)
    6c30:	00e7e733          	or	x14,x15,x14
    6c34:	00e59623          	sh	x14,12(x11)
    6c38:	18d05a63          	bge	x0,x13,6dcc <__sflush_r+0x1cc>
    6c3c:	02842803          	lw	x16,40(x8)
    6c40:	0e080463          	beq	x16,x0,6d28 <__sflush_r+0x128>
    6c44:	00912a23          	sw	x9,20(x2)
    6c48:	01379693          	slli	x13,x15,0x13
    6c4c:	0009a483          	lw	x9,0(x19)
    6c50:	0009a023          	sw	x0,0(x19)
    6c54:	01c42583          	lw	x11,28(x8)
    6c58:	1806c663          	blt	x13,x0,6de4 <__sflush_r+0x1e4>
    6c5c:	00000613          	addi	x12,x0,0
    6c60:	00100693          	addi	x13,x0,1
    6c64:	00098513          	addi	x10,x19,0
    6c68:	000800e7          	jalr	x1,0(x16)
    6c6c:	fff00793          	addi	x15,x0,-1
    6c70:	00050613          	addi	x12,x10,0
    6c74:	1af50a63          	beq	x10,x15,6e28 <__sflush_r+0x228>
    6c78:	00c41703          	lh	x14,12(x8)
    6c7c:	02842803          	lw	x16,40(x8)
    6c80:	01c42583          	lw	x11,28(x8)
    6c84:	00477713          	andi	x14,x14,4
    6c88:	00070e63          	beq	x14,x0,6ca4 <__sflush_r+0xa4>
    6c8c:	00442703          	lw	x14,4(x8)
    6c90:	03042783          	lw	x15,48(x8)
    6c94:	40e60633          	sub	x12,x12,x14
    6c98:	00078663          	beq	x15,x0,6ca4 <__sflush_r+0xa4>
    6c9c:	03c42783          	lw	x15,60(x8)
    6ca0:	40f60633          	sub	x12,x12,x15
    6ca4:	00000693          	addi	x13,x0,0
    6ca8:	00098513          	addi	x10,x19,0
    6cac:	000800e7          	jalr	x1,0(x16)
    6cb0:	fff00713          	addi	x14,x0,-1
    6cb4:	00c41783          	lh	x15,12(x8)
    6cb8:	12e51a63          	bne	x10,x14,6dec <__sflush_r+0x1ec>
    6cbc:	0009a683          	lw	x13,0(x19)
    6cc0:	01d00713          	addi	x14,x0,29
    6cc4:	18d76063          	bltu	x14,x13,6e44 <__sflush_r+0x244>
    6cc8:	20400737          	lui	x14,0x20400
    6ccc:	00170713          	addi	x14,x14,1 # 20400001 <__heap_end+0x20000001>
    6cd0:	00d75733          	srl	x14,x14,x13
    6cd4:	00177713          	andi	x14,x14,1
    6cd8:	16070663          	beq	x14,x0,6e44 <__sflush_r+0x244>
    6cdc:	01042603          	lw	x12,16(x8)
    6ce0:	fffff737          	lui	x14,0xfffff
    6ce4:	7ff70713          	addi	x14,x14,2047 # fffff7ff <__heap_end+0xffbff7ff>
    6ce8:	00e7f733          	and	x14,x15,x14
    6cec:	00e41623          	sh	x14,12(x8)
    6cf0:	00042223          	sw	x0,4(x8)
    6cf4:	00c42023          	sw	x12,0(x8)
    6cf8:	01379713          	slli	x14,x15,0x13
    6cfc:	00075463          	bge	x14,x0,6d04 <__sflush_r+0x104>
    6d00:	10068863          	beq	x13,x0,6e10 <__sflush_r+0x210>
    6d04:	03042583          	lw	x11,48(x8)
    6d08:	0099a023          	sw	x9,0(x19)
    6d0c:	10058a63          	beq	x11,x0,6e20 <__sflush_r+0x220>
    6d10:	04040793          	addi	x15,x8,64
    6d14:	00f58663          	beq	x11,x15,6d20 <__sflush_r+0x120>
    6d18:	00098513          	addi	x10,x19,0
    6d1c:	a18fa0ef          	jal	x1,f34 <_free_r>
    6d20:	01412483          	lw	x9,20(x2)
    6d24:	02042823          	sw	x0,48(x8)
    6d28:	01c12083          	lw	x1,28(x2)
    6d2c:	01812403          	lw	x8,24(x2)
    6d30:	00c12983          	lw	x19,12(x2)
    6d34:	00000513          	addi	x10,x0,0
    6d38:	02010113          	addi	x2,x2,32
    6d3c:	00008067          	jalr	x0,0(x1)
    6d40:	01212823          	sw	x18,16(x2)
    6d44:	0105a903          	lw	x18,16(x11)
    6d48:	08090a63          	beq	x18,x0,6ddc <__sflush_r+0x1dc>
    6d4c:	00912a23          	sw	x9,20(x2)
    6d50:	0005a483          	lw	x9,0(x11)
    6d54:	0037f793          	andi	x15,x15,3
    6d58:	0125a023          	sw	x18,0(x11)
    6d5c:	412484b3          	sub	x9,x9,x18
    6d60:	00000713          	addi	x14,x0,0
    6d64:	00079463          	bne	x15,x0,6d6c <__sflush_r+0x16c>
    6d68:	0145a703          	lw	x14,20(x11)
    6d6c:	00e42423          	sw	x14,8(x8)
    6d70:	00904863          	blt	x0,x9,6d80 <__sflush_r+0x180>
    6d74:	0640006f          	jal	x0,6dd8 <__sflush_r+0x1d8>
    6d78:	00a90933          	add	x18,x18,x10
    6d7c:	04905e63          	bge	x0,x9,6dd8 <__sflush_r+0x1d8>
    6d80:	02442783          	lw	x15,36(x8)
    6d84:	01c42583          	lw	x11,28(x8)
    6d88:	00048693          	addi	x13,x9,0
    6d8c:	00090613          	addi	x12,x18,0
    6d90:	00098513          	addi	x10,x19,0
    6d94:	000780e7          	jalr	x1,0(x15)
    6d98:	40a484b3          	sub	x9,x9,x10
    6d9c:	fca04ee3          	blt	x0,x10,6d78 <__sflush_r+0x178>
    6da0:	00c41783          	lh	x15,12(x8)
    6da4:	01012903          	lw	x18,16(x2)
    6da8:	0407e793          	ori	x15,x15,64
    6dac:	01c12083          	lw	x1,28(x2)
    6db0:	00f41623          	sh	x15,12(x8)
    6db4:	01812403          	lw	x8,24(x2)
    6db8:	01412483          	lw	x9,20(x2)
    6dbc:	00c12983          	lw	x19,12(x2)
    6dc0:	fff00513          	addi	x10,x0,-1
    6dc4:	02010113          	addi	x2,x2,32
    6dc8:	00008067          	jalr	x0,0(x1)
    6dcc:	03c5a683          	lw	x13,60(x11)
    6dd0:	e6d046e3          	blt	x0,x13,6c3c <__sflush_r+0x3c>
    6dd4:	f55ff06f          	jal	x0,6d28 <__sflush_r+0x128>
    6dd8:	01412483          	lw	x9,20(x2)
    6ddc:	01012903          	lw	x18,16(x2)
    6de0:	f49ff06f          	jal	x0,6d28 <__sflush_r+0x128>
    6de4:	05042603          	lw	x12,80(x8)
    6de8:	e9dff06f          	jal	x0,6c84 <__sflush_r+0x84>
    6dec:	01042683          	lw	x13,16(x8)
    6df0:	fffff737          	lui	x14,0xfffff
    6df4:	7ff70713          	addi	x14,x14,2047 # fffff7ff <__heap_end+0xffbff7ff>
    6df8:	00e7f733          	and	x14,x15,x14
    6dfc:	00e41623          	sh	x14,12(x8)
    6e00:	00042223          	sw	x0,4(x8)
    6e04:	00d42023          	sw	x13,0(x8)
    6e08:	01379713          	slli	x14,x15,0x13
    6e0c:	ee075ce3          	bge	x14,x0,6d04 <__sflush_r+0x104>
    6e10:	03042583          	lw	x11,48(x8)
    6e14:	04a42823          	sw	x10,80(x8)
    6e18:	0099a023          	sw	x9,0(x19)
    6e1c:	ee059ae3          	bne	x11,x0,6d10 <__sflush_r+0x110>
    6e20:	01412483          	lw	x9,20(x2)
    6e24:	f05ff06f          	jal	x0,6d28 <__sflush_r+0x128>
    6e28:	0009a783          	lw	x15,0(x19)
    6e2c:	e40786e3          	beq	x15,x0,6c78 <__sflush_r+0x78>
    6e30:	01d00713          	addi	x14,x0,29
    6e34:	00e78c63          	beq	x15,x14,6e4c <__sflush_r+0x24c>
    6e38:	01600713          	addi	x14,x0,22
    6e3c:	00e78863          	beq	x15,x14,6e4c <__sflush_r+0x24c>
    6e40:	00c41783          	lh	x15,12(x8)
    6e44:	0407e793          	ori	x15,x15,64
    6e48:	f65ff06f          	jal	x0,6dac <__sflush_r+0x1ac>
    6e4c:	0099a023          	sw	x9,0(x19)
    6e50:	01412483          	lw	x9,20(x2)
    6e54:	ed5ff06f          	jal	x0,6d28 <__sflush_r+0x128>

00006e58 <_fflush_r>:
    6e58:	fe010113          	addi	x2,x2,-32
    6e5c:	00812c23          	sw	x8,24(x2)
    6e60:	00112e23          	sw	x1,28(x2)
    6e64:	00050413          	addi	x8,x10,0
    6e68:	00050663          	beq	x10,x0,6e74 <_fflush_r+0x1c>
    6e6c:	03452783          	lw	x15,52(x10)
    6e70:	02078a63          	beq	x15,x0,6ea4 <_fflush_r+0x4c>
    6e74:	00c59783          	lh	x15,12(x11)
    6e78:	00079c63          	bne	x15,x0,6e90 <_fflush_r+0x38>
    6e7c:	01c12083          	lw	x1,28(x2)
    6e80:	01812403          	lw	x8,24(x2)
    6e84:	00000513          	addi	x10,x0,0
    6e88:	02010113          	addi	x2,x2,32
    6e8c:	00008067          	jalr	x0,0(x1)
    6e90:	00040513          	addi	x10,x8,0
    6e94:	01812403          	lw	x8,24(x2)
    6e98:	01c12083          	lw	x1,28(x2)
    6e9c:	02010113          	addi	x2,x2,32
    6ea0:	d61ff06f          	jal	x0,6c00 <__sflush_r>
    6ea4:	00b12623          	sw	x11,12(x2)
    6ea8:	f01f90ef          	jal	x1,da8 <__sinit>
    6eac:	00c12583          	lw	x11,12(x2)
    6eb0:	fc5ff06f          	jal	x0,6e74 <_fflush_r+0x1c>

00006eb4 <fflush>:
    6eb4:	06050063          	beq	x10,x0,6f14 <fflush+0x60>
    6eb8:	00050593          	addi	x11,x10,0
    6ebc:	f041a503          	lw	x10,-252(x3) # 12bb4 <_impure_ptr>
    6ec0:	00050663          	beq	x10,x0,6ecc <fflush+0x18>
    6ec4:	03452783          	lw	x15,52(x10)
    6ec8:	00078c63          	beq	x15,x0,6ee0 <fflush+0x2c>
    6ecc:	00c59783          	lh	x15,12(x11)
    6ed0:	00079663          	bne	x15,x0,6edc <fflush+0x28>
    6ed4:	00000513          	addi	x10,x0,0
    6ed8:	00008067          	jalr	x0,0(x1)
    6edc:	d25ff06f          	jal	x0,6c00 <__sflush_r>
    6ee0:	fe010113          	addi	x2,x2,-32
    6ee4:	00b12623          	sw	x11,12(x2)
    6ee8:	00a12423          	sw	x10,8(x2)
    6eec:	00112e23          	sw	x1,28(x2)
    6ef0:	eb9f90ef          	jal	x1,da8 <__sinit>
    6ef4:	00c12583          	lw	x11,12(x2)
    6ef8:	00812503          	lw	x10,8(x2)
    6efc:	00c59783          	lh	x15,12(x11)
    6f00:	02079663          	bne	x15,x0,6f2c <fflush+0x78>
    6f04:	01c12083          	lw	x1,28(x2)
    6f08:	00000513          	addi	x10,x0,0
    6f0c:	02010113          	addi	x2,x2,32
    6f10:	00008067          	jalr	x0,0(x1)
    6f14:	92018613          	addi	x12,x3,-1760 # 125d0 <__sglue>
    6f18:	00000597          	auipc	x11,0x0
    6f1c:	f4058593          	addi	x11,x11,-192 # 6e58 <_fflush_r>
    6f20:	0000b517          	auipc	x10,0xb
    6f24:	59050513          	addi	x10,x10,1424 # 124b0 <_impure_data>
    6f28:	a05fa06f          	jal	x0,192c <_fwalk_sglue>
    6f2c:	01c12083          	lw	x1,28(x2)
    6f30:	02010113          	addi	x2,x2,32
    6f34:	ccdff06f          	jal	x0,6c00 <__sflush_r>

00006f38 <frexpl>:
    6f38:	f9010113          	addi	x2,x2,-112
    6f3c:	07212023          	sw	x18,96(x2)
    6f40:	00c5a903          	lw	x18,12(x11)
    6f44:	05412c23          	sw	x20,88(x2)
    6f48:	05512a23          	sw	x21,84(x2)
    6f4c:	05612823          	sw	x22,80(x2)
    6f50:	0045aa83          	lw	x21,4(x11)
    6f54:	0005ab03          	lw	x22,0(x11)
    6f58:	0085aa03          	lw	x20,8(x11)
    6f5c:	05312e23          	sw	x19,92(x2)
    6f60:	000089b7          	lui	x19,0x8
    6f64:	06812423          	sw	x8,104(x2)
    6f68:	06912223          	sw	x9,100(x2)
    6f6c:	06112623          	sw	x1,108(x2)
    6f70:	01095493          	srli	x9,x18,0x10
    6f74:	fff98993          	addi	x19,x19,-1 # 7fff <__gdtoa+0x20f>
    6f78:	03612823          	sw	x22,48(x2)
    6f7c:	03512a23          	sw	x21,52(x2)
    6f80:	03412c23          	sw	x20,56(x2)
    6f84:	03212e23          	sw	x18,60(x2)
    6f88:	0134f4b3          	and	x9,x9,x19
    6f8c:	00062023          	sw	x0,0(x12)
    6f90:	00050413          	addi	x8,x10,0
    6f94:	09348063          	beq	x9,x19,7014 <frexpl+0xdc>
    6f98:	01010593          	addi	x11,x2,16
    6f9c:	02010513          	addi	x10,x2,32
    6fa0:	05712623          	sw	x23,76(x2)
    6fa4:	03612023          	sw	x22,32(x2)
    6fa8:	00060b93          	addi	x23,x12,0
    6fac:	03512223          	sw	x21,36(x2)
    6fb0:	03412423          	sw	x20,40(x2)
    6fb4:	03212623          	sw	x18,44(x2)
    6fb8:	00012823          	sw	x0,16(x2)
    6fbc:	00012a23          	sw	x0,20(x2)
    6fc0:	00012c23          	sw	x0,24(x2)
    6fc4:	00012e23          	sw	x0,28(x2)
    6fc8:	5bc070ef          	jal	x1,e584 <__eqtf2>
    6fcc:	0e050e63          	beq	x10,x0,70c8 <frexpl+0x190>
    6fd0:	00000793          	addi	x15,x0,0
    6fd4:	06048e63          	beq	x9,x0,7050 <frexpl+0x118>
    6fd8:	ffffc737          	lui	x14,0xffffc
    6fdc:	00270713          	addi	x14,x14,2 # ffffc002 <__heap_end+0xffbfc002>
    6fe0:	03c12903          	lw	x18,60(x2)
    6fe4:	00e484b3          	add	x9,x9,x14
    6fe8:	00f484b3          	add	x9,x9,x15
    6fec:	800107b7          	lui	x15,0x80010
    6ff0:	fff78793          	addi	x15,x15,-1 # 8000ffff <__heap_end+0x7fc0ffff>
    6ff4:	009ba023          	sw	x9,0(x23)
    6ff8:	03012b03          	lw	x22,48(x2)
    6ffc:	03412a83          	lw	x21,52(x2)
    7000:	03812a03          	lw	x20,56(x2)
    7004:	04c12b83          	lw	x23,76(x2)
    7008:	00f97933          	and	x18,x18,x15
    700c:	3ffe07b7          	lui	x15,0x3ffe0
    7010:	00f96933          	or	x18,x18,x15
    7014:	01642023          	sw	x22,0(x8)
    7018:	01542223          	sw	x21,4(x8)
    701c:	01442423          	sw	x20,8(x8)
    7020:	01242623          	sw	x18,12(x8)
    7024:	06c12083          	lw	x1,108(x2)
    7028:	00040513          	addi	x10,x8,0
    702c:	06812403          	lw	x8,104(x2)
    7030:	06412483          	lw	x9,100(x2)
    7034:	06012903          	lw	x18,96(x2)
    7038:	05c12983          	lw	x19,92(x2)
    703c:	05812a03          	lw	x20,88(x2)
    7040:	05412a83          	lw	x21,84(x2)
    7044:	05012b03          	lw	x22,80(x2)
    7048:	07010113          	addi	x2,x2,112
    704c:	00008067          	jalr	x0,0(x1)
    7050:	0000b797          	auipc	x15,0xb
    7054:	f2078793          	addi	x15,x15,-224 # 11f70 <zeroes.0+0x4c>
    7058:	0007a603          	lw	x12,0(x15)
    705c:	0087a703          	lw	x14,8(x15)
    7060:	0047a683          	lw	x13,4(x15)
    7064:	00c7a783          	lw	x15,12(x15)
    7068:	00c12023          	sw	x12,0(x2)
    706c:	01010593          	addi	x11,x2,16
    7070:	00010613          	addi	x12,x2,0
    7074:	02010513          	addi	x10,x2,32
    7078:	00e12423          	sw	x14,8(x2)
    707c:	00f12623          	sw	x15,12(x2)
    7080:	01612823          	sw	x22,16(x2)
    7084:	01512a23          	sw	x21,20(x2)
    7088:	01412c23          	sw	x20,24(x2)
    708c:	01212e23          	sw	x18,28(x2)
    7090:	00d12223          	sw	x13,4(x2)
    7094:	081070ef          	jal	x1,e914 <__multf3>
    7098:	02012703          	lw	x14,32(x2)
    709c:	02c12783          	lw	x15,44(x2)
    70a0:	02e12823          	sw	x14,48(x2)
    70a4:	02412703          	lw	x14,36(x2)
    70a8:	0107d493          	srli	x9,x15,0x10
    70ac:	02f12e23          	sw	x15,60(x2)
    70b0:	02e12a23          	sw	x14,52(x2)
    70b4:	02812703          	lw	x14,40(x2)
    70b8:	0134f4b3          	and	x9,x9,x19
    70bc:	f8e00793          	addi	x15,x0,-114
    70c0:	02e12c23          	sw	x14,56(x2)
    70c4:	f15ff06f          	jal	x0,6fd8 <frexpl+0xa0>
    70c8:	04c12b83          	lw	x23,76(x2)
    70cc:	f49ff06f          	jal	x0,7014 <frexpl+0xdc>

000070d0 <_realloc_r>:
    70d0:	fd010113          	addi	x2,x2,-48
    70d4:	02912223          	sw	x9,36(x2)
    70d8:	02112623          	sw	x1,44(x2)
    70dc:	00060493          	addi	x9,x12,0
    70e0:	1e058863          	beq	x11,x0,72d0 <_realloc_r+0x200>
    70e4:	02812423          	sw	x8,40(x2)
    70e8:	03212023          	sw	x18,32(x2)
    70ec:	00058413          	addi	x8,x11,0
    70f0:	01312e23          	sw	x19,28(x2)
    70f4:	01512a23          	sw	x21,20(x2)
    70f8:	01412c23          	sw	x20,24(x2)
    70fc:	00050913          	addi	x18,x10,0
    7100:	aa9ff0ef          	jal	x1,6ba8 <__malloc_lock>
    7104:	ffc42703          	lw	x14,-4(x8)
    7108:	00b48793          	addi	x15,x9,11
    710c:	01600693          	addi	x13,x0,22
    7110:	ff840a93          	addi	x21,x8,-8
    7114:	ffc77993          	andi	x19,x14,-4
    7118:	10f6f263          	bgeu	x13,x15,721c <_realloc_r+0x14c>
    711c:	ff87fa13          	andi	x20,x15,-8
    7120:	1007c263          	blt	x15,x0,7224 <_realloc_r+0x154>
    7124:	109a6063          	bltu	x20,x9,7224 <_realloc_r+0x154>
    7128:	1349d263          	bge	x19,x20,724c <_realloc_r+0x17c>
    712c:	01812423          	sw	x24,8(x2)
    7130:	0000bc17          	auipc	x24,0xb
    7134:	4acc0c13          	addi	x24,x24,1196 # 125dc <__malloc_av_>
    7138:	008c2603          	lw	x12,8(x24)
    713c:	013a86b3          	add	x13,x21,x19
    7140:	0046a783          	lw	x15,4(x13)
    7144:	1cd60863          	beq	x12,x13,7314 <_realloc_r+0x244>
    7148:	ffe7f613          	andi	x12,x15,-2
    714c:	00c68633          	add	x12,x13,x12
    7150:	00462603          	lw	x12,4(x12)
    7154:	00167613          	andi	x12,x12,1
    7158:	14061a63          	bne	x12,x0,72ac <_realloc_r+0x1dc>
    715c:	ffc7f793          	andi	x15,x15,-4
    7160:	00f98633          	add	x12,x19,x15
    7164:	0d465863          	bge	x12,x20,7234 <_realloc_r+0x164>
    7168:	00177713          	andi	x14,x14,1
    716c:	02071c63          	bne	x14,x0,71a4 <_realloc_r+0xd4>
    7170:	01712623          	sw	x23,12(x2)
    7174:	ff842b83          	lw	x23,-8(x8)
    7178:	01612823          	sw	x22,16(x2)
    717c:	417a8bb3          	sub	x23,x21,x23
    7180:	004ba703          	lw	x14,4(x23)
    7184:	ffc77713          	andi	x14,x14,-4
    7188:	00e787b3          	add	x15,x15,x14
    718c:	01378b33          	add	x22,x15,x19
    7190:	334b5c63          	bge	x22,x20,74c8 <_realloc_r+0x3f8>
    7194:	00e98b33          	add	x22,x19,x14
    7198:	294b5863          	bge	x22,x20,7428 <_realloc_r+0x358>
    719c:	01012b03          	lw	x22,16(x2)
    71a0:	00c12b83          	lw	x23,12(x2)
    71a4:	00048593          	addi	x11,x9,0
    71a8:	00090513          	addi	x10,x18,0
    71ac:	82dfe0ef          	jal	x1,59d8 <_malloc_r>
    71b0:	00050493          	addi	x9,x10,0
    71b4:	40050863          	beq	x10,x0,75c4 <_realloc_r+0x4f4>
    71b8:	ffc42783          	lw	x15,-4(x8)
    71bc:	ff850713          	addi	x14,x10,-8
    71c0:	ffe7f793          	andi	x15,x15,-2
    71c4:	00fa87b3          	add	x15,x21,x15
    71c8:	24e78663          	beq	x15,x14,7414 <_realloc_r+0x344>
    71cc:	ffc98613          	addi	x12,x19,-4
    71d0:	02400793          	addi	x15,x0,36
    71d4:	2ec7e463          	bltu	x15,x12,74bc <_realloc_r+0x3ec>
    71d8:	01300713          	addi	x14,x0,19
    71dc:	20c76a63          	bltu	x14,x12,73f0 <_realloc_r+0x320>
    71e0:	00050793          	addi	x15,x10,0
    71e4:	00040713          	addi	x14,x8,0
    71e8:	00072683          	lw	x13,0(x14)
    71ec:	00d7a023          	sw	x13,0(x15)
    71f0:	00472683          	lw	x13,4(x14)
    71f4:	00d7a223          	sw	x13,4(x15)
    71f8:	00872703          	lw	x14,8(x14)
    71fc:	00e7a423          	sw	x14,8(x15)
    7200:	00040593          	addi	x11,x8,0
    7204:	00090513          	addi	x10,x18,0
    7208:	d2df90ef          	jal	x1,f34 <_free_r>
    720c:	00090513          	addi	x10,x18,0
    7210:	99dff0ef          	jal	x1,6bac <__malloc_unlock>
    7214:	00812c03          	lw	x24,8(x2)
    7218:	06c0006f          	jal	x0,7284 <_realloc_r+0x1b4>
    721c:	01000a13          	addi	x20,x0,16
    7220:	f09a74e3          	bgeu	x20,x9,7128 <_realloc_r+0x58>
    7224:	00c00793          	addi	x15,x0,12
    7228:	00f92023          	sw	x15,0(x18)
    722c:	00000493          	addi	x9,x0,0
    7230:	0540006f          	jal	x0,7284 <_realloc_r+0x1b4>
    7234:	00c6a783          	lw	x15,12(x13)
    7238:	0086a703          	lw	x14,8(x13)
    723c:	00812c03          	lw	x24,8(x2)
    7240:	00060993          	addi	x19,x12,0
    7244:	00f72623          	sw	x15,12(x14)
    7248:	00e7a423          	sw	x14,8(x15)
    724c:	004aa783          	lw	x15,4(x21)
    7250:	414986b3          	sub	x13,x19,x20
    7254:	00f00613          	addi	x12,x0,15
    7258:	0017f793          	andi	x15,x15,1
    725c:	013a8733          	add	x14,x21,x19
    7260:	08d66263          	bltu	x12,x13,72e4 <_realloc_r+0x214>
    7264:	0137e7b3          	or	x15,x15,x19
    7268:	00faa223          	sw	x15,4(x21)
    726c:	00472783          	lw	x15,4(x14)
    7270:	0017e793          	ori	x15,x15,1
    7274:	00f72223          	sw	x15,4(x14)
    7278:	00090513          	addi	x10,x18,0
    727c:	931ff0ef          	jal	x1,6bac <__malloc_unlock>
    7280:	00040493          	addi	x9,x8,0
    7284:	02812403          	lw	x8,40(x2)
    7288:	02c12083          	lw	x1,44(x2)
    728c:	02012903          	lw	x18,32(x2)
    7290:	01c12983          	lw	x19,28(x2)
    7294:	01812a03          	lw	x20,24(x2)
    7298:	01412a83          	lw	x21,20(x2)
    729c:	00048513          	addi	x10,x9,0
    72a0:	02412483          	lw	x9,36(x2)
    72a4:	03010113          	addi	x2,x2,48
    72a8:	00008067          	jalr	x0,0(x1)
    72ac:	00177713          	andi	x14,x14,1
    72b0:	ee071ae3          	bne	x14,x0,71a4 <_realloc_r+0xd4>
    72b4:	01712623          	sw	x23,12(x2)
    72b8:	ff842b83          	lw	x23,-8(x8)
    72bc:	01612823          	sw	x22,16(x2)
    72c0:	417a8bb3          	sub	x23,x21,x23
    72c4:	004ba703          	lw	x14,4(x23)
    72c8:	ffc77713          	andi	x14,x14,-4
    72cc:	ec9ff06f          	jal	x0,7194 <_realloc_r+0xc4>
    72d0:	02c12083          	lw	x1,44(x2)
    72d4:	02412483          	lw	x9,36(x2)
    72d8:	00060593          	addi	x11,x12,0
    72dc:	03010113          	addi	x2,x2,48
    72e0:	ef8fe06f          	jal	x0,59d8 <_malloc_r>
    72e4:	0147e7b3          	or	x15,x15,x20
    72e8:	00faa223          	sw	x15,4(x21)
    72ec:	014a85b3          	add	x11,x21,x20
    72f0:	0016e693          	ori	x13,x13,1
    72f4:	00d5a223          	sw	x13,4(x11)
    72f8:	00472783          	lw	x15,4(x14)
    72fc:	00858593          	addi	x11,x11,8
    7300:	00090513          	addi	x10,x18,0
    7304:	0017e793          	ori	x15,x15,1
    7308:	00f72223          	sw	x15,4(x14)
    730c:	c29f90ef          	jal	x1,f34 <_free_r>
    7310:	f69ff06f          	jal	x0,7278 <_realloc_r+0x1a8>
    7314:	ffc7f793          	andi	x15,x15,-4
    7318:	013786b3          	add	x13,x15,x19
    731c:	010a0613          	addi	x12,x20,16
    7320:	26c6d063          	bge	x13,x12,7580 <_realloc_r+0x4b0>
    7324:	00177713          	andi	x14,x14,1
    7328:	e6071ee3          	bne	x14,x0,71a4 <_realloc_r+0xd4>
    732c:	01712623          	sw	x23,12(x2)
    7330:	ff842b83          	lw	x23,-8(x8)
    7334:	01612823          	sw	x22,16(x2)
    7338:	417a8bb3          	sub	x23,x21,x23
    733c:	004ba703          	lw	x14,4(x23)
    7340:	ffc77713          	andi	x14,x14,-4
    7344:	00e787b3          	add	x15,x15,x14
    7348:	01378b33          	add	x22,x15,x19
    734c:	e4cb44e3          	blt	x22,x12,7194 <_realloc_r+0xc4>
    7350:	00cba783          	lw	x15,12(x23)
    7354:	008ba703          	lw	x14,8(x23)
    7358:	ffc98613          	addi	x12,x19,-4
    735c:	02400693          	addi	x13,x0,36
    7360:	00f72623          	sw	x15,12(x14)
    7364:	00e7a423          	sw	x14,8(x15)
    7368:	008b8493          	addi	x9,x23,8
    736c:	28c6e463          	bltu	x13,x12,75f4 <_realloc_r+0x524>
    7370:	01300713          	addi	x14,x0,19
    7374:	00048793          	addi	x15,x9,0
    7378:	02c77263          	bgeu	x14,x12,739c <_realloc_r+0x2cc>
    737c:	00042703          	lw	x14,0(x8)
    7380:	01b00793          	addi	x15,x0,27
    7384:	00eba423          	sw	x14,8(x23)
    7388:	00442703          	lw	x14,4(x8)
    738c:	00eba623          	sw	x14,12(x23)
    7390:	26c7ea63          	bltu	x15,x12,7604 <_realloc_r+0x534>
    7394:	00840413          	addi	x8,x8,8
    7398:	010b8793          	addi	x15,x23,16
    739c:	00042703          	lw	x14,0(x8)
    73a0:	00e7a023          	sw	x14,0(x15)
    73a4:	00442703          	lw	x14,4(x8)
    73a8:	00e7a223          	sw	x14,4(x15)
    73ac:	00842703          	lw	x14,8(x8)
    73b0:	00e7a423          	sw	x14,8(x15)
    73b4:	014b8733          	add	x14,x23,x20
    73b8:	414b07b3          	sub	x15,x22,x20
    73bc:	00ec2423          	sw	x14,8(x24)
    73c0:	0017e793          	ori	x15,x15,1
    73c4:	00f72223          	sw	x15,4(x14)
    73c8:	004ba783          	lw	x15,4(x23)
    73cc:	00090513          	addi	x10,x18,0
    73d0:	0017f793          	andi	x15,x15,1
    73d4:	0147e7b3          	or	x15,x15,x20
    73d8:	00fba223          	sw	x15,4(x23)
    73dc:	fd0ff0ef          	jal	x1,6bac <__malloc_unlock>
    73e0:	01012b03          	lw	x22,16(x2)
    73e4:	00c12b83          	lw	x23,12(x2)
    73e8:	00812c03          	lw	x24,8(x2)
    73ec:	e99ff06f          	jal	x0,7284 <_realloc_r+0x1b4>
    73f0:	00042683          	lw	x13,0(x8)
    73f4:	01b00713          	addi	x14,x0,27
    73f8:	00d52023          	sw	x13,0(x10)
    73fc:	00442683          	lw	x13,4(x8)
    7400:	00d52223          	sw	x13,4(x10)
    7404:	14c76e63          	bltu	x14,x12,7560 <_realloc_r+0x490>
    7408:	00840713          	addi	x14,x8,8
    740c:	00850793          	addi	x15,x10,8
    7410:	dd9ff06f          	jal	x0,71e8 <_realloc_r+0x118>
    7414:	ffc52783          	lw	x15,-4(x10)
    7418:	00812c03          	lw	x24,8(x2)
    741c:	ffc7f793          	andi	x15,x15,-4
    7420:	00f989b3          	add	x19,x19,x15
    7424:	e29ff06f          	jal	x0,724c <_realloc_r+0x17c>
    7428:	00cba783          	lw	x15,12(x23)
    742c:	008ba703          	lw	x14,8(x23)
    7430:	ffc98613          	addi	x12,x19,-4
    7434:	02400693          	addi	x13,x0,36
    7438:	00f72623          	sw	x15,12(x14)
    743c:	00e7a423          	sw	x14,8(x15)
    7440:	008b8493          	addi	x9,x23,8
    7444:	10c6e663          	bltu	x13,x12,7550 <_realloc_r+0x480>
    7448:	01300713          	addi	x14,x0,19
    744c:	00048793          	addi	x15,x9,0
    7450:	02c77c63          	bgeu	x14,x12,7488 <_realloc_r+0x3b8>
    7454:	00042703          	lw	x14,0(x8)
    7458:	01b00793          	addi	x15,x0,27
    745c:	00eba423          	sw	x14,8(x23)
    7460:	00442703          	lw	x14,4(x8)
    7464:	00eba623          	sw	x14,12(x23)
    7468:	14c7f863          	bgeu	x15,x12,75b8 <_realloc_r+0x4e8>
    746c:	00842783          	lw	x15,8(x8)
    7470:	00fba823          	sw	x15,16(x23)
    7474:	00c42783          	lw	x15,12(x8)
    7478:	00fbaa23          	sw	x15,20(x23)
    747c:	0ad60c63          	beq	x12,x13,7534 <_realloc_r+0x464>
    7480:	01040413          	addi	x8,x8,16
    7484:	018b8793          	addi	x15,x23,24
    7488:	00042703          	lw	x14,0(x8)
    748c:	00e7a023          	sw	x14,0(x15)
    7490:	00442703          	lw	x14,4(x8)
    7494:	00e7a223          	sw	x14,4(x15)
    7498:	00842703          	lw	x14,8(x8)
    749c:	00e7a423          	sw	x14,8(x15)
    74a0:	000b0993          	addi	x19,x22,0
    74a4:	000b8a93          	addi	x21,x23,0
    74a8:	01012b03          	lw	x22,16(x2)
    74ac:	00c12b83          	lw	x23,12(x2)
    74b0:	00812c03          	lw	x24,8(x2)
    74b4:	00048413          	addi	x8,x9,0
    74b8:	d95ff06f          	jal	x0,724c <_realloc_r+0x17c>
    74bc:	00040593          	addi	x11,x8,0
    74c0:	eddfe0ef          	jal	x1,639c <memmove>
    74c4:	d3dff06f          	jal	x0,7200 <_realloc_r+0x130>
    74c8:	00c6a783          	lw	x15,12(x13)
    74cc:	0086a703          	lw	x14,8(x13)
    74d0:	ffc98613          	addi	x12,x19,-4
    74d4:	02400693          	addi	x13,x0,36
    74d8:	00f72623          	sw	x15,12(x14)
    74dc:	00e7a423          	sw	x14,8(x15)
    74e0:	008ba703          	lw	x14,8(x23)
    74e4:	00cba783          	lw	x15,12(x23)
    74e8:	008b8493          	addi	x9,x23,8
    74ec:	00f72623          	sw	x15,12(x14)
    74f0:	00e7a423          	sw	x14,8(x15)
    74f4:	04c6ee63          	bltu	x13,x12,7550 <_realloc_r+0x480>
    74f8:	01300713          	addi	x14,x0,19
    74fc:	00048793          	addi	x15,x9,0
    7500:	f8c774e3          	bgeu	x14,x12,7488 <_realloc_r+0x3b8>
    7504:	00042703          	lw	x14,0(x8)
    7508:	01b00793          	addi	x15,x0,27
    750c:	00eba423          	sw	x14,8(x23)
    7510:	00442703          	lw	x14,4(x8)
    7514:	00eba623          	sw	x14,12(x23)
    7518:	0ac7f063          	bgeu	x15,x12,75b8 <_realloc_r+0x4e8>
    751c:	00842703          	lw	x14,8(x8)
    7520:	02400793          	addi	x15,x0,36
    7524:	00eba823          	sw	x14,16(x23)
    7528:	00c42703          	lw	x14,12(x8)
    752c:	00ebaa23          	sw	x14,20(x23)
    7530:	f4f618e3          	bne	x12,x15,7480 <_realloc_r+0x3b0>
    7534:	01042703          	lw	x14,16(x8)
    7538:	020b8793          	addi	x15,x23,32
    753c:	01840413          	addi	x8,x8,24
    7540:	00ebac23          	sw	x14,24(x23)
    7544:	ffc42703          	lw	x14,-4(x8)
    7548:	00ebae23          	sw	x14,28(x23)
    754c:	f3dff06f          	jal	x0,7488 <_realloc_r+0x3b8>
    7550:	00040593          	addi	x11,x8,0
    7554:	00048513          	addi	x10,x9,0
    7558:	e45fe0ef          	jal	x1,639c <memmove>
    755c:	f45ff06f          	jal	x0,74a0 <_realloc_r+0x3d0>
    7560:	00842703          	lw	x14,8(x8)
    7564:	00e52423          	sw	x14,8(x10)
    7568:	00c42703          	lw	x14,12(x8)
    756c:	00e52623          	sw	x14,12(x10)
    7570:	06f60463          	beq	x12,x15,75d8 <_realloc_r+0x508>
    7574:	01040713          	addi	x14,x8,16
    7578:	01050793          	addi	x15,x10,16
    757c:	c6dff06f          	jal	x0,71e8 <_realloc_r+0x118>
    7580:	014a8ab3          	add	x21,x21,x20
    7584:	414687b3          	sub	x15,x13,x20
    7588:	015c2423          	sw	x21,8(x24)
    758c:	0017e793          	ori	x15,x15,1
    7590:	00faa223          	sw	x15,4(x21)
    7594:	ffc42783          	lw	x15,-4(x8)
    7598:	00090513          	addi	x10,x18,0
    759c:	00040493          	addi	x9,x8,0
    75a0:	0017f793          	andi	x15,x15,1
    75a4:	0147e7b3          	or	x15,x15,x20
    75a8:	fef42e23          	sw	x15,-4(x8)
    75ac:	e00ff0ef          	jal	x1,6bac <__malloc_unlock>
    75b0:	00812c03          	lw	x24,8(x2)
    75b4:	cd1ff06f          	jal	x0,7284 <_realloc_r+0x1b4>
    75b8:	00840413          	addi	x8,x8,8
    75bc:	010b8793          	addi	x15,x23,16
    75c0:	ec9ff06f          	jal	x0,7488 <_realloc_r+0x3b8>
    75c4:	00090513          	addi	x10,x18,0
    75c8:	de4ff0ef          	jal	x1,6bac <__malloc_unlock>
    75cc:	00000493          	addi	x9,x0,0
    75d0:	00812c03          	lw	x24,8(x2)
    75d4:	cb1ff06f          	jal	x0,7284 <_realloc_r+0x1b4>
    75d8:	01042683          	lw	x13,16(x8)
    75dc:	01840713          	addi	x14,x8,24
    75e0:	01850793          	addi	x15,x10,24
    75e4:	00d52823          	sw	x13,16(x10)
    75e8:	01442683          	lw	x13,20(x8)
    75ec:	00d52a23          	sw	x13,20(x10)
    75f0:	bf9ff06f          	jal	x0,71e8 <_realloc_r+0x118>
    75f4:	00040593          	addi	x11,x8,0
    75f8:	00048513          	addi	x10,x9,0
    75fc:	da1fe0ef          	jal	x1,639c <memmove>
    7600:	db5ff06f          	jal	x0,73b4 <_realloc_r+0x2e4>
    7604:	00842783          	lw	x15,8(x8)
    7608:	00fba823          	sw	x15,16(x23)
    760c:	00c42783          	lw	x15,12(x8)
    7610:	00fbaa23          	sw	x15,20(x23)
    7614:	00d60863          	beq	x12,x13,7624 <_realloc_r+0x554>
    7618:	01040413          	addi	x8,x8,16
    761c:	018b8793          	addi	x15,x23,24
    7620:	d7dff06f          	jal	x0,739c <_realloc_r+0x2cc>
    7624:	01042703          	lw	x14,16(x8)
    7628:	020b8793          	addi	x15,x23,32
    762c:	01840413          	addi	x8,x8,24
    7630:	00ebac23          	sw	x14,24(x23)
    7634:	ffc42703          	lw	x14,-4(x8)
    7638:	00ebae23          	sw	x14,28(x23)
    763c:	d61ff06f          	jal	x0,739c <_realloc_r+0x2cc>

00007640 <strncpy>:
    7640:	00a5e7b3          	or	x15,x11,x10
    7644:	0037f793          	andi	x15,x15,3
    7648:	00050713          	addi	x14,x10,0
    764c:	06079863          	bne	x15,x0,76bc <strncpy+0x7c>
    7650:	00300793          	addi	x15,x0,3
    7654:	06c7f463          	bgeu	x15,x12,76bc <strncpy+0x7c>
    7658:	feff0337          	lui	x6,0xfeff0
    765c:	808088b7          	lui	x17,0x80808
    7660:	eff30313          	addi	x6,x6,-257 # fefefeff <__heap_end+0xfebefeff>
    7664:	08088893          	addi	x17,x17,128 # 80808080 <__heap_end+0x80408080>
    7668:	00300e13          	addi	x28,x0,3
    766c:	0005a683          	lw	x13,0(x11)
    7670:	006687b3          	add	x15,x13,x6
    7674:	fff6c813          	xori	x16,x13,-1
    7678:	0107f7b3          	and	x15,x15,x16
    767c:	0117f7b3          	and	x15,x15,x17
    7680:	02079e63          	bne	x15,x0,76bc <strncpy+0x7c>
    7684:	00d72023          	sw	x13,0(x14)
    7688:	ffc60613          	addi	x12,x12,-4
    768c:	00470713          	addi	x14,x14,4
    7690:	00458593          	addi	x11,x11,4
    7694:	fcce6ce3          	bltu	x28,x12,766c <strncpy+0x2c>
    7698:	00158593          	addi	x11,x11,1
    769c:	00170793          	addi	x15,x14,1
    76a0:	02060463          	beq	x12,x0,76c8 <strncpy+0x88>
    76a4:	fff5c683          	lbu	x13,-1(x11)
    76a8:	fff60813          	addi	x16,x12,-1
    76ac:	fed78fa3          	sb	x13,-1(x15)
    76b0:	00068e63          	beq	x13,x0,76cc <strncpy+0x8c>
    76b4:	00078713          	addi	x14,x15,0
    76b8:	00080613          	addi	x12,x16,0
    76bc:	00158593          	addi	x11,x11,1
    76c0:	00170793          	addi	x15,x14,1
    76c4:	fe0610e3          	bne	x12,x0,76a4 <strncpy+0x64>
    76c8:	00008067          	jalr	x0,0(x1)
    76cc:	00c70733          	add	x14,x14,x12
    76d0:	00080a63          	beq	x16,x0,76e4 <strncpy+0xa4>
    76d4:	00178793          	addi	x15,x15,1
    76d8:	fe078fa3          	sb	x0,-1(x15)
    76dc:	fee79ce3          	bne	x15,x14,76d4 <strncpy+0x94>
    76e0:	00008067          	jalr	x0,0(x1)
    76e4:	00008067          	jalr	x0,0(x1)

000076e8 <_fstat_r>:
    76e8:	ff010113          	addi	x2,x2,-16
    76ec:	00058713          	addi	x14,x11,0
    76f0:	00812423          	sw	x8,8(x2)
    76f4:	00060593          	addi	x11,x12,0
    76f8:	00050413          	addi	x8,x10,0
    76fc:	00070513          	addi	x10,x14,0
    7700:	f001aa23          	sw	x0,-236(x3) # 12bc4 <errno>
    7704:	00112623          	sw	x1,12(x2)
    7708:	c33f80ef          	jal	x1,33a <_fstat>
    770c:	fff00793          	addi	x15,x0,-1
    7710:	00f50a63          	beq	x10,x15,7724 <_fstat_r+0x3c>
    7714:	00c12083          	lw	x1,12(x2)
    7718:	00812403          	lw	x8,8(x2)
    771c:	01010113          	addi	x2,x2,16
    7720:	00008067          	jalr	x0,0(x1)
    7724:	f141a783          	lw	x15,-236(x3) # 12bc4 <errno>
    7728:	fe0786e3          	beq	x15,x0,7714 <_fstat_r+0x2c>
    772c:	00c12083          	lw	x1,12(x2)
    7730:	00f42023          	sw	x15,0(x8)
    7734:	00812403          	lw	x8,8(x2)
    7738:	01010113          	addi	x2,x2,16
    773c:	00008067          	jalr	x0,0(x1)

00007740 <_isatty_r>:
    7740:	ff010113          	addi	x2,x2,-16
    7744:	00812423          	sw	x8,8(x2)
    7748:	00050413          	addi	x8,x10,0
    774c:	00058513          	addi	x10,x11,0
    7750:	f001aa23          	sw	x0,-236(x3) # 12bc4 <errno>
    7754:	00112623          	sw	x1,12(x2)
    7758:	c1ff80ef          	jal	x1,376 <_isatty>
    775c:	fff00793          	addi	x15,x0,-1
    7760:	00f50a63          	beq	x10,x15,7774 <_isatty_r+0x34>
    7764:	00c12083          	lw	x1,12(x2)
    7768:	00812403          	lw	x8,8(x2)
    776c:	01010113          	addi	x2,x2,16
    7770:	00008067          	jalr	x0,0(x1)
    7774:	f141a783          	lw	x15,-236(x3) # 12bc4 <errno>
    7778:	fe0786e3          	beq	x15,x0,7764 <_isatty_r+0x24>
    777c:	00c12083          	lw	x1,12(x2)
    7780:	00f42023          	sw	x15,0(x8)
    7784:	00812403          	lw	x8,8(x2)
    7788:	01010113          	addi	x2,x2,16
    778c:	00008067          	jalr	x0,0(x1)

00007790 <_lseek_r>:
    7790:	ff010113          	addi	x2,x2,-16
    7794:	00058713          	addi	x14,x11,0
    7798:	00812423          	sw	x8,8(x2)
    779c:	00060593          	addi	x11,x12,0
    77a0:	00050413          	addi	x8,x10,0
    77a4:	00068613          	addi	x12,x13,0
    77a8:	00070513          	addi	x10,x14,0
    77ac:	f001aa23          	sw	x0,-236(x3) # 12bc4 <errno>
    77b0:	00112623          	sw	x1,12(x2)
    77b4:	bdff80ef          	jal	x1,392 <_lseek>
    77b8:	fff00793          	addi	x15,x0,-1
    77bc:	00f50a63          	beq	x10,x15,77d0 <_lseek_r+0x40>
    77c0:	00c12083          	lw	x1,12(x2)
    77c4:	00812403          	lw	x8,8(x2)
    77c8:	01010113          	addi	x2,x2,16
    77cc:	00008067          	jalr	x0,0(x1)
    77d0:	f141a783          	lw	x15,-236(x3) # 12bc4 <errno>
    77d4:	fe0786e3          	beq	x15,x0,77c0 <_lseek_r+0x30>
    77d8:	00c12083          	lw	x1,12(x2)
    77dc:	00f42023          	sw	x15,0(x8)
    77e0:	00812403          	lw	x8,8(x2)
    77e4:	01010113          	addi	x2,x2,16
    77e8:	00008067          	jalr	x0,0(x1)

000077ec <_read_r>:
    77ec:	ff010113          	addi	x2,x2,-16
    77f0:	00058713          	addi	x14,x11,0
    77f4:	00812423          	sw	x8,8(x2)
    77f8:	00060593          	addi	x11,x12,0
    77fc:	00050413          	addi	x8,x10,0
    7800:	00068613          	addi	x12,x13,0
    7804:	00070513          	addi	x10,x14,0
    7808:	f001aa23          	sw	x0,-236(x3) # 12bc4 <errno>
    780c:	00112623          	sw	x1,12(x2)
    7810:	ba3f80ef          	jal	x1,3b2 <_read>
    7814:	fff00793          	addi	x15,x0,-1
    7818:	00f50a63          	beq	x10,x15,782c <_read_r+0x40>
    781c:	00c12083          	lw	x1,12(x2)
    7820:	00812403          	lw	x8,8(x2)
    7824:	01010113          	addi	x2,x2,16
    7828:	00008067          	jalr	x0,0(x1)
    782c:	f141a783          	lw	x15,-236(x3) # 12bc4 <errno>
    7830:	fe0786e3          	beq	x15,x0,781c <_read_r+0x30>
    7834:	00c12083          	lw	x1,12(x2)
    7838:	00f42023          	sw	x15,0(x8)
    783c:	00812403          	lw	x8,8(x2)
    7840:	01010113          	addi	x2,x2,16
    7844:	00008067          	jalr	x0,0(x1)

00007848 <__fputwc>:
    7848:	fe010113          	addi	x2,x2,-32
    784c:	00812c23          	sw	x8,24(x2)
    7850:	00912a23          	sw	x9,20(x2)
    7854:	01212823          	sw	x18,16(x2)
    7858:	00112e23          	sw	x1,28(x2)
    785c:	00050913          	addi	x18,x10,0
    7860:	00058493          	addi	x9,x11,0
    7864:	00060413          	addi	x8,x12,0
    7868:	419020ef          	jal	x1,a480 <__locale_mb_cur_max>
    786c:	00100793          	addi	x15,x0,1
    7870:	00f51c63          	bne	x10,x15,7888 <__fputwc+0x40>
    7874:	fff48793          	addi	x15,x9,-1
    7878:	0fe00713          	addi	x14,x0,254
    787c:	00f76663          	bltu	x14,x15,7888 <__fputwc+0x40>
    7880:	00910623          	sb	x9,12(x2)
    7884:	0240006f          	jal	x0,78a8 <__fputwc+0x60>
    7888:	05c40693          	addi	x13,x8,92
    788c:	00048613          	addi	x12,x9,0
    7890:	00c10593          	addi	x11,x2,12
    7894:	00090513          	addi	x10,x18,0
    7898:	26d020ef          	jal	x1,a304 <_wcrtomb_r>
    789c:	fff00793          	addi	x15,x0,-1
    78a0:	08f50463          	beq	x10,x15,7928 <__fputwc+0xe0>
    78a4:	02050c63          	beq	x10,x0,78dc <__fputwc+0x94>
    78a8:	00842783          	lw	x15,8(x8)
    78ac:	00c14583          	lbu	x11,12(x2)
    78b0:	fff78793          	addi	x15,x15,-1
    78b4:	00f42423          	sw	x15,8(x8)
    78b8:	0007da63          	bge	x15,x0,78cc <__fputwc+0x84>
    78bc:	01842703          	lw	x14,24(x8)
    78c0:	02e7cc63          	blt	x15,x14,78f8 <__fputwc+0xb0>
    78c4:	00a00793          	addi	x15,x0,10
    78c8:	02f58863          	beq	x11,x15,78f8 <__fputwc+0xb0>
    78cc:	00042783          	lw	x15,0(x8)
    78d0:	00178713          	addi	x14,x15,1
    78d4:	00e42023          	sw	x14,0(x8)
    78d8:	00b78023          	sb	x11,0(x15)
    78dc:	01c12083          	lw	x1,28(x2)
    78e0:	01812403          	lw	x8,24(x2)
    78e4:	01012903          	lw	x18,16(x2)
    78e8:	00048513          	addi	x10,x9,0
    78ec:	01412483          	lw	x9,20(x2)
    78f0:	02010113          	addi	x2,x2,32
    78f4:	00008067          	jalr	x0,0(x1)
    78f8:	00040613          	addi	x12,x8,0
    78fc:	00090513          	addi	x10,x18,0
    7900:	065020ef          	jal	x1,a164 <__swbuf_r>
    7904:	fff00793          	addi	x15,x0,-1
    7908:	fcf51ae3          	bne	x10,x15,78dc <__fputwc+0x94>
    790c:	fff00513          	addi	x10,x0,-1
    7910:	01c12083          	lw	x1,28(x2)
    7914:	01812403          	lw	x8,24(x2)
    7918:	01412483          	lw	x9,20(x2)
    791c:	01012903          	lw	x18,16(x2)
    7920:	02010113          	addi	x2,x2,32
    7924:	00008067          	jalr	x0,0(x1)
    7928:	00c45783          	lhu	x15,12(x8)
    792c:	fff00513          	addi	x10,x0,-1
    7930:	0407e793          	ori	x15,x15,64
    7934:	00f41623          	sh	x15,12(x8)
    7938:	fd9ff06f          	jal	x0,7910 <__fputwc+0xc8>

0000793c <_fputwc_r>:
    793c:	00c61783          	lh	x15,12(x12)
    7940:	01279713          	slli	x14,x15,0x12
    7944:	02074063          	blt	x14,x0,7964 <_fputwc_r+0x28>
    7948:	06462703          	lw	x14,100(x12)
    794c:	000026b7          	lui	x13,0x2
    7950:	00d7e7b3          	or	x15,x15,x13
    7954:	000026b7          	lui	x13,0x2
    7958:	00d76733          	or	x14,x14,x13
    795c:	00f61623          	sh	x15,12(x12)
    7960:	06e62223          	sw	x14,100(x12)
    7964:	ee5ff06f          	jal	x0,7848 <__fputwc>

00007968 <fputwc>:
    7968:	fe010113          	addi	x2,x2,-32
    796c:	00812c23          	sw	x8,24(x2)
    7970:	00112e23          	sw	x1,28(x2)
    7974:	f041a403          	lw	x8,-252(x3) # 12bb4 <_impure_ptr>
    7978:	00058613          	addi	x12,x11,0
    797c:	00050593          	addi	x11,x10,0
    7980:	00040663          	beq	x8,x0,798c <fputwc+0x24>
    7984:	03442783          	lw	x15,52(x8)
    7988:	04078063          	beq	x15,x0,79c8 <fputwc+0x60>
    798c:	00c61783          	lh	x15,12(x12)
    7990:	01279713          	slli	x14,x15,0x12
    7994:	02074063          	blt	x14,x0,79b4 <fputwc+0x4c>
    7998:	06462703          	lw	x14,100(x12)
    799c:	000026b7          	lui	x13,0x2
    79a0:	00d7e7b3          	or	x15,x15,x13
    79a4:	000026b7          	lui	x13,0x2
    79a8:	00d76733          	or	x14,x14,x13
    79ac:	00f61623          	sh	x15,12(x12)
    79b0:	06e62223          	sw	x14,100(x12)
    79b4:	00040513          	addi	x10,x8,0
    79b8:	01812403          	lw	x8,24(x2)
    79bc:	01c12083          	lw	x1,28(x2)
    79c0:	02010113          	addi	x2,x2,32
    79c4:	e85ff06f          	jal	x0,7848 <__fputwc>
    79c8:	00a12423          	sw	x10,8(x2)
    79cc:	00040513          	addi	x10,x8,0
    79d0:	00c12623          	sw	x12,12(x2)
    79d4:	bd4f90ef          	jal	x1,da8 <__sinit>
    79d8:	00c12603          	lw	x12,12(x2)
    79dc:	00812583          	lw	x11,8(x2)
    79e0:	fadff06f          	jal	x0,798c <fputwc+0x24>

000079e4 <_ldtoa_r>:
    79e4:	0000a897          	auipc	x17,0xa
    79e8:	74888893          	addi	x17,x17,1864 # 1212c <zeroes.0+0x10>
    79ec:	0008af83          	lw	x31,0(x17)
    79f0:	0048af03          	lw	x30,4(x17)
    79f4:	0088ae83          	lw	x29,8(x17)
    79f8:	00c8ae03          	lw	x28,12(x17)
    79fc:	0108a303          	lw	x6,16(x17)
    7a00:	03852883          	lw	x17,56(x10)
    7a04:	f4010113          	addi	x2,x2,-192
    7a08:	0a912a23          	sw	x9,180(x2)
    7a0c:	0b212823          	sw	x18,176(x2)
    7a10:	0b312623          	sw	x19,172(x2)
    7a14:	0b512223          	sw	x21,164(x2)
    7a18:	0b612023          	sw	x22,160(x2)
    7a1c:	09712e23          	sw	x23,156(x2)
    7a20:	09812c23          	sw	x24,152(x2)
    7a24:	09a12823          	sw	x26,144(x2)
    7a28:	0a112e23          	sw	x1,188(x2)
    7a2c:	0a812c23          	sw	x8,184(x2)
    7a30:	0b412423          	sw	x20,168(x2)
    7a34:	09b12623          	sw	x27,140(x2)
    7a38:	07f12623          	sw	x31,108(x2)
    7a3c:	07e12823          	sw	x30,112(x2)
    7a40:	07d12a23          	sw	x29,116(x2)
    7a44:	07c12c23          	sw	x28,120(x2)
    7a48:	06612e23          	sw	x6,124(x2)
    7a4c:	02c12023          	sw	x12,32(x2)
    7a50:	02d12223          	sw	x13,36(x2)
    7a54:	0005a983          	lw	x19,0(x11)
    7a58:	0045a903          	lw	x18,4(x11)
    7a5c:	0085a483          	lw	x9,8(x11)
    7a60:	00c5ab83          	lw	x23,12(x11)
    7a64:	00050a93          	addi	x21,x10,0
    7a68:	00070b13          	addi	x22,x14,0
    7a6c:	00078c13          	addi	x24,x15,0
    7a70:	00080d13          	addi	x26,x16,0
    7a74:	02088263          	beq	x17,x0,7a98 <_ldtoa_r+0xb4>
    7a78:	03c52703          	lw	x14,60(x10)
    7a7c:	00100793          	addi	x15,x0,1
    7a80:	00088593          	addi	x11,x17,0
    7a84:	00e797b3          	sll	x15,x15,x14
    7a88:	00e8a223          	sw	x14,4(x17)
    7a8c:	00f8a423          	sw	x15,8(x17)
    7a90:	4a5020ef          	jal	x1,a734 <_Bfree>
    7a94:	020aac23          	sw	x0,56(x21)
    7a98:	07812783          	lw	x15,120(x2)
    7a9c:	01fbd693          	srli	x13,x23,0x1f
    7aa0:	00dc2023          	sw	x13,0(x24)
    7aa4:	4017d713          	srai	x14,x15,0x1
    7aa8:	001b9a13          	slli	x20,x23,0x1
    7aac:	ffffcc37          	lui	x24,0xffffc
    7ab0:	001b9413          	slli	x8,x23,0x1
    7ab4:	00d77733          	and	x14,x14,x13
    7ab8:	011a5a13          	srli	x20,x20,0x11
    7abc:	010b9d93          	slli	x27,x23,0x10
    7ac0:	f91c0c13          	addi	x24,x24,-111 # ffffbf91 <__heap_end+0xffbfbf91>
    7ac4:	00145413          	srli	x8,x8,0x1
    7ac8:	00f74733          	xor	x14,x14,x15
    7acc:	010ddd93          	srli	x27,x27,0x10
    7ad0:	018a07b3          	add	x15,x20,x24
    7ad4:	03010593          	addi	x11,x2,48
    7ad8:	04010513          	addi	x10,x2,64
    7adc:	05312023          	sw	x19,64(x2)
    7ae0:	05212223          	sw	x18,68(x2)
    7ae4:	04912423          	sw	x9,72(x2)
    7ae8:	04812623          	sw	x8,76(x2)
    7aec:	03312823          	sw	x19,48(x2)
    7af0:	03212a23          	sw	x18,52(x2)
    7af4:	02912c23          	sw	x9,56(x2)
    7af8:	02812e23          	sw	x8,60(x2)
    7afc:	06e12c23          	sw	x14,120(x2)
    7b00:	00f12e23          	sw	x15,28(x2)
    7b04:	05312e23          	sw	x19,92(x2)
    7b08:	07212023          	sw	x18,96(x2)
    7b0c:	06912223          	sw	x9,100(x2)
    7b10:	07b12423          	sw	x27,104(x2)
    7b14:	728090ef          	jal	x1,1123c <__unordtf2>
    7b18:	1a051663          	bne	x10,x0,7cc4 <_ldtoa_r+0x2e0>
    7b1c:	0000a797          	auipc	x15,0xa
    7b20:	46478793          	addi	x15,x15,1124 # 11f80 <zeroes.0+0x5c>
    7b24:	0007a603          	lw	x12,0(x15)
    7b28:	0047a683          	lw	x13,4(x15)
    7b2c:	09912a23          	sw	x25,148(x2)
    7b30:	0087ac03          	lw	x24,8(x15)
    7b34:	00c7ac83          	lw	x25,12(x15)
    7b38:	03010593          	addi	x11,x2,48
    7b3c:	04010513          	addi	x10,x2,64
    7b40:	05312023          	sw	x19,64(x2)
    7b44:	05212223          	sw	x18,68(x2)
    7b48:	04912423          	sw	x9,72(x2)
    7b4c:	04812623          	sw	x8,76(x2)
    7b50:	02c12823          	sw	x12,48(x2)
    7b54:	02c12623          	sw	x12,44(x2)
    7b58:	02d12a23          	sw	x13,52(x2)
    7b5c:	02d12423          	sw	x13,40(x2)
    7b60:	03812c23          	sw	x24,56(x2)
    7b64:	03912e23          	sw	x25,60(x2)
    7b68:	6d4090ef          	jal	x1,1123c <__unordtf2>
    7b6c:	08051c63          	bne	x10,x0,7c04 <_ldtoa_r+0x220>
    7b70:	03010593          	addi	x11,x2,48
    7b74:	04010513          	addi	x10,x2,64
    7b78:	43d060ef          	jal	x1,e7b4 <__letf2>
    7b7c:	08a05463          	bge	x0,x10,7c04 <_ldtoa_r+0x220>
    7b80:	09412c83          	lw	x25,148(x2)
    7b84:	00300793          	addi	x15,x0,3
    7b88:	04f12c23          	sw	x15,88(x2)
    7b8c:	02012783          	lw	x15,32(x2)
    7b90:	02412803          	lw	x16,36(x2)
    7b94:	01c12603          	lw	x12,28(x2)
    7b98:	05810713          	addi	x14,x2,88
    7b9c:	01a12023          	sw	x26,0(x2)
    7ba0:	000b0893          	addi	x17,x22,0
    7ba4:	05c10693          	addi	x13,x2,92
    7ba8:	06c10593          	addi	x11,x2,108
    7bac:	000a8513          	addi	x10,x21,0
    7bb0:	240000ef          	jal	x1,7df0 <__gdtoa>
    7bb4:	000b2703          	lw	x14,0(x22)
    7bb8:	ffff87b7          	lui	x15,0xffff8
    7bbc:	00f71863          	bne	x14,x15,7bcc <_ldtoa_r+0x1e8>
    7bc0:	800007b7          	lui	x15,0x80000
    7bc4:	fff78793          	addi	x15,x15,-1 # 7fffffff <__heap_end+0x7fbfffff>
    7bc8:	00fb2023          	sw	x15,0(x22)
    7bcc:	0bc12083          	lw	x1,188(x2)
    7bd0:	0b812403          	lw	x8,184(x2)
    7bd4:	0b412483          	lw	x9,180(x2)
    7bd8:	0b012903          	lw	x18,176(x2)
    7bdc:	0ac12983          	lw	x19,172(x2)
    7be0:	0a812a03          	lw	x20,168(x2)
    7be4:	0a412a83          	lw	x21,164(x2)
    7be8:	0a012b03          	lw	x22,160(x2)
    7bec:	09c12b83          	lw	x23,156(x2)
    7bf0:	09812c03          	lw	x24,152(x2)
    7bf4:	09012d03          	lw	x26,144(x2)
    7bf8:	08c12d83          	lw	x27,140(x2)
    7bfc:	0c010113          	addi	x2,x2,192
    7c00:	00008067          	jalr	x0,0(x1)
    7c04:	0000a797          	auipc	x15,0xa
    7c08:	38c78793          	addi	x15,x15,908 # 11f90 <zeroes.0+0x6c>
    7c0c:	0007a603          	lw	x12,0(x15)
    7c10:	0047a683          	lw	x13,4(x15)
    7c14:	0087a703          	lw	x14,8(x15)
    7c18:	00c7a783          	lw	x15,12(x15)
    7c1c:	03010593          	addi	x11,x2,48
    7c20:	04010513          	addi	x10,x2,64
    7c24:	05312023          	sw	x19,64(x2)
    7c28:	05212223          	sw	x18,68(x2)
    7c2c:	04912423          	sw	x9,72(x2)
    7c30:	04812623          	sw	x8,76(x2)
    7c34:	02c12823          	sw	x12,48(x2)
    7c38:	02d12a23          	sw	x13,52(x2)
    7c3c:	02e12c23          	sw	x14,56(x2)
    7c40:	02f12e23          	sw	x15,60(x2)
    7c44:	211060ef          	jal	x1,e654 <__getf2>
    7c48:	02054063          	blt	x10,x0,7c68 <_ldtoa_r+0x284>
    7c4c:	000107b7          	lui	x15,0x10
    7c50:	00fdedb3          	or	x27,x27,x15
    7c54:	00100793          	addi	x15,x0,1
    7c58:	09412c83          	lw	x25,148(x2)
    7c5c:	04f12c23          	sw	x15,88(x2)
    7c60:	07b12423          	sw	x27,104(x2)
    7c64:	f29ff06f          	jal	x0,7b8c <_ldtoa_r+0x1a8>
    7c68:	03010593          	addi	x11,x2,48
    7c6c:	04010513          	addi	x10,x2,64
    7c70:	05312023          	sw	x19,64(x2)
    7c74:	05212223          	sw	x18,68(x2)
    7c78:	04912423          	sw	x9,72(x2)
    7c7c:	05712623          	sw	x23,76(x2)
    7c80:	02012823          	sw	x0,48(x2)
    7c84:	02012a23          	sw	x0,52(x2)
    7c88:	02012c23          	sw	x0,56(x2)
    7c8c:	02012e23          	sw	x0,60(x2)
    7c90:	0f5060ef          	jal	x1,e584 <__eqtf2>
    7c94:	00051863          	bne	x10,x0,7ca4 <_ldtoa_r+0x2c0>
    7c98:	09412c83          	lw	x25,148(x2)
    7c9c:	04012c23          	sw	x0,88(x2)
    7ca0:	eedff06f          	jal	x0,7b8c <_ldtoa_r+0x1a8>
    7ca4:	ffffcc37          	lui	x24,0xffffc
    7ca8:	00200793          	addi	x15,x0,2
    7cac:	f92c0c13          	addi	x24,x24,-110 # ffffbf92 <__heap_end+0xffbfbf92>
    7cb0:	04f12c23          	sw	x15,88(x2)
    7cb4:	018a07b3          	add	x15,x20,x24
    7cb8:	09412c83          	lw	x25,148(x2)
    7cbc:	00f12e23          	sw	x15,28(x2)
    7cc0:	ecdff06f          	jal	x0,7b8c <_ldtoa_r+0x1a8>
    7cc4:	00400793          	addi	x15,x0,4
    7cc8:	04f12c23          	sw	x15,88(x2)
    7ccc:	ec1ff06f          	jal	x0,7b8c <_ldtoa_r+0x1a8>

00007cd0 <_ldcheck>:
    7cd0:	fb010113          	addi	x2,x2,-80
    7cd4:	04912223          	sw	x9,68(x2)
    7cd8:	00c52483          	lw	x9,12(x10)
    7cdc:	05212023          	sw	x18,64(x2)
    7ce0:	03312e23          	sw	x19,60(x2)
    7ce4:	00852903          	lw	x18,8(x10)
    7ce8:	00452983          	lw	x19,4(x10)
    7cec:	03412c23          	sw	x20,56(x2)
    7cf0:	00052a03          	lw	x20,0(x10)
    7cf4:	00149493          	slli	x9,x9,0x1
    7cf8:	0014d493          	srli	x9,x9,0x1
    7cfc:	00010593          	addi	x11,x2,0
    7d00:	01010513          	addi	x10,x2,16
    7d04:	04112623          	sw	x1,76(x2)
    7d08:	01412823          	sw	x20,16(x2)
    7d0c:	01312a23          	sw	x19,20(x2)
    7d10:	01212c23          	sw	x18,24(x2)
    7d14:	00912e23          	sw	x9,28(x2)
    7d18:	01412023          	sw	x20,0(x2)
    7d1c:	01312223          	sw	x19,4(x2)
    7d20:	01212423          	sw	x18,8(x2)
    7d24:	00912623          	sw	x9,12(x2)
    7d28:	514090ef          	jal	x1,1123c <__unordtf2>
    7d2c:	0a051263          	bne	x10,x0,7dd0 <_ldcheck+0x100>
    7d30:	0000a797          	auipc	x15,0xa
    7d34:	25078793          	addi	x15,x15,592 # 11f80 <zeroes.0+0x5c>
    7d38:	03512a23          	sw	x21,52(x2)
    7d3c:	03612823          	sw	x22,48(x2)
    7d40:	03712623          	sw	x23,44(x2)
    7d44:	03812423          	sw	x24,40(x2)
    7d48:	0047ab83          	lw	x23,4(x15)
    7d4c:	0007ac03          	lw	x24,0(x15)
    7d50:	0087ab03          	lw	x22,8(x15)
    7d54:	00c7aa83          	lw	x21,12(x15)
    7d58:	00010593          	addi	x11,x2,0
    7d5c:	01010513          	addi	x10,x2,16
    7d60:	04812423          	sw	x8,72(x2)
    7d64:	01812023          	sw	x24,0(x2)
    7d68:	01712223          	sw	x23,4(x2)
    7d6c:	01612423          	sw	x22,8(x2)
    7d70:	01512623          	sw	x21,12(x2)
    7d74:	00100413          	addi	x8,x0,1
    7d78:	4c4090ef          	jal	x1,1123c <__unordtf2>
    7d7c:	04050063          	beq	x10,x0,7dbc <_ldcheck+0xec>
    7d80:	04c12083          	lw	x1,76(x2)
    7d84:	00144513          	xori	x10,x8,1
    7d88:	04812403          	lw	x8,72(x2)
    7d8c:	0ff57513          	andi	x10,x10,255
    7d90:	03412a83          	lw	x21,52(x2)
    7d94:	03012b03          	lw	x22,48(x2)
    7d98:	02c12b83          	lw	x23,44(x2)
    7d9c:	02812c03          	lw	x24,40(x2)
    7da0:	04412483          	lw	x9,68(x2)
    7da4:	04012903          	lw	x18,64(x2)
    7da8:	03c12983          	lw	x19,60(x2)
    7dac:	03812a03          	lw	x20,56(x2)
    7db0:	00151513          	slli	x10,x10,0x1
    7db4:	05010113          	addi	x2,x2,80
    7db8:	00008067          	jalr	x0,0(x1)
    7dbc:	00010593          	addi	x11,x2,0
    7dc0:	01010513          	addi	x10,x2,16
    7dc4:	1f1060ef          	jal	x1,e7b4 <__letf2>
    7dc8:	00152413          	slti	x8,x10,1
    7dcc:	fb5ff06f          	jal	x0,7d80 <_ldcheck+0xb0>
    7dd0:	04c12083          	lw	x1,76(x2)
    7dd4:	04412483          	lw	x9,68(x2)
    7dd8:	04012903          	lw	x18,64(x2)
    7ddc:	03c12983          	lw	x19,60(x2)
    7de0:	03812a03          	lw	x20,56(x2)
    7de4:	00100513          	addi	x10,x0,1
    7de8:	05010113          	addi	x2,x2,80
    7dec:	00008067          	jalr	x0,0(x1)

00007df0 <__gdtoa>:
    7df0:	e0010113          	addi	x2,x2,-512
    7df4:	1d912a23          	sw	x25,468(x2)
    7df8:	00072c83          	lw	x25,0(x14)
    7dfc:	20012303          	lw	x6,512(x2)
    7e00:	1e112e23          	sw	x1,508(x2)
    7e04:	fcfcfe13          	andi	x28,x25,-49
    7e08:	01c72023          	sw	x28,0(x14)
    7e0c:	00300e93          	addi	x29,x0,3
    7e10:	00fcfe13          	andi	x28,x25,15
    7e14:	00612223          	sw	x6,4(x2)
    7e18:	00c12423          	sw	x12,8(x2)
    7e1c:	01012a23          	sw	x16,20(x2)
    7e20:	01112023          	sw	x17,0(x2)
    7e24:	11de06e3          	beq	x28,x29,8730 <__gdtoa+0x940>
    7e28:	1f612023          	sw	x22,480(x2)
    7e2c:	1db12623          	sw	x27,460(x2)
    7e30:	00ccfb13          	andi	x22,x25,12
    7e34:	7e0b1a63          	bne	x22,x0,8628 <__gdtoa+0x838>
    7e38:	1e812c23          	sw	x8,504(x2)
    7e3c:	00050413          	addi	x8,x10,0
    7e40:	0a0e04e3          	beq	x28,x0,86e8 <__gdtoa+0x8f8>
    7e44:	1da12823          	sw	x26,464(x2)
    7e48:	0005ad03          	lw	x26,0(x11)
    7e4c:	1f312623          	sw	x19,492(x2)
    7e50:	1f412423          	sw	x20,488(x2)
    7e54:	1f512223          	sw	x21,484(x2)
    7e58:	00068a13          	addi	x20,x13,0 # 2000 <_vfprintf_r+0x620>
    7e5c:	02000693          	addi	x13,x0,32
    7e60:	00058a93          	addi	x21,x11,0
    7e64:	00078993          	addi	x19,x15,0
    7e68:	00000593          	addi	x11,x0,0
    7e6c:	02000793          	addi	x15,x0,32
    7e70:	01a6d863          	bge	x13,x26,7e80 <__gdtoa+0x90>
    7e74:	00179793          	slli	x15,x15,0x1
    7e78:	00158593          	addi	x11,x11,1
    7e7c:	ffa7cce3          	blt	x15,x26,7e74 <__gdtoa+0x84>
    7e80:	00040513          	addi	x10,x8,0
    7e84:	02e12423          	sw	x14,40(x2)
    7e88:	7f8020ef          	jal	x1,a680 <_Balloc>
    7e8c:	00a12823          	sw	x10,16(x2)
    7e90:	02812703          	lw	x14,40(x2)
    7e94:	500506e3          	beq	x10,x0,8ba0 <__gdtoa+0xdb0>
    7e98:	01012783          	lw	x15,16(x2)
    7e9c:	fffd0513          	addi	x10,x26,-1
    7ea0:	40555513          	srai	x10,x10,0x5
    7ea4:	00251593          	slli	x11,x10,0x2
    7ea8:	01478693          	addi	x13,x15,20
    7eac:	1d712e23          	sw	x23,476(x2)
    7eb0:	1d812c23          	sw	x24,472(x2)
    7eb4:	00ba05b3          	add	x11,x20,x11
    7eb8:	000a0793          	addi	x15,x20,0
    7ebc:	0007a603          	lw	x12,0(x15)
    7ec0:	00478793          	addi	x15,x15,4
    7ec4:	00468693          	addi	x13,x13,4
    7ec8:	fec6ae23          	sw	x12,-4(x13)
    7ecc:	fef5f8e3          	bgeu	x11,x15,7ebc <__gdtoa+0xcc>
    7ed0:	00158593          	addi	x11,x11,1
    7ed4:	001a0793          	addi	x15,x20,1
    7ed8:	00400693          	addi	x13,x0,4
    7edc:	00f5e663          	bltu	x11,x15,7ee8 <__gdtoa+0xf8>
    7ee0:	00251513          	slli	x10,x10,0x2
    7ee4:	00450693          	addi	x13,x10,4
    7ee8:	01012783          	lw	x15,16(x2)
    7eec:	4026db93          	srai	x23,x13,0x2
    7ef0:	00d786b3          	add	x13,x15,x13
    7ef4:	00c0006f          	jal	x0,7f00 <__gdtoa+0x110>
    7ef8:	ffc68693          	addi	x13,x13,-4
    7efc:	060b80e3          	beq	x23,x0,875c <__gdtoa+0x96c>
    7f00:	0106a783          	lw	x15,16(x13)
    7f04:	000b8c13          	addi	x24,x23,0
    7f08:	fffb8b93          	addi	x23,x23,-1
    7f0c:	fe0786e3          	beq	x15,x0,7ef8 <__gdtoa+0x108>
    7f10:	02e12423          	sw	x14,40(x2)
    7f14:	01012703          	lw	x14,16(x2)
    7f18:	004b8793          	addi	x15,x23,4
    7f1c:	00279793          	slli	x15,x15,0x2
    7f20:	00f707b3          	add	x15,x14,x15
    7f24:	0047a503          	lw	x10,4(x15)
    7f28:	01872823          	sw	x24,16(x14)
    7f2c:	005c1c13          	slli	x24,x24,0x5
    7f30:	2ad020ef          	jal	x1,a9dc <__hi0bits>
    7f34:	02812703          	lw	x14,40(x2)
    7f38:	40ac0bb3          	sub	x23,x24,x10
    7f3c:	01012503          	lw	x10,16(x2)
    7f40:	02e12423          	sw	x14,40(x2)
    7f44:	1bc020ef          	jal	x1,a100 <__trailz_D2A>
    7f48:	00812783          	lw	x15,8(x2)
    7f4c:	1aa12e23          	sw	x10,444(x2)
    7f50:	02812703          	lw	x14,40(x2)
    7f54:	02f12623          	sw	x15,44(x2)
    7f58:	040518e3          	bne	x10,x0,87a8 <__gdtoa+0x9b8>
    7f5c:	01012783          	lw	x15,16(x2)
    7f60:	0107a683          	lw	x13,16(x15)
    7f64:	76068063          	beq	x13,x0,86c4 <__gdtoa+0x8d4>
    7f68:	01012503          	lw	x10,16(x2)
    7f6c:	1bc10593          	addi	x11,x2,444
    7f70:	1e912a23          	sw	x9,500(x2)
    7f74:	1f212823          	sw	x18,496(x2)
    7f78:	02e12423          	sw	x14,40(x2)
    7f7c:	4b4030ef          	jal	x1,b430 <__b2d>
    7f80:	00c59c13          	slli	x24,x11,0xc
    7f84:	00cc5c13          	srli	x24,x24,0xc
    7f88:	3ff006b7          	lui	x13,0x3ff00
    7f8c:	00dc6933          	or	x18,x24,x13
    7f90:	00a12c23          	sw	x10,24(x2)
    7f94:	0000b697          	auipc	x13,0xb
    7f98:	bbc68693          	addi	x13,x13,-1092 # 12b50 <__SDATA_BEGIN__>
    7f9c:	01212e23          	sw	x18,28(x2)
    7fa0:	02c12703          	lw	x14,44(x2)
    7fa4:	00050793          	addi	x15,x10,0
    7fa8:	0006a603          	lw	x12,0(x13)
    7fac:	04a12e23          	sw	x10,92(x2)
    7fb0:	0046a683          	lw	x13,4(x13)
    7fb4:	01812503          	lw	x10,24(x2)
    7fb8:	01c12583          	lw	x11,28(x2)
    7fbc:	01770733          	add	x14,x14,x23
    7fc0:	fff70c13          	addi	x24,x14,-1
    7fc4:	04e12c23          	sw	x14,88(x2)
    7fc8:	06f12023          	sw	x15,96(x2)
    7fcc:	355050ef          	jal	x1,db20 <__subdf3>
    7fd0:	0000b697          	auipc	x13,0xb
    7fd4:	b8868693          	addi	x13,x13,-1144 # 12b58 <__SDATA_BEGIN__+0x8>
    7fd8:	0006a603          	lw	x12,0(x13)
    7fdc:	0046a683          	lw	x13,4(x13)
    7fe0:	460050ef          	jal	x1,d440 <__muldf3>
    7fe4:	0000b697          	auipc	x13,0xb
    7fe8:	b7c68693          	addi	x13,x13,-1156 # 12b60 <__SDATA_BEGIN__+0x10>
    7fec:	0006a603          	lw	x12,0(x13)
    7ff0:	0046a683          	lw	x13,4(x13)
    7ff4:	150040ef          	jal	x1,c144 <__adddf3>
    7ff8:	00050d93          	addi	x27,x10,0
    7ffc:	000c0513          	addi	x10,x24,0
    8000:	00058493          	addi	x9,x11,0
    8004:	4b8060ef          	jal	x1,e4bc <__floatsidf>
    8008:	0000b697          	auipc	x13,0xb
    800c:	b6068693          	addi	x13,x13,-1184 # 12b68 <__SDATA_BEGIN__+0x18>
    8010:	0006a603          	lw	x12,0(x13)
    8014:	0046a683          	lw	x13,4(x13)
    8018:	428050ef          	jal	x1,d440 <__muldf3>
    801c:	03b12023          	sw	x27,32(x2)
    8020:	02912223          	sw	x9,36(x2)
    8024:	00050613          	addi	x12,x10,0
    8028:	00058693          	addi	x13,x11,0
    802c:	02012503          	lw	x10,32(x2)
    8030:	02412583          	lw	x11,36(x2)
    8034:	110040ef          	jal	x1,c144 <__adddf3>
    8038:	00050d93          	addi	x27,x10,0
    803c:	02812703          	lw	x14,40(x2)
    8040:	00058493          	addi	x9,x11,0
    8044:	000c0513          	addi	x10,x24,0
    8048:	000c5863          	bge	x24,x0,8058 <__gdtoa+0x268>
    804c:	05812783          	lw	x15,88(x2)
    8050:	00100513          	addi	x10,x0,1
    8054:	40f50533          	sub	x10,x10,x15
    8058:	bcb50513          	addi	x10,x10,-1077
    805c:	04a05463          	bge	x0,x10,80a4 <__gdtoa+0x2b4>
    8060:	02e12423          	sw	x14,40(x2)
    8064:	458060ef          	jal	x1,e4bc <__floatsidf>
    8068:	0000b697          	auipc	x13,0xb
    806c:	b0868693          	addi	x13,x13,-1272 # 12b70 <__SDATA_BEGIN__+0x20>
    8070:	0006a603          	lw	x12,0(x13)
    8074:	0046a683          	lw	x13,4(x13)
    8078:	3c8050ef          	jal	x1,d440 <__muldf3>
    807c:	05b12023          	sw	x27,64(x2)
    8080:	04912223          	sw	x9,68(x2)
    8084:	00050613          	addi	x12,x10,0
    8088:	00058693          	addi	x13,x11,0
    808c:	04012503          	lw	x10,64(x2)
    8090:	04412583          	lw	x11,68(x2)
    8094:	0b0040ef          	jal	x1,c144 <__adddf3>
    8098:	02812703          	lw	x14,40(x2)
    809c:	00050d93          	addi	x27,x10,0
    80a0:	00058493          	addi	x9,x11,0
    80a4:	03b12823          	sw	x27,48(x2)
    80a8:	02912a23          	sw	x9,52(x2)
    80ac:	03412583          	lw	x11,52(x2)
    80b0:	03012503          	lw	x10,48(x2)
    80b4:	00e12c23          	sw	x14,24(x2)
    80b8:	380060ef          	jal	x1,e438 <__fixdfsi>
    80bc:	03b12c23          	sw	x27,56(x2)
    80c0:	02912e23          	sw	x9,60(x2)
    80c4:	00050893          	addi	x17,x10,0
    80c8:	03c12583          	lw	x11,60(x2)
    80cc:	03812503          	lw	x10,56(x2)
    80d0:	00000613          	addi	x12,x0,0
    80d4:	00000693          	addi	x13,x0,0
    80d8:	03112423          	sw	x17,40(x2)
    80dc:	25c050ef          	jal	x1,d338 <__ledf2>
    80e0:	01812703          	lw	x14,24(x2)
    80e4:	02055a63          	bge	x10,x0,8118 <__gdtoa+0x328>
    80e8:	02812503          	lw	x10,40(x2)
    80ec:	3d0060ef          	jal	x1,e4bc <__floatsidf>
    80f0:	05b12823          	sw	x27,80(x2)
    80f4:	04912a23          	sw	x9,84(x2)
    80f8:	05012603          	lw	x12,80(x2)
    80fc:	05412683          	lw	x13,84(x2)
    8100:	0ac050ef          	jal	x1,d1ac <__eqdf2>
    8104:	02812783          	lw	x15,40(x2)
    8108:	00a03533          	sltu	x10,x0,x10
    810c:	01812703          	lw	x14,24(x2)
    8110:	40a787b3          	sub	x15,x15,x10
    8114:	02f12423          	sw	x15,40(x2)
    8118:	418b84b3          	sub	x9,x23,x24
    811c:	fff48793          	addi	x15,x9,-1
    8120:	00f12c23          	sw	x15,24(x2)
    8124:	02812783          	lw	x15,40(x2)
    8128:	014c1613          	slli	x12,x24,0x14
    812c:	01600693          	addi	x13,x0,22
    8130:	01260c33          	add	x24,x12,x18
    8134:	62f6ea63          	bltu	x13,x15,8768 <__gdtoa+0x978>
    8138:	05c12583          	lw	x11,92(x2)
    813c:	0000ae17          	auipc	x28,0xa
    8140:	014e0e13          	addi	x28,x28,20 # 12150 <__mprec_tens>
    8144:	00379613          	slli	x12,x15,0x3
    8148:	00ce0633          	add	x12,x28,x12
    814c:	04b12423          	sw	x11,72(x2)
    8150:	05812623          	sw	x24,76(x2)
    8154:	00062503          	lw	x10,0(x12)
    8158:	00462583          	lw	x11,4(x12)
    815c:	04c12683          	lw	x13,76(x2)
    8160:	04812603          	lw	x12,72(x2)
    8164:	02e12023          	sw	x14,32(x2)
    8168:	0d0050ef          	jal	x1,d238 <__gedf2>
    816c:	02012703          	lw	x14,32(x2)
    8170:	26a04ce3          	blt	x0,x10,8be8 <__gdtoa+0xdf8>
    8174:	06012423          	sw	x0,104(x2)
    8178:	02012823          	sw	x0,48(x2)
    817c:	00904a63          	blt	x0,x9,8190 <__gdtoa+0x3a0>
    8180:	00100693          	addi	x13,x0,1
    8184:	409687b3          	sub	x15,x13,x9
    8188:	02f12823          	sw	x15,48(x2)
    818c:	00012c23          	sw	x0,24(x2)
    8190:	01812683          	lw	x13,24(x2)
    8194:	02812783          	lw	x15,40(x2)
    8198:	04012023          	sw	x0,64(x2)
    819c:	00f686b3          	add	x13,x13,x15
    81a0:	00d12c23          	sw	x13,24(x2)
    81a4:	04f12423          	sw	x15,72(x2)
    81a8:	00900693          	addi	x13,x0,9
    81ac:	6336e263          	bltu	x13,x19,87d0 <__gdtoa+0x9e0>
    81b0:	00500613          	addi	x12,x0,5
    81b4:	253644e3          	blt	x12,x19,8bfc <__gdtoa+0xe0c>
    81b8:	05812783          	lw	x15,88(x2)
    81bc:	00400593          	addi	x11,x0,4
    81c0:	3fd78693          	addi	x13,x15,1021
    81c4:	7f86b493          	sltiu	x9,x13,2040
    81c8:	00b99463          	bne	x19,x11,81d0 <__gdtoa+0x3e0>
    81cc:	1b80106f          	jal	x0,9384 <__gdtoa+0x1594>
    81d0:	00c99463          	bne	x19,x12,81d8 <__gdtoa+0x3e8>
    81d4:	1a40106f          	jal	x0,9378 <__gdtoa+0x1588>
    81d8:	00200693          	addi	x13,x0,2
    81dc:	00d99463          	bne	x19,x13,81e4 <__gdtoa+0x3f4>
    81e0:	1b00106f          	jal	x0,9390 <__gdtoa+0x15a0>
    81e4:	00300693          	addi	x13,x0,3
    81e8:	04012c23          	sw	x0,88(x2)
    81ec:	5ed99a63          	bne	x19,x13,87e0 <__gdtoa+0x9f0>
    81f0:	04812783          	lw	x15,72(x2)
    81f4:	01412683          	lw	x13,20(x2)
    81f8:	00d787b3          	add	x15,x15,x13
    81fc:	06f12623          	sw	x15,108(x2)
    8200:	00178793          	addi	x15,x15,1
    8204:	02f12023          	sw	x15,32(x2)
    8208:	00f04463          	blt	x0,x15,8210 <__gdtoa+0x420>
    820c:	7190006f          	jal	x0,9124 <__gdtoa+0x1334>
    8210:	00078693          	addi	x13,x15,0
    8214:	00078593          	addi	x11,x15,0
    8218:	00040513          	addi	x10,x8,0
    821c:	04e12823          	sw	x14,80(x2)
    8220:	1ad12e23          	sw	x13,444(x2)
    8224:	2d5010ef          	jal	x1,9cf8 <__rv_alloc_D2A>
    8228:	00050d93          	addi	x27,x10,0
    822c:	44050a63          	beq	x10,x0,8680 <__gdtoa+0x890>
    8230:	00caa783          	lw	x15,12(x21)
    8234:	05012703          	lw	x14,80(x2)
    8238:	fff78793          	addi	x15,x15,-1
    823c:	02f12c23          	sw	x15,56(x2)
    8240:	5e078e63          	beq	x15,x0,883c <__gdtoa+0xa4c>
    8244:	1807cce3          	blt	x15,x0,8bdc <__gdtoa+0xdec>
    8248:	100cf313          	andi	x6,x25,256
    824c:	5e031063          	bne	x6,x0,882c <__gdtoa+0xa3c>
    8250:	02c12783          	lw	x15,44(x2)
    8254:	0007c863          	blt	x15,x0,8264 <__gdtoa+0x474>
    8258:	04812783          	lw	x15,72(x2)
    825c:	00e00693          	addi	x13,x0,14
    8260:	1cf6d2e3          	bge	x13,x15,8c24 <__gdtoa+0xe34>
    8264:	05812783          	lw	x15,88(x2)
    8268:	160782e3          	beq	x15,x0,8bcc <__gdtoa+0xddc>
    826c:	02c12783          	lw	x15,44(x2)
    8270:	417d0833          	sub	x16,x26,x23
    8274:	004aa683          	lw	x13,4(x21)
    8278:	00180613          	addi	x12,x16,1
    827c:	1ac12e23          	sw	x12,444(x2)
    8280:	41078833          	sub	x16,x15,x16
    8284:	00d84463          	blt	x16,x13,828c <__gdtoa+0x49c>
    8288:	6f90006f          	jal	x0,9180 <__gdtoa+0x1390>
    828c:	ffd98613          	addi	x12,x19,-3
    8290:	ffd67613          	andi	x12,x12,-3
    8294:	5e0602e3          	beq	x12,x0,9078 <__gdtoa+0x1288>
    8298:	40d786b3          	sub	x13,x15,x13
    829c:	00168693          	addi	x13,x13,1
    82a0:	1ad12e23          	sw	x13,444(x2)
    82a4:	00100613          	addi	x12,x0,1
    82a8:	01365c63          	bge	x12,x19,82c0 <__gdtoa+0x4d0>
    82ac:	02012783          	lw	x15,32(x2)
    82b0:	00f05863          	bge	x0,x15,82c0 <__gdtoa+0x4d0>
    82b4:	02012783          	lw	x15,32(x2)
    82b8:	00d7d463          	bge	x15,x13,82c0 <__gdtoa+0x4d0>
    82bc:	0090106f          	jal	x0,9ac4 <__gdtoa+0x1cd4>
    82c0:	03012783          	lw	x15,48(x2)
    82c4:	01812603          	lw	x12,24(x2)
    82c8:	04012483          	lw	x9,64(x2)
    82cc:	00078913          	addi	x18,x15,0
    82d0:	00d60633          	add	x12,x12,x13
    82d4:	00f687b3          	add	x15,x13,x15
    82d8:	00c12c23          	sw	x12,24(x2)
    82dc:	02f12823          	sw	x15,48(x2)
    82e0:	00100593          	addi	x11,x0,1
    82e4:	00040513          	addi	x10,x8,0
    82e8:	02e12623          	sw	x14,44(x2)
    82ec:	049020ef          	jal	x1,ab34 <__i2b>
    82f0:	02c12703          	lw	x14,44(x2)
    82f4:	00050c13          	addi	x24,x10,0
    82f8:	38050463          	beq	x10,x0,8680 <__gdtoa+0x890>
    82fc:	02090c63          	beq	x18,x0,8334 <__gdtoa+0x544>
    8300:	01812783          	lw	x15,24(x2)
    8304:	02f05863          	bge	x0,x15,8334 <__gdtoa+0x544>
    8308:	00090693          	addi	x13,x18,0
    830c:	0127d463          	bge	x15,x18,8314 <__gdtoa+0x524>
    8310:	00078693          	addi	x13,x15,0
    8314:	03012783          	lw	x15,48(x2)
    8318:	1ad12e23          	sw	x13,444(x2)
    831c:	40d90933          	sub	x18,x18,x13
    8320:	40d787b3          	sub	x15,x15,x13
    8324:	02f12823          	sw	x15,48(x2)
    8328:	01812783          	lw	x15,24(x2)
    832c:	40d787b3          	sub	x15,x15,x13
    8330:	00f12c23          	sw	x15,24(x2)
    8334:	04012783          	lw	x15,64(x2)
    8338:	02078a63          	beq	x15,x0,836c <__gdtoa+0x57c>
    833c:	05812783          	lw	x15,88(x2)
    8340:	00078663          	beq	x15,x0,834c <__gdtoa+0x55c>
    8344:	00048463          	beq	x9,x0,834c <__gdtoa+0x55c>
    8348:	7510006f          	jal	x0,9298 <__gdtoa+0x14a8>
    834c:	04012603          	lw	x12,64(x2)
    8350:	01012583          	lw	x11,16(x2)
    8354:	00040513          	addi	x10,x8,0
    8358:	02e12623          	sw	x14,44(x2)
    835c:	2d1020ef          	jal	x1,ae2c <__pow5mult>
    8360:	00a12823          	sw	x10,16(x2)
    8364:	02c12703          	lw	x14,44(x2)
    8368:	30050c63          	beq	x10,x0,8680 <__gdtoa+0x890>
    836c:	00100593          	addi	x11,x0,1
    8370:	00040513          	addi	x10,x8,0
    8374:	02e12623          	sw	x14,44(x2)
    8378:	7bc020ef          	jal	x1,ab34 <__i2b>
    837c:	00050d13          	addi	x26,x10,0
    8380:	30050063          	beq	x10,x0,8680 <__gdtoa+0x890>
    8384:	02812783          	lw	x15,40(x2)
    8388:	02c12703          	lw	x14,44(x2)
    838c:	5a0792e3          	bne	x15,x0,9130 <__gdtoa+0x1340>
    8390:	00100693          	addi	x13,x0,1
    8394:	2b36d0e3          	bge	x13,x19,8e34 <__gdtoa+0x1044>
    8398:	01f00a93          	addi	x21,x0,31
    839c:	01812783          	lw	x15,24(x2)
    83a0:	40fa8ab3          	sub	x21,x21,x15
    83a4:	03012783          	lw	x15,48(x2)
    83a8:	ffca8a93          	addi	x21,x21,-4
    83ac:	01fafa93          	andi	x21,x21,31
    83b0:	01578633          	add	x12,x15,x21
    83b4:	1b512e23          	sw	x21,444(x2)
    83b8:	000a8793          	addi	x15,x21,0
    83bc:	38c046e3          	blt	x0,x12,8f48 <__gdtoa+0x1158>
    83c0:	01812683          	lw	x13,24(x2)
    83c4:	00f68633          	add	x12,x13,x15
    83c8:	28c04e63          	blt	x0,x12,8664 <__gdtoa+0x874>
    83cc:	06812783          	lw	x15,104(x2)
    83d0:	38079ee3          	bne	x15,x0,8f6c <__gdtoa+0x117c>
    83d4:	02012783          	lw	x15,32(x2)
    83d8:	4cf056e3          	bge	x0,x15,90a4 <__gdtoa+0x12b4>
    83dc:	05812783          	lw	x15,88(x2)
    83e0:	3e0782e3          	beq	x15,x0,8fc4 <__gdtoa+0x11d4>
    83e4:	012a8633          	add	x12,x21,x18
    83e8:	00c05463          	bge	x0,x12,83f0 <__gdtoa+0x600>
    83ec:	7590006f          	jal	x0,9344 <__gdtoa+0x1554>
    83f0:	02812783          	lw	x15,40(x2)
    83f4:	000c0e93          	addi	x29,x24,0
    83f8:	00078463          	beq	x15,x0,8400 <__gdtoa+0x610>
    83fc:	7d10006f          	jal	x0,93cc <__gdtoa+0x15dc>
    8400:	000d8b93          	addi	x23,x27,0
    8404:	01b12423          	sw	x27,8(x2)
    8408:	01012c83          	lw	x25,16(x2)
    840c:	00100693          	addi	x13,x0,1
    8410:	00200493          	addi	x9,x0,2
    8414:	000e8d93          	addi	x27,x29,0
    8418:	00e12a23          	sw	x14,20(x2)
    841c:	0b00006f          	jal	x0,84cc <__gdtoa+0x6dc>
    8420:	00040513          	addi	x10,x8,0
    8424:	310020ef          	jal	x1,a734 <_Bfree>
    8428:	000ad463          	bge	x21,x0,8430 <__gdtoa+0x640>
    842c:	2440106f          	jal	x0,9670 <__gdtoa+0x1880>
    8430:	0159eab3          	or	x21,x19,x21
    8434:	000a9a63          	bne	x21,x0,8448 <__gdtoa+0x658>
    8438:	000a2783          	lw	x15,0(x20)
    843c:	0017f793          	andi	x15,x15,1
    8440:	00079463          	bne	x15,x0,8448 <__gdtoa+0x658>
    8444:	22c0106f          	jal	x0,9670 <__gdtoa+0x1880>
    8448:	03812783          	lw	x15,56(x2)
    844c:	00978463          	beq	x15,x9,8454 <__gdtoa+0x664>
    8450:	5840106f          	jal	x0,99d4 <__gdtoa+0x1be4>
    8454:	016b8023          	sb	x22,0(x23)
    8458:	1bc12783          	lw	x15,444(x2)
    845c:	02012703          	lw	x14,32(x2)
    8460:	001b8b93          	addi	x23,x23,1
    8464:	00f71463          	bne	x14,x15,846c <__gdtoa+0x67c>
    8468:	4a00106f          	jal	x0,9908 <__gdtoa+0x1b18>
    846c:	000c8593          	addi	x11,x25,0
    8470:	00000693          	addi	x13,x0,0
    8474:	00a00613          	addi	x12,x0,10
    8478:	00040513          	addi	x10,x8,0
    847c:	2dc020ef          	jal	x1,a758 <__multadd>
    8480:	00050c93          	addi	x25,x10,0
    8484:	1e050e63          	beq	x10,x0,8680 <__gdtoa+0x890>
    8488:	00000693          	addi	x13,x0,0
    848c:	00a00613          	addi	x12,x0,10
    8490:	000c0593          	addi	x11,x24,0
    8494:	00040513          	addi	x10,x8,0
    8498:	21bc00e3          	beq	x24,x27,8e98 <__gdtoa+0x10a8>
    849c:	2bc020ef          	jal	x1,a758 <__multadd>
    84a0:	00050c13          	addi	x24,x10,0
    84a4:	1c050e63          	beq	x10,x0,8680 <__gdtoa+0x890>
    84a8:	000d8593          	addi	x11,x27,0
    84ac:	00000693          	addi	x13,x0,0
    84b0:	00a00613          	addi	x12,x0,10
    84b4:	00040513          	addi	x10,x8,0
    84b8:	2a0020ef          	jal	x1,a758 <__multadd>
    84bc:	00050d93          	addi	x27,x10,0
    84c0:	1c050063          	beq	x10,x0,8680 <__gdtoa+0x890>
    84c4:	1bc12683          	lw	x13,444(x2)
    84c8:	00168693          	addi	x13,x13,1
    84cc:	000d0593          	addi	x11,x26,0
    84d0:	000c8513          	addi	x10,x25,0
    84d4:	1ad12e23          	sw	x13,444(x2)
    84d8:	13d010ef          	jal	x1,9e14 <__quorem_D2A>
    84dc:	00050913          	addi	x18,x10,0
    84e0:	000c0593          	addi	x11,x24,0
    84e4:	000c8513          	addi	x10,x25,0
    84e8:	425020ef          	jal	x1,b10c <__mcmp>
    84ec:	000d0593          	addi	x11,x26,0
    84f0:	00050a93          	addi	x21,x10,0
    84f4:	000d8613          	addi	x12,x27,0
    84f8:	00040513          	addi	x10,x8,0
    84fc:	469020ef          	jal	x1,b164 <__mdiff>
    8500:	03090b13          	addi	x22,x18,48
    8504:	00050593          	addi	x11,x10,0
    8508:	16050c63          	beq	x10,x0,8680 <__gdtoa+0x890>
    850c:	00c52783          	lw	x15,12(x10)
    8510:	f00798e3          	bne	x15,x0,8420 <__gdtoa+0x630>
    8514:	00a12823          	sw	x10,16(x2)
    8518:	000c8513          	addi	x10,x25,0
    851c:	3f1020ef          	jal	x1,b10c <__mcmp>
    8520:	01012583          	lw	x11,16(x2)
    8524:	00050693          	addi	x13,x10,0
    8528:	00040513          	addi	x10,x8,0
    852c:	00d12823          	sw	x13,16(x2)
    8530:	204020ef          	jal	x1,a734 <_Bfree>
    8534:	01012683          	lw	x13,16(x2)
    8538:	00d9e733          	or	x14,x19,x13
    853c:	00070463          	beq	x14,x0,8544 <__gdtoa+0x754>
    8540:	7440106f          	jal	x0,9c84 <__gdtoa+0x1e94>
    8544:	000a2783          	lw	x15,0(x20)
    8548:	0017f793          	andi	x15,x15,1
    854c:	160790e3          	bne	x15,x0,8eac <__gdtoa+0x10bc>
    8550:	03812783          	lw	x15,56(x2)
    8554:	00079463          	bne	x15,x0,855c <__gdtoa+0x76c>
    8558:	5f00106f          	jal	x0,9b48 <__gdtoa+0x1d58>
    855c:	ef504ce3          	blt	x0,x21,8454 <__gdtoa+0x664>
    8560:	010ca603          	lw	x12,16(x25)
    8564:	01912823          	sw	x25,16(x2)
    8568:	00100693          	addi	x13,x0,1
    856c:	000b0813          	addi	x16,x22,0
    8570:	000d8e93          	addi	x29,x27,0
    8574:	00070b13          	addi	x22,x14,0
    8578:	00812d83          	lw	x27,8(x2)
    857c:	01412703          	lw	x14,20(x2)
    8580:	000c8793          	addi	x15,x25,0
    8584:	00c6c463          	blt	x13,x12,858c <__gdtoa+0x79c>
    8588:	6c40106f          	jal	x0,9c4c <__gdtoa+0x1e5c>
    858c:	03812783          	lw	x15,56(x2)
    8590:	00200693          	addi	x13,x0,2
    8594:	00d79463          	bne	x15,x13,859c <__gdtoa+0x7ac>
    8598:	6840106f          	jal	x0,9c1c <__gdtoa+0x1e2c>
    859c:	01012903          	lw	x18,16(x2)
    85a0:	00080a13          	addi	x20,x16,0
    85a4:	000e8a93          	addi	x21,x29,0
    85a8:	00070b13          	addi	x22,x14,0
    85ac:	0240006f          	jal	x0,85d0 <__gdtoa+0x7e0>
    85b0:	1a8020ef          	jal	x1,a758 <__multadd>
    85b4:	000d0593          	addi	x11,x26,0
    85b8:	00050913          	addi	x18,x10,0
    85bc:	0c050263          	beq	x10,x0,8680 <__gdtoa+0x890>
    85c0:	055010ef          	jal	x1,9e14 <__quorem_D2A>
    85c4:	03050a13          	addi	x20,x10,48
    85c8:	00098b93          	addi	x23,x19,0
    85cc:	00048a93          	addi	x21,x9,0
    85d0:	000a8593          	addi	x11,x21,0
    85d4:	000d0513          	addi	x10,x26,0
    85d8:	335020ef          	jal	x1,b10c <__mcmp>
    85dc:	00050793          	addi	x15,x10,0
    85e0:	00000693          	addi	x13,x0,0
    85e4:	00a00613          	addi	x12,x0,10
    85e8:	000a8593          	addi	x11,x21,0
    85ec:	00040513          	addi	x10,x8,0
    85f0:	001b8993          	addi	x19,x23,1
    85f4:	00f04463          	blt	x0,x15,85fc <__gdtoa+0x80c>
    85f8:	6040106f          	jal	x0,9bfc <__gdtoa+0x1e0c>
    85fc:	ff498fa3          	sb	x20,-1(x19)
    8600:	158020ef          	jal	x1,a758 <__multadd>
    8604:	00050493          	addi	x9,x10,0
    8608:	00000693          	addi	x13,x0,0
    860c:	00a00613          	addi	x12,x0,10
    8610:	00090593          	addi	x11,x18,0
    8614:	00040513          	addi	x10,x8,0
    8618:	06048463          	beq	x9,x0,8680 <__gdtoa+0x890>
    861c:	f95c1ae3          	bne	x24,x21,85b0 <__gdtoa+0x7c0>
    8620:	00048c13          	addi	x24,x9,0
    8624:	f8dff06f          	jal	x0,85b0 <__gdtoa+0x7c0>
    8628:	00400793          	addi	x15,x0,4
    862c:	06fe1c63          	bne	x28,x15,86a4 <__gdtoa+0x8b4>
    8630:	00012703          	lw	x14,0(x2)
    8634:	00412603          	lw	x12,4(x2)
    8638:	1e012b03          	lw	x22,480(x2)
    863c:	1cc12d83          	lw	x27,460(x2)
    8640:	1fc12083          	lw	x1,508(x2)
    8644:	1d412c83          	lw	x25,468(x2)
    8648:	ffff87b7          	lui	x15,0xffff8
    864c:	00f72023          	sw	x15,0(x14)
    8650:	00300693          	addi	x13,x0,3
    8654:	00009597          	auipc	x11,0x9
    8658:	4a058593          	addi	x11,x11,1184 # 11af4 <__clzsi2+0x378>
    865c:	20010113          	addi	x2,x2,512
    8660:	6e80106f          	jal	x0,9d48 <__nrv_alloc_D2A>
    8664:	000d0593          	addi	x11,x26,0
    8668:	00040513          	addi	x10,x8,0
    866c:	00e12423          	sw	x14,8(x2)
    8670:	10d020ef          	jal	x1,af7c <__lshift>
    8674:	00812703          	lw	x14,8(x2)
    8678:	00050d13          	addi	x26,x10,0
    867c:	d40518e3          	bne	x10,x0,83cc <__gdtoa+0x5dc>
    8680:	1f812403          	lw	x8,504(x2)
    8684:	1f412483          	lw	x9,500(x2)
    8688:	1f012903          	lw	x18,496(x2)
    868c:	1ec12983          	lw	x19,492(x2)
    8690:	1e812a03          	lw	x20,488(x2)
    8694:	1e412a83          	lw	x21,484(x2)
    8698:	1dc12b83          	lw	x23,476(x2)
    869c:	1d812c03          	lw	x24,472(x2)
    86a0:	1d012d03          	lw	x26,464(x2)
    86a4:	00000d93          	addi	x27,x0,0
    86a8:	1fc12083          	lw	x1,508(x2)
    86ac:	1e012b03          	lw	x22,480(x2)
    86b0:	1d412c83          	lw	x25,468(x2)
    86b4:	000d8513          	addi	x10,x27,0
    86b8:	1cc12d83          	lw	x27,460(x2)
    86bc:	20010113          	addi	x2,x2,512
    86c0:	00008067          	jalr	x0,0(x1)
    86c4:	00078593          	addi	x11,x15,0 # ffff8000 <__heap_end+0xffbf8000>
    86c8:	00040513          	addi	x10,x8,0
    86cc:	068020ef          	jal	x1,a734 <_Bfree>
    86d0:	1ec12983          	lw	x19,492(x2)
    86d4:	1e812a03          	lw	x20,488(x2)
    86d8:	1e412a83          	lw	x21,484(x2)
    86dc:	1dc12b83          	lw	x23,476(x2)
    86e0:	1d812c03          	lw	x24,472(x2)
    86e4:	1d012d03          	lw	x26,464(x2)
    86e8:	00012703          	lw	x14,0(x2)
    86ec:	00412603          	lw	x12,4(x2)
    86f0:	00100793          	addi	x15,x0,1
    86f4:	00040513          	addi	x10,x8,0
    86f8:	00f72023          	sw	x15,0(x14)
    86fc:	00100693          	addi	x13,x0,1
    8700:	00009597          	auipc	x11,0x9
    8704:	3e458593          	addi	x11,x11,996 # 11ae4 <__clzsi2+0x368>
    8708:	640010ef          	jal	x1,9d48 <__nrv_alloc_D2A>
    870c:	1fc12083          	lw	x1,508(x2)
    8710:	1f812403          	lw	x8,504(x2)
    8714:	00050d93          	addi	x27,x10,0
    8718:	1e012b03          	lw	x22,480(x2)
    871c:	1d412c83          	lw	x25,468(x2)
    8720:	000d8513          	addi	x10,x27,0
    8724:	1cc12d83          	lw	x27,460(x2)
    8728:	20010113          	addi	x2,x2,512
    872c:	00008067          	jalr	x0,0(x1)
    8730:	00012703          	lw	x14,0(x2)
    8734:	00412603          	lw	x12,4(x2)
    8738:	1fc12083          	lw	x1,508(x2)
    873c:	1d412c83          	lw	x25,468(x2)
    8740:	ffff87b7          	lui	x15,0xffff8
    8744:	00f72023          	sw	x15,0(x14)
    8748:	00800693          	addi	x13,x0,8
    874c:	00009597          	auipc	x11,0x9
    8750:	39c58593          	addi	x11,x11,924 # 11ae8 <__clzsi2+0x36c>
    8754:	20010113          	addi	x2,x2,512
    8758:	5f00106f          	jal	x0,9d48 <__nrv_alloc_D2A>
    875c:	01012783          	lw	x15,16(x2)
    8760:	0007a823          	sw	x0,16(x15) # ffff8010 <__heap_end+0xffbf8010>
    8764:	fd8ff06f          	jal	x0,7f3c <__gdtoa+0x14c>
    8768:	00100793          	addi	x15,x0,1
    876c:	06f12423          	sw	x15,104(x2)
    8770:	02012823          	sw	x0,48(x2)
    8774:	fff48793          	addi	x15,x9,-1
    8778:	4407c063          	blt	x15,x0,8bb8 <__gdtoa+0xdc8>
    877c:	02812783          	lw	x15,40(x2)
    8780:	a007d8e3          	bge	x15,x0,8190 <__gdtoa+0x3a0>
    8784:	02812783          	lw	x15,40(x2)
    8788:	03012683          	lw	x13,48(x2)
    878c:	02012423          	sw	x0,40(x2)
    8790:	04f12423          	sw	x15,72(x2)
    8794:	40f686b3          	sub	x13,x13,x15
    8798:	02d12823          	sw	x13,48(x2)
    879c:	40f006b3          	sub	x13,x0,x15
    87a0:	04d12023          	sw	x13,64(x2)
    87a4:	a05ff06f          	jal	x0,81a8 <__gdtoa+0x3b8>
    87a8:	00050593          	addi	x11,x10,0
    87ac:	01012503          	lw	x10,16(x2)
    87b0:	06d010ef          	jal	x1,a01c <__rshift_D2A>
    87b4:	1bc12683          	lw	x13,444(x2)
    87b8:	00812783          	lw	x15,8(x2)
    87bc:	02812703          	lw	x14,40(x2)
    87c0:	40db8bb3          	sub	x23,x23,x13
    87c4:	00f687b3          	add	x15,x13,x15
    87c8:	02f12623          	sw	x15,44(x2)
    87cc:	f90ff06f          	jal	x0,7f5c <__gdtoa+0x16c>
    87d0:	05812783          	lw	x15,88(x2)
    87d4:	00000993          	addi	x19,x0,0
    87d8:	3fd78693          	addi	x13,x15,1021
    87dc:	7f86b493          	sltiu	x9,x13,2040
    87e0:	000d0513          	addi	x10,x26,0
    87e4:	02e12c23          	sw	x14,56(x2)
    87e8:	4d5050ef          	jal	x1,e4bc <__floatsidf>
    87ec:	0000a697          	auipc	x13,0xa
    87f0:	38c68693          	addi	x13,x13,908 # 12b78 <__SDATA_BEGIN__+0x28>
    87f4:	0006a603          	lw	x12,0(x13)
    87f8:	0046a683          	lw	x13,4(x13)
    87fc:	445040ef          	jal	x1,d440 <__muldf3>
    8800:	439050ef          	jal	x1,e438 <__fixdfsi>
    8804:	00100793          	addi	x15,x0,1
    8808:	00350593          	addi	x11,x10,3
    880c:	04f12c23          	sw	x15,88(x2)
    8810:	fff00793          	addi	x15,x0,-1
    8814:	03812703          	lw	x14,56(x2)
    8818:	00058693          	addi	x13,x11,0
    881c:	00012a23          	sw	x0,20(x2)
    8820:	06f12623          	sw	x15,108(x2)
    8824:	02f12023          	sw	x15,32(x2)
    8828:	9f1ff06f          	jal	x0,8218 <__gdtoa+0x428>
    882c:	03812783          	lw	x15,56(x2)
    8830:	00300693          	addi	x13,x0,3
    8834:	40f687b3          	sub	x15,x13,x15
    8838:	02f12c23          	sw	x15,56(x2)
    883c:	02012c83          	lw	x25,32(x2)
    8840:	00e00693          	addi	x13,x0,14
    8844:	a196e6e3          	bltu	x13,x25,8250 <__gdtoa+0x460>
    8848:	a00484e3          	beq	x9,x0,8250 <__gdtoa+0x460>
    884c:	04812783          	lw	x15,72(x2)
    8850:	03812683          	lw	x13,56(x2)
    8854:	00d7e6b3          	or	x13,x15,x13
    8858:	9e069ce3          	bne	x13,x0,8250 <__gdtoa+0x460>
    885c:	05c12903          	lw	x18,92(x2)
    8860:	06812783          	lw	x15,104(x2)
    8864:	1a012e23          	sw	x0,444(x2)
    8868:	05212823          	sw	x18,80(x2)
    886c:	05812e23          	sw	x24,92(x2)
    8870:	02078c63          	beq	x15,x0,88a8 <__gdtoa+0xab8>
    8874:	0000a697          	auipc	x13,0xa
    8878:	30c68693          	addi	x13,x13,780 # 12b80 <__SDATA_BEGIN__+0x30>
    887c:	0b212c23          	sw	x18,184(x2)
    8880:	0b812e23          	sw	x24,188(x2)
    8884:	0006a603          	lw	x12,0(x13)
    8888:	0b812503          	lw	x10,184(x2)
    888c:	0046a683          	lw	x13,4(x13)
    8890:	0bc12583          	lw	x11,188(x2)
    8894:	02e12c23          	sw	x14,56(x2)
    8898:	2a1040ef          	jal	x1,d338 <__ledf2>
    889c:	03812703          	lw	x14,56(x2)
    88a0:	00055463          	bge	x10,x0,88a8 <__gdtoa+0xab8>
    88a4:	08c0106f          	jal	x0,9930 <__gdtoa+0x1b40>
    88a8:	05012783          	lw	x15,80(x2)
    88ac:	02e12c23          	sw	x14,56(x2)
    88b0:	08f12c23          	sw	x15,152(x2)
    88b4:	0af12023          	sw	x15,160(x2)
    88b8:	05c12783          	lw	x15,92(x2)
    88bc:	09812603          	lw	x12,152(x2)
    88c0:	0a012503          	lw	x10,160(x2)
    88c4:	08f12e23          	sw	x15,156(x2)
    88c8:	0af12223          	sw	x15,164(x2)
    88cc:	09c12683          	lw	x13,156(x2)
    88d0:	0a412583          	lw	x11,164(x2)
    88d4:	071030ef          	jal	x1,c144 <__adddf3>
    88d8:	0000a697          	auipc	x13,0xa
    88dc:	2c068693          	addi	x13,x13,704 # 12b98 <__SDATA_BEGIN__+0x48>
    88e0:	0006a603          	lw	x12,0(x13)
    88e4:	0046a683          	lw	x13,4(x13)
    88e8:	05d030ef          	jal	x1,c144 <__adddf3>
    88ec:	02012783          	lw	x15,32(x2)
    88f0:	fcc006b7          	lui	x13,0xfcc00
    88f4:	03812703          	lw	x14,56(x2)
    88f8:	00050913          	addi	x18,x10,0
    88fc:	00b68333          	add	x6,x13,x11
    8900:	360786e3          	beq	x15,x0,946c <__gdtoa+0x167c>
    8904:	02012783          	lw	x15,32(x2)
    8908:	05012e83          	lw	x29,80(x2)
    890c:	05c12f03          	lw	x30,92(x2)
    8910:	08012c23          	sw	x0,152(x2)
    8914:	02f12c23          	sw	x15,56(x2)
    8918:	03812783          	lw	x15,56(x2)
    891c:	0000ae17          	auipc	x28,0xa
    8920:	834e0e13          	addi	x28,x28,-1996 # 12150 <__mprec_tens>
    8924:	0be12c23          	sw	x30,184(x2)
    8928:	fff78693          	addi	x13,x15,-1
    892c:	05812783          	lw	x15,88(x2)
    8930:	00369693          	slli	x13,x13,0x3
    8934:	00de06b3          	add	x13,x28,x13
    8938:	0bd12023          	sw	x29,160(x2)
    893c:	0006a603          	lw	x12,0(x13) # fcc00000 <__heap_end+0xfc800000>
    8940:	00030493          	addi	x9,x6,0
    8944:	0046a683          	lw	x13,4(x13)
    8948:	5c0784e3          	beq	x15,x0,9710 <__gdtoa+0x1920>
    894c:	0000a597          	auipc	x11,0xa
    8950:	25c58593          	addi	x11,x11,604 # 12ba8 <__SDATA_BEGIN__+0x58>
    8954:	0005a503          	lw	x10,0(x11)
    8958:	0045a583          	lw	x11,4(x11)
    895c:	0ce12823          	sw	x14,208(x2)
    8960:	13c12823          	sw	x28,304(x2)
    8964:	0b8040ef          	jal	x1,ca1c <__divdf3>
    8968:	11212023          	sw	x18,256(x2)
    896c:	10912223          	sw	x9,260(x2)
    8970:	10412683          	lw	x13,260(x2)
    8974:	10012603          	lw	x12,256(x2)
    8978:	001d8c93          	addi	x25,x27,1
    897c:	1a4050ef          	jal	x1,db20 <__subdf3>
    8980:	0a012e83          	lw	x29,160(x2)
    8984:	0b812f03          	lw	x30,184(x2)
    8988:	00050613          	addi	x12,x10,0
    898c:	11d12423          	sw	x29,264(x2)
    8990:	11e12623          	sw	x30,268(x2)
    8994:	00058c13          	addi	x24,x11,0
    8998:	10812503          	lw	x10,264(x2)
    899c:	10c12583          	lw	x11,268(x2)
    89a0:	0dd12023          	sw	x29,192(x2)
    89a4:	0be12023          	sw	x30,160(x2)
    89a8:	0cc12423          	sw	x12,200(x2)
    89ac:	28d050ef          	jal	x1,e438 <__fixdfsi>
    89b0:	06a12023          	sw	x10,96(x2)
    89b4:	309050ef          	jal	x1,e4bc <__floatsidf>
    89b8:	0c012e83          	lw	x29,192(x2)
    89bc:	0a012f03          	lw	x30,160(x2)
    89c0:	00050613          	addi	x12,x10,0
    89c4:	11d12823          	sw	x29,272(x2)
    89c8:	11e12a23          	sw	x30,276(x2)
    89cc:	00058693          	addi	x13,x11,0
    89d0:	11012503          	lw	x10,272(x2)
    89d4:	11412583          	lw	x11,276(x2)
    89d8:	148050ef          	jal	x1,db20 <__subdf3>
    89dc:	0c812783          	lw	x15,200(x2)
    89e0:	06012f83          	lw	x31,96(x2)
    89e4:	10a12c23          	sw	x10,280(x2)
    89e8:	10b12e23          	sw	x11,284(x2)
    89ec:	12f12023          	sw	x15,288(x2)
    89f0:	13812223          	sw	x24,292(x2)
    89f4:	11812603          	lw	x12,280(x2)
    89f8:	11c12683          	lw	x13,284(x2)
    89fc:	00050493          	addi	x9,x10,0
    8a00:	00058913          	addi	x18,x11,0
    8a04:	12012503          	lw	x10,288(x2)
    8a08:	12412583          	lw	x11,292(x2)
    8a0c:	030f8f93          	addi	x31,x31,48
    8a10:	01fd8023          	sb	x31,0(x27)
    8a14:	025040ef          	jal	x1,d238 <__gedf2>
    8a18:	0d012703          	lw	x14,208(x2)
    8a1c:	00a05463          	bge	x0,x10,8a24 <__gdtoa+0xc34>
    8a20:	06c0106f          	jal	x0,9a8c <__gdtoa+0x1c9c>
    8a24:	0000a697          	auipc	x13,0xa
    8a28:	15c68693          	addi	x13,x13,348 # 12b80 <__SDATA_BEGIN__+0x30>
    8a2c:	0006a783          	lw	x15,0(x13)
    8a30:	0046a803          	lw	x16,4(x13)
    8a34:	00009e17          	auipc	x28,0x9
    8a38:	71ce0e13          	addi	x28,x28,1820 # 12150 <__mprec_tens>
    8a3c:	0a812c23          	sw	x8,184(x2)
    8a40:	06f12023          	sw	x15,96(x2)
    8a44:	0c812403          	lw	x8,200(x2)
    8a48:	07012223          	sw	x16,100(x2)
    8a4c:	0da12823          	sw	x26,208(x2)
    8a50:	0d712c23          	sw	x23,216(x2)
    8a54:	0f612c23          	sw	x22,248(x2)
    8a58:	0bb12023          	sw	x27,160(x2)
    8a5c:	11512023          	sw	x21,256(x2)
    8a60:	11412423          	sw	x20,264(x2)
    8a64:	0ce12023          	sw	x14,192(x2)
    8a68:	11312823          	sw	x19,272(x2)
    8a6c:	11c12c23          	sw	x28,280(x2)
    8a70:	0b40006f          	jal	x0,8b24 <__gdtoa+0xd34>
    8a74:	1bc12783          	lw	x15,444(x2)
    8a78:	03812703          	lw	x14,56(x2)
    8a7c:	00178793          	addi	x15,x15,1
    8a80:	1af12e23          	sw	x15,444(x2)
    8a84:	00e7c463          	blt	x15,x14,8a8c <__gdtoa+0xc9c>
    8a88:	0740106f          	jal	x0,9afc <__gdtoa+0x1d0c>
    8a8c:	0000a997          	auipc	x19,0xa
    8a90:	0fc98993          	addi	x19,x19,252 # 12b88 <__SDATA_BEGIN__+0x38>
    8a94:	0009a603          	lw	x12,0(x19)
    8a98:	0049a683          	lw	x13,4(x19)
    8a9c:	001c8c93          	addi	x25,x25,1
    8aa0:	1a1040ef          	jal	x1,d440 <__muldf3>
    8aa4:	06912823          	sw	x9,112(x2)
    8aa8:	07212a23          	sw	x18,116(x2)
    8aac:	0009a603          	lw	x12,0(x19)
    8ab0:	0049a683          	lw	x13,4(x19)
    8ab4:	00050413          	addi	x8,x10,0
    8ab8:	00058c13          	addi	x24,x11,0
    8abc:	07012503          	lw	x10,112(x2)
    8ac0:	07412583          	lw	x11,116(x2)
    8ac4:	17d040ef          	jal	x1,d440 <__muldf3>
    8ac8:	00058913          	addi	x18,x11,0
    8acc:	00050993          	addi	x19,x10,0
    8ad0:	169050ef          	jal	x1,e438 <__fixdfsi>
    8ad4:	00050493          	addi	x9,x10,0
    8ad8:	1e5050ef          	jal	x1,e4bc <__floatsidf>
    8adc:	07212e23          	sw	x18,124(x2)
    8ae0:	07312c23          	sw	x19,120(x2)
    8ae4:	00050613          	addi	x12,x10,0
    8ae8:	00058693          	addi	x13,x11,0
    8aec:	07812503          	lw	x10,120(x2)
    8af0:	07c12583          	lw	x11,124(x2)
    8af4:	02c050ef          	jal	x1,db20 <__subdf3>
    8af8:	08812023          	sw	x8,128(x2)
    8afc:	09812223          	sw	x24,132(x2)
    8b00:	08012603          	lw	x12,128(x2)
    8b04:	08412683          	lw	x13,132(x2)
    8b08:	03048793          	addi	x15,x9,48
    8b0c:	fefc8fa3          	sb	x15,-1(x25)
    8b10:	00050493          	addi	x9,x10,0
    8b14:	00058913          	addi	x18,x11,0
    8b18:	021040ef          	jal	x1,d338 <__ledf2>
    8b1c:	00055463          	bge	x10,x0,8b24 <__gdtoa+0xd34>
    8b20:	7610006f          	jal	x0,9a80 <__gdtoa+0x1c90>
    8b24:	06012503          	lw	x10,96(x2)
    8b28:	06412583          	lw	x11,100(x2)
    8b2c:	00048613          	addi	x12,x9,0
    8b30:	00090693          	addi	x13,x18,0
    8b34:	7ed040ef          	jal	x1,db20 <__subdf3>
    8b38:	00040613          	addi	x12,x8,0
    8b3c:	000c0693          	addi	x13,x24,0
    8b40:	7f8040ef          	jal	x1,d338 <__ledf2>
    8b44:	00050793          	addi	x15,x10,0
    8b48:	000c0593          	addi	x11,x24,0
    8b4c:	00040513          	addi	x10,x8,0
    8b50:	f207d2e3          	bge	x15,x0,8a74 <__gdtoa+0xc84>
    8b54:	09812783          	lw	x15,152(x2)
    8b58:	0a012d83          	lw	x27,160(x2)
    8b5c:	0b812403          	lw	x8,184(x2)
    8b60:	0c012703          	lw	x14,192(x2)
    8b64:	fffccc03          	lbu	x24,-1(x25)
    8b68:	00178493          	addi	x9,x15,1
    8b6c:	03900693          	addi	x13,x0,57
    8b70:	0100006f          	jal	x0,8b80 <__gdtoa+0xd90>
    8b74:	38fd88e3          	beq	x27,x15,9704 <__gdtoa+0x1914>
    8b78:	fff7cc03          	lbu	x24,-1(x15)
    8b7c:	00078c93          	addi	x25,x15,0
    8b80:	fffc8793          	addi	x15,x25,-1
    8b84:	fedc08e3          	beq	x24,x13,8b74 <__gdtoa+0xd84>
    8b88:	001c0693          	addi	x13,x24,1
    8b8c:	0ff6f693          	andi	x13,x13,255
    8b90:	00d78023          	sb	x13,0(x15)
    8b94:	00048d13          	addi	x26,x9,0
    8b98:	02000b13          	addi	x22,x0,32
    8b9c:	2380006f          	jal	x0,8dd4 <__gdtoa+0xfe4>
    8ba0:	1f812403          	lw	x8,504(x2)
    8ba4:	1ec12983          	lw	x19,492(x2)
    8ba8:	1e812a03          	lw	x20,488(x2)
    8bac:	1e412a83          	lw	x21,484(x2)
    8bb0:	1d012d03          	lw	x26,464(x2)
    8bb4:	af1ff06f          	jal	x0,86a4 <__gdtoa+0x8b4>
    8bb8:	00100693          	addi	x13,x0,1
    8bbc:	409687b3          	sub	x15,x13,x9
    8bc0:	02f12823          	sw	x15,48(x2)
    8bc4:	00012c23          	sw	x0,24(x2)
    8bc8:	bb5ff06f          	jal	x0,877c <__gdtoa+0x98c>
    8bcc:	04012483          	lw	x9,64(x2)
    8bd0:	03012903          	lw	x18,48(x2)
    8bd4:	00000c13          	addi	x24,x0,0
    8bd8:	f24ff06f          	jal	x0,82fc <__gdtoa+0x50c>
    8bdc:	00200793          	addi	x15,x0,2
    8be0:	02f12c23          	sw	x15,56(x2)
    8be4:	e64ff06f          	jal	x0,8248 <__gdtoa+0x458>
    8be8:	02812783          	lw	x15,40(x2)
    8bec:	06012423          	sw	x0,104(x2)
    8bf0:	fff78793          	addi	x15,x15,-1
    8bf4:	02f12423          	sw	x15,40(x2)
    8bf8:	b79ff06f          	jal	x0,8770 <__gdtoa+0x980>
    8bfc:	ffc98993          	addi	x19,x19,-4
    8c00:	00400693          	addi	x13,x0,4
    8c04:	26d98463          	beq	x19,x13,8e6c <__gdtoa+0x107c>
    8c08:	76c98063          	beq	x19,x12,9368 <__gdtoa+0x1578>
    8c0c:	00200693          	addi	x13,x0,2
    8c10:	04012c23          	sw	x0,88(x2)
    8c14:	00000493          	addi	x9,x0,0
    8c18:	26d98063          	beq	x19,x13,8e78 <__gdtoa+0x1088>
    8c1c:	00300993          	addi	x19,x0,3
    8c20:	dd0ff06f          	jal	x0,81f0 <__gdtoa+0x400>
    8c24:	00379693          	slli	x13,x15,0x3
    8c28:	00009797          	auipc	x15,0x9
    8c2c:	52878793          	addi	x15,x15,1320 # 12150 <__mprec_tens>
    8c30:	00d787b3          	add	x15,x15,x13
    8c34:	0047a803          	lw	x16,4(x15)
    8c38:	0007a783          	lw	x15,0(x15)
    8c3c:	01012623          	sw	x16,12(x2)
    8c40:	00f12423          	sw	x15,8(x2)
    8c44:	01412783          	lw	x15,20(x2)
    8c48:	5807c863          	blt	x15,x0,91d8 <__gdtoa+0x13e8>
    8c4c:	06012a83          	lw	x21,96(x2)
    8c50:	00812c83          	lw	x25,8(x2)
    8c54:	00c12d03          	lw	x26,12(x2)
    8c58:	09512423          	sw	x21,136(x2)
    8c5c:	09812623          	sw	x24,140(x2)
    8c60:	08812503          	lw	x10,136(x2)
    8c64:	08c12583          	lw	x11,140(x2)
    8c68:	00100793          	addi	x15,x0,1
    8c6c:	000c8613          	addi	x12,x25,0
    8c70:	000d0693          	addi	x13,x26,0
    8c74:	00e12a23          	sw	x14,20(x2)
    8c78:	1af12e23          	sw	x15,444(x2)
    8c7c:	5a1030ef          	jal	x1,ca1c <__divdf3>
    8c80:	7b8050ef          	jal	x1,e438 <__fixdfsi>
    8c84:	00050993          	addi	x19,x10,0
    8c88:	035050ef          	jal	x1,e4bc <__floatsidf>
    8c8c:	000c8613          	addi	x12,x25,0
    8c90:	000d0693          	addi	x13,x26,0
    8c94:	7ac040ef          	jal	x1,d440 <__muldf3>
    8c98:	09512823          	sw	x21,144(x2)
    8c9c:	09812a23          	sw	x24,148(x2)
    8ca0:	00050613          	addi	x12,x10,0
    8ca4:	00058693          	addi	x13,x11,0
    8ca8:	09012503          	lw	x10,144(x2)
    8cac:	09412583          	lw	x11,148(x2)
    8cb0:	001d8c93          	addi	x25,x27,1
    8cb4:	66d040ef          	jal	x1,db20 <__subdf3>
    8cb8:	04812703          	lw	x14,72(x2)
    8cbc:	03098793          	addi	x15,x19,48
    8cc0:	00fd8023          	sb	x15,0(x27)
    8cc4:	00000613          	addi	x12,x0,0
    8cc8:	00000693          	addi	x13,x0,0
    8ccc:	00170493          	addi	x9,x14,1
    8cd0:	00050a93          	addi	x21,x10,0
    8cd4:	00058a13          	addi	x20,x11,0
    8cd8:	4d4040ef          	jal	x1,d1ac <__eqdf2>
    8cdc:	01412703          	lw	x14,20(x2)
    8ce0:	00048d13          	addi	x26,x9,0
    8ce4:	0e050863          	beq	x10,x0,8dd4 <__gdtoa+0xfe4>
    8ce8:	000a0793          	addi	x15,x20,0
    8cec:	02012903          	lw	x18,32(x2)
    8cf0:	00912a23          	sw	x9,20(x2)
    8cf4:	00812c23          	sw	x8,24(x2)
    8cf8:	02912623          	sw	x9,44(x2)
    8cfc:	000a8a13          	addi	x20,x21,0
    8d00:	00812403          	lw	x8,8(x2)
    8d04:	00c12483          	lw	x9,12(x2)
    8d08:	0000ac17          	auipc	x24,0xa
    8d0c:	e80c0c13          	addi	x24,x24,-384 # 12b88 <__SDATA_BEGIN__+0x38>
    8d10:	03612823          	sw	x22,48(x2)
    8d14:	03b12423          	sw	x27,40(x2)
    8d18:	02e12023          	sw	x14,32(x2)
    8d1c:	00078a93          	addi	x21,x15,0
    8d20:	0780006f          	jal	x0,8d98 <__gdtoa+0xfa8>
    8d24:	000c2603          	lw	x12,0(x24)
    8d28:	004c2683          	lw	x13,4(x24)
    8d2c:	1a612e23          	sw	x6,444(x2)
    8d30:	001c8c93          	addi	x25,x25,1
    8d34:	70c040ef          	jal	x1,d440 <__muldf3>
    8d38:	00040613          	addi	x12,x8,0
    8d3c:	00048693          	addi	x13,x9,0
    8d40:	00050a93          	addi	x21,x10,0
    8d44:	00058a13          	addi	x20,x11,0
    8d48:	4d5030ef          	jal	x1,ca1c <__divdf3>
    8d4c:	6ec050ef          	jal	x1,e438 <__fixdfsi>
    8d50:	00050993          	addi	x19,x10,0
    8d54:	768050ef          	jal	x1,e4bc <__floatsidf>
    8d58:	00040613          	addi	x12,x8,0
    8d5c:	00048693          	addi	x13,x9,0
    8d60:	6e0040ef          	jal	x1,d440 <__muldf3>
    8d64:	00050613          	addi	x12,x10,0
    8d68:	00058693          	addi	x13,x11,0
    8d6c:	000a8513          	addi	x10,x21,0
    8d70:	000a0593          	addi	x11,x20,0
    8d74:	5ad040ef          	jal	x1,db20 <__subdf3>
    8d78:	03098693          	addi	x13,x19,48
    8d7c:	fedc8fa3          	sb	x13,-1(x25)
    8d80:	00000613          	addi	x12,x0,0
    8d84:	00000693          	addi	x13,x0,0
    8d88:	00050a13          	addi	x20,x10,0
    8d8c:	00058a93          	addi	x21,x11,0
    8d90:	41c040ef          	jal	x1,d1ac <__eqdf2>
    8d94:	42050663          	beq	x10,x0,91c0 <__gdtoa+0x13d0>
    8d98:	1bc12683          	lw	x13,444(x2)
    8d9c:	000a0513          	addi	x10,x20,0
    8da0:	000a8593          	addi	x11,x21,0
    8da4:	00168313          	addi	x6,x13,1
    8da8:	f7269ee3          	bne	x13,x18,8d24 <__gdtoa+0xf34>
    8dac:	03812683          	lw	x13,56(x2)
    8db0:	01412d03          	lw	x26,20(x2)
    8db4:	02812d83          	lw	x27,40(x2)
    8db8:	01812403          	lw	x8,24(x2)
    8dbc:	02012703          	lw	x14,32(x2)
    8dc0:	02c12483          	lw	x9,44(x2)
    8dc4:	7e068c63          	beq	x13,x0,95bc <__gdtoa+0x17cc>
    8dc8:	00100793          	addi	x15,x0,1
    8dcc:	01000b13          	addi	x22,x0,16
    8dd0:	34f68ce3          	beq	x13,x15,9928 <__gdtoa+0x1b38>
    8dd4:	01012583          	lw	x11,16(x2)
    8dd8:	00040513          	addi	x10,x8,0
    8ddc:	00e12423          	sw	x14,8(x2)
    8de0:	155010ef          	jal	x1,a734 <_Bfree>
    8de4:	00012783          	lw	x15,0(x2)
    8de8:	000c8023          	sb	x0,0(x25)
    8dec:	00812703          	lw	x14,8(x2)
    8df0:	01a7a023          	sw	x26,0(x15)
    8df4:	00412783          	lw	x15,4(x2)
    8df8:	00078463          	beq	x15,x0,8e00 <__gdtoa+0x1010>
    8dfc:	0197a023          	sw	x25,0(x15)
    8e00:	00072783          	lw	x15,0(x14)
    8e04:	1f812403          	lw	x8,504(x2)
    8e08:	1f412483          	lw	x9,500(x2)
    8e0c:	0167e7b3          	or	x15,x15,x22
    8e10:	1f012903          	lw	x18,496(x2)
    8e14:	1ec12983          	lw	x19,492(x2)
    8e18:	1e812a03          	lw	x20,488(x2)
    8e1c:	1e412a83          	lw	x21,484(x2)
    8e20:	1dc12b83          	lw	x23,476(x2)
    8e24:	1d812c03          	lw	x24,472(x2)
    8e28:	1d012d03          	lw	x26,464(x2)
    8e2c:	00f72023          	sw	x15,0(x14)
    8e30:	879ff06f          	jal	x0,86a8 <__gdtoa+0x8b8>
    8e34:	d6db9263          	bne	x23,x13,8398 <__gdtoa+0x5a8>
    8e38:	004aa783          	lw	x15,4(x21)
    8e3c:	00812683          	lw	x13,8(x2)
    8e40:	00178793          	addi	x15,x15,1
    8e44:	d4d7da63          	bge	x15,x13,8398 <__gdtoa+0x5a8>
    8e48:	03012783          	lw	x15,48(x2)
    8e4c:	00178793          	addi	x15,x15,1
    8e50:	02f12823          	sw	x15,48(x2)
    8e54:	01812783          	lw	x15,24(x2)
    8e58:	00178793          	addi	x15,x15,1
    8e5c:	00f12c23          	sw	x15,24(x2)
    8e60:	00100793          	addi	x15,x0,1
    8e64:	02f12423          	sw	x15,40(x2)
    8e68:	d30ff06f          	jal	x0,8398 <__gdtoa+0x5a8>
    8e6c:	00100793          	addi	x15,x0,1
    8e70:	00000493          	addi	x9,x0,0
    8e74:	04f12c23          	sw	x15,88(x2)
    8e78:	01412583          	lw	x11,20(x2)
    8e7c:	00b04463          	blt	x0,x11,8e84 <__gdtoa+0x1094>
    8e80:	00100593          	addi	x11,x0,1
    8e84:	00058693          	addi	x13,x11,0
    8e88:	06b12623          	sw	x11,108(x2)
    8e8c:	02b12023          	sw	x11,32(x2)
    8e90:	00b12a23          	sw	x11,20(x2)
    8e94:	b84ff06f          	jal	x0,8218 <__gdtoa+0x428>
    8e98:	0c1010ef          	jal	x1,a758 <__multadd>
    8e9c:	00050c13          	addi	x24,x10,0
    8ea0:	fe050063          	beq	x10,x0,8680 <__gdtoa+0x890>
    8ea4:	00050d93          	addi	x27,x10,0
    8ea8:	e1cff06f          	jal	x0,84c4 <__gdtoa+0x6d4>
    8eac:	da0ad463          	bge	x21,x0,8454 <__gdtoa+0x664>
    8eb0:	03812783          	lw	x15,56(x2)
    8eb4:	01912823          	sw	x25,16(x2)
    8eb8:	000b0813          	addi	x16,x22,0
    8ebc:	000d8e93          	addi	x29,x27,0
    8ec0:	00070b13          	addi	x22,x14,0
    8ec4:	00812d83          	lw	x27,8(x2)
    8ec8:	01412703          	lw	x14,20(x2)
    8ecc:	560796e3          	bne	x15,x0,9c38 <__gdtoa+0x1e48>
    8ed0:	01012783          	lw	x15,16(x2)
    8ed4:	00100693          	addi	x13,x0,1
    8ed8:	01000b13          	addi	x22,x0,16
    8edc:	0107a603          	lw	x12,16(x15)
    8ee0:	001b8993          	addi	x19,x23,1
    8ee4:	4ec6d8e3          	bge	x13,x12,9bd4 <__gdtoa+0x1de4>
    8ee8:	000c0a13          	addi	x20,x24,0
    8eec:	00098c93          	addi	x25,x19,0
    8ef0:	010b8023          	sb	x16,0(x23)
    8ef4:	000e8c13          	addi	x24,x29,0
    8ef8:	000d0593          	addi	x11,x26,0
    8efc:	00040513          	addi	x10,x8,0
    8f00:	00e12423          	sw	x14,8(x2)
    8f04:	031010ef          	jal	x1,a734 <_Bfree>
    8f08:	04812783          	lw	x15,72(x2)
    8f0c:	00812703          	lw	x14,8(x2)
    8f10:	00178d13          	addi	x26,x15,1
    8f14:	ec0c00e3          	beq	x24,x0,8dd4 <__gdtoa+0xfe4>
    8f18:	000a0c63          	beq	x20,x0,8f30 <__gdtoa+0x1140>
    8f1c:	018a0a63          	beq	x20,x24,8f30 <__gdtoa+0x1140>
    8f20:	000a0593          	addi	x11,x20,0
    8f24:	00040513          	addi	x10,x8,0
    8f28:	00d010ef          	jal	x1,a734 <_Bfree>
    8f2c:	00812703          	lw	x14,8(x2)
    8f30:	000c0593          	addi	x11,x24,0
    8f34:	00040513          	addi	x10,x8,0
    8f38:	00e12423          	sw	x14,8(x2)
    8f3c:	7f8010ef          	jal	x1,a734 <_Bfree>
    8f40:	00812703          	lw	x14,8(x2)
    8f44:	e91ff06f          	jal	x0,8dd4 <__gdtoa+0xfe4>
    8f48:	01012583          	lw	x11,16(x2)
    8f4c:	00040513          	addi	x10,x8,0
    8f50:	00e12423          	sw	x14,8(x2)
    8f54:	028020ef          	jal	x1,af7c <__lshift>
    8f58:	00a12823          	sw	x10,16(x2)
    8f5c:	f2050263          	beq	x10,x0,8680 <__gdtoa+0x890>
    8f60:	1bc12783          	lw	x15,444(x2)
    8f64:	00812703          	lw	x14,8(x2)
    8f68:	c58ff06f          	jal	x0,83c0 <__gdtoa+0x5d0>
    8f6c:	01012503          	lw	x10,16(x2)
    8f70:	000d0593          	addi	x11,x26,0
    8f74:	00e12423          	sw	x14,8(x2)
    8f78:	194020ef          	jal	x1,b10c <__mcmp>
    8f7c:	00812703          	lw	x14,8(x2)
    8f80:	c4055a63          	bge	x10,x0,83d4 <__gdtoa+0x5e4>
    8f84:	04812783          	lw	x15,72(x2)
    8f88:	01012583          	lw	x11,16(x2)
    8f8c:	00000693          	addi	x13,x0,0
    8f90:	fff78793          	addi	x15,x15,-1
    8f94:	00a00613          	addi	x12,x0,10
    8f98:	00040513          	addi	x10,x8,0
    8f9c:	04f12423          	sw	x15,72(x2)
    8fa0:	7b8010ef          	jal	x1,a758 <__multadd>
    8fa4:	00a12823          	sw	x10,16(x2)
    8fa8:	ec050c63          	beq	x10,x0,8680 <__gdtoa+0x890>
    8fac:	05812783          	lw	x15,88(x2)
    8fb0:	00812703          	lw	x14,8(x2)
    8fb4:	26079ce3          	bne	x15,x0,9a2c <__gdtoa+0x1c3c>
    8fb8:	06c12783          	lw	x15,108(x2)
    8fbc:	1ef05863          	bge	x0,x15,91ac <__gdtoa+0x13bc>
    8fc0:	02f12023          	sw	x15,32(x2)
    8fc4:	02012903          	lw	x18,32(x2)
    8fc8:	01012483          	lw	x9,16(x2)
    8fcc:	000d8b93          	addi	x23,x27,0
    8fd0:	00100693          	addi	x13,x0,1
    8fd4:	00070993          	addi	x19,x14,0
    8fd8:	0180006f          	jal	x0,8ff0 <__gdtoa+0x1200>
    8fdc:	77c010ef          	jal	x1,a758 <__multadd>
    8fe0:	00050493          	addi	x9,x10,0
    8fe4:	e8050e63          	beq	x10,x0,8680 <__gdtoa+0x890>
    8fe8:	1bc12683          	lw	x13,444(x2)
    8fec:	00168693          	addi	x13,x13,1
    8ff0:	000d0593          	addi	x11,x26,0
    8ff4:	00048513          	addi	x10,x9,0
    8ff8:	1ad12e23          	sw	x13,444(x2)
    8ffc:	619000ef          	jal	x1,9e14 <__quorem_D2A>
    9000:	03050813          	addi	x16,x10,48
    9004:	010b8023          	sb	x16,0(x23)
    9008:	1bc12783          	lw	x15,444(x2)
    900c:	00000693          	addi	x13,x0,0
    9010:	00a00613          	addi	x12,x0,10
    9014:	00048593          	addi	x11,x9,0
    9018:	00040513          	addi	x10,x8,0
    901c:	001b8b93          	addi	x23,x23,1
    9020:	fb27cee3          	blt	x15,x18,8fdc <__gdtoa+0x11ec>
    9024:	00912823          	sw	x9,16(x2)
    9028:	00098713          	addi	x14,x19,0
    902c:	00000a13          	addi	x20,x0,0
    9030:	03812783          	lw	x15,56(x2)
    9034:	50078863          	beq	x15,x0,9544 <__gdtoa+0x1754>
    9038:	01012583          	lw	x11,16(x2)
    903c:	00200693          	addi	x13,x0,2
    9040:	0105a603          	lw	x12,16(x11)
    9044:	54d78063          	beq	x15,x13,9584 <__gdtoa+0x1794>
    9048:	00100693          	addi	x13,x0,1
    904c:	2cc6c663          	blt	x13,x12,9318 <__gdtoa+0x1528>
    9050:	0145a683          	lw	x13,20(x11)
    9054:	2c069263          	bne	x13,x0,9318 <__gdtoa+0x1528>
    9058:	00d036b3          	sltu	x13,x0,x13
    905c:	00469b13          	slli	x22,x13,0x4
    9060:	03000613          	addi	x12,x0,48
    9064:	fffbc783          	lbu	x15,-1(x23)
    9068:	000b8c93          	addi	x25,x23,0
    906c:	fffb8b93          	addi	x23,x23,-1
    9070:	fec78ae3          	beq	x15,x12,9064 <__gdtoa+0x1274>
    9074:	e85ff06f          	jal	x0,8ef8 <__gdtoa+0x1108>
    9078:	02012783          	lw	x15,32(x2)
    907c:	04012603          	lw	x12,64(x2)
    9080:	fff78693          	addi	x13,x15,-1
    9084:	1ad64a63          	blt	x12,x13,9238 <__gdtoa+0x1448>
    9088:	40d604b3          	sub	x9,x12,x13
    908c:	1607dee3          	bge	x15,x0,9a08 <__gdtoa+0x1c18>
    9090:	03012783          	lw	x15,48(x2)
    9094:	02012683          	lw	x13,32(x2)
    9098:	1a012e23          	sw	x0,444(x2)
    909c:	40d78933          	sub	x18,x15,x13
    90a0:	a40ff06f          	jal	x0,82e0 <__gdtoa+0x4f0>
    90a4:	00200793          	addi	x15,x0,2
    90a8:	b337da63          	bge	x15,x19,83dc <__gdtoa+0x5ec>
    90ac:	000d0593          	addi	x11,x26,0
    90b0:	00000693          	addi	x13,x0,0
    90b4:	00500613          	addi	x12,x0,5
    90b8:	00040513          	addi	x10,x8,0
    90bc:	00e12423          	sw	x14,8(x2)
    90c0:	698010ef          	jal	x1,a758 <__multadd>
    90c4:	00050593          	addi	x11,x10,0
    90c8:	da050c63          	beq	x10,x0,8680 <__gdtoa+0x890>
    90cc:	02012783          	lw	x15,32(x2)
    90d0:	00812703          	lw	x14,8(x2)
    90d4:	1a079863          	bne	x15,x0,9284 <__gdtoa+0x1494>
    90d8:	00a12423          	sw	x10,8(x2)
    90dc:	01012503          	lw	x10,16(x2)
    90e0:	02e12423          	sw	x14,40(x2)
    90e4:	028020ef          	jal	x1,b10c <__mcmp>
    90e8:	00812583          	lw	x11,8(x2)
    90ec:	02812703          	lw	x14,40(x2)
    90f0:	18a05a63          	bge	x0,x10,9284 <__gdtoa+0x1494>
    90f4:	04812783          	lw	x15,72(x2)
    90f8:	00278d13          	addi	x26,x15,2
    90fc:	03100793          	addi	x15,x0,49
    9100:	001d8c93          	addi	x25,x27,1
    9104:	00fd8023          	sb	x15,0(x27)
    9108:	02000b13          	addi	x22,x0,32
    910c:	00040513          	addi	x10,x8,0
    9110:	00e12423          	sw	x14,8(x2)
    9114:	620010ef          	jal	x1,a734 <_Bfree>
    9118:	00812703          	lw	x14,8(x2)
    911c:	ca0c0ce3          	beq	x24,x0,8dd4 <__gdtoa+0xfe4>
    9120:	e11ff06f          	jal	x0,8f30 <__gdtoa+0x1140>
    9124:	00100693          	addi	x13,x0,1
    9128:	00100593          	addi	x11,x0,1
    912c:	8ecff06f          	jal	x0,8218 <__gdtoa+0x428>
    9130:	00050593          	addi	x11,x10,0
    9134:	00078613          	addi	x12,x15,0
    9138:	00040513          	addi	x10,x8,0
    913c:	4f1010ef          	jal	x1,ae2c <__pow5mult>
    9140:	00050d13          	addi	x26,x10,0
    9144:	d2050e63          	beq	x10,x0,8680 <__gdtoa+0x890>
    9148:	00100693          	addi	x13,x0,1
    914c:	02c12703          	lw	x14,44(x2)
    9150:	2536d463          	bge	x13,x19,9398 <__gdtoa+0x15a8>
    9154:	010d2783          	lw	x15,16(x26)
    9158:	00e12423          	sw	x14,8(x2)
    915c:	00378793          	addi	x15,x15,3
    9160:	00279793          	slli	x15,x15,0x2
    9164:	00fd07b3          	add	x15,x26,x15
    9168:	0047a503          	lw	x10,4(x15)
    916c:	071010ef          	jal	x1,a9dc <__hi0bits>
    9170:	00812703          	lw	x14,8(x2)
    9174:	00050a93          	addi	x21,x10,0
    9178:	03612423          	sw	x22,40(x2)
    917c:	a20ff06f          	jal	x0,839c <__gdtoa+0x5ac>
    9180:	00100693          	addi	x13,x0,1
    9184:	ef36cae3          	blt	x13,x19,9078 <__gdtoa+0x1288>
    9188:	03012783          	lw	x15,48(x2)
    918c:	01812683          	lw	x13,24(x2)
    9190:	04012483          	lw	x9,64(x2)
    9194:	00078913          	addi	x18,x15,0
    9198:	00c686b3          	add	x13,x13,x12
    919c:	00f607b3          	add	x15,x12,x15
    91a0:	00d12c23          	sw	x13,24(x2)
    91a4:	02f12823          	sw	x15,48(x2)
    91a8:	938ff06f          	jal	x0,82e0 <__gdtoa+0x4f0>
    91ac:	00200793          	addi	x15,x0,2
    91b0:	2137cce3          	blt	x15,x19,9bc8 <__gdtoa+0x1dd8>
    91b4:	06c12783          	lw	x15,108(x2)
    91b8:	02f12023          	sw	x15,32(x2)
    91bc:	e09ff06f          	jal	x0,8fc4 <__gdtoa+0x11d4>
    91c0:	03012b03          	lw	x22,48(x2)
    91c4:	01412d03          	lw	x26,20(x2)
    91c8:	02812d83          	lw	x27,40(x2)
    91cc:	01812403          	lw	x8,24(x2)
    91d0:	02012703          	lw	x14,32(x2)
    91d4:	c01ff06f          	jal	x0,8dd4 <__gdtoa+0xfe4>
    91d8:	02012783          	lw	x15,32(x2)
    91dc:	a6f048e3          	blt	x0,x15,8c4c <__gdtoa+0xe5c>
    91e0:	08079e63          	bne	x15,x0,927c <__gdtoa+0x148c>
    91e4:	0000a797          	auipc	x15,0xa
    91e8:	9bc78793          	addi	x15,x15,-1604 # 12ba0 <__SDATA_BEGIN__+0x50>
    91ec:	0007a603          	lw	x12,0(x15)
    91f0:	0047a683          	lw	x13,4(x15)
    91f4:	00812503          	lw	x10,8(x2)
    91f8:	00c12583          	lw	x11,12(x2)
    91fc:	02e12423          	sw	x14,40(x2)
    9200:	240040ef          	jal	x1,d440 <__muldf3>
    9204:	06012683          	lw	x13,96(x2)
    9208:	17812223          	sw	x24,356(x2)
    920c:	16d12023          	sw	x13,352(x2)
    9210:	16012603          	lw	x12,352(x2)
    9214:	16412683          	lw	x13,356(x2)
    9218:	020040ef          	jal	x1,d238 <__gedf2>
    921c:	02812703          	lw	x14,40(x2)
    9220:	04055e63          	bge	x10,x0,927c <__gdtoa+0x148c>
    9224:	04812783          	lw	x15,72(x2)
    9228:	00000593          	addi	x11,x0,0
    922c:	00000c13          	addi	x24,x0,0
    9230:	00278d13          	addi	x26,x15,2
    9234:	ec9ff06f          	jal	x0,90fc <__gdtoa+0x130c>
    9238:	04012783          	lw	x15,64(x2)
    923c:	03012503          	lw	x10,48(x2)
    9240:	01812583          	lw	x11,24(x2)
    9244:	40f68633          	sub	x12,x13,x15
    9248:	02812783          	lw	x15,40(x2)
    924c:	00050913          	addi	x18,x10,0
    9250:	00000493          	addi	x9,x0,0
    9254:	00c787b3          	add	x15,x15,x12
    9258:	02f12423          	sw	x15,40(x2)
    925c:	02012783          	lw	x15,32(x2)
    9260:	04d12023          	sw	x13,64(x2)
    9264:	00f585b3          	add	x11,x11,x15
    9268:	1af12e23          	sw	x15,444(x2)
    926c:	00f507b3          	add	x15,x10,x15
    9270:	00b12c23          	sw	x11,24(x2)
    9274:	02f12823          	sw	x15,48(x2)
    9278:	868ff06f          	jal	x0,82e0 <__gdtoa+0x4f0>
    927c:	00000593          	addi	x11,x0,0
    9280:	00000c13          	addi	x24,x0,0
    9284:	01412783          	lw	x15,20(x2)
    9288:	000d8c93          	addi	x25,x27,0
    928c:	01000b13          	addi	x22,x0,16
    9290:	40f00d33          	sub	x26,x0,x15
    9294:	e79ff06f          	jal	x0,910c <__gdtoa+0x131c>
    9298:	000c0593          	addi	x11,x24,0
    929c:	00048613          	addi	x12,x9,0
    92a0:	00040513          	addi	x10,x8,0
    92a4:	02e12623          	sw	x14,44(x2)
    92a8:	385010ef          	jal	x1,ae2c <__pow5mult>
    92ac:	00050c13          	addi	x24,x10,0
    92b0:	bc050863          	beq	x10,x0,8680 <__gdtoa+0x890>
    92b4:	01012d03          	lw	x26,16(x2)
    92b8:	00050593          	addi	x11,x10,0
    92bc:	00040513          	addi	x10,x8,0
    92c0:	000d0613          	addi	x12,x26,0
    92c4:	121010ef          	jal	x1,abe4 <__multiply>
    92c8:	00050c93          	addi	x25,x10,0
    92cc:	ba050a63          	beq	x10,x0,8680 <__gdtoa+0x890>
    92d0:	000d0593          	addi	x11,x26,0
    92d4:	00040513          	addi	x10,x8,0
    92d8:	45c010ef          	jal	x1,a734 <_Bfree>
    92dc:	04012783          	lw	x15,64(x2)
    92e0:	01912823          	sw	x25,16(x2)
    92e4:	02c12703          	lw	x14,44(x2)
    92e8:	409787b3          	sub	x15,x15,x9
    92ec:	04f12023          	sw	x15,64(x2)
    92f0:	00079463          	bne	x15,x0,92f8 <__gdtoa+0x1508>
    92f4:	878ff06f          	jal	x0,836c <__gdtoa+0x57c>
    92f8:	854ff06f          	jal	x0,834c <__gdtoa+0x55c>
    92fc:	000c0a13          	addi	x20,x24,0
    9300:	000b8693          	addi	x13,x23,0
    9304:	001b8993          	addi	x19,x23,1
    9308:	000e8c13          	addi	x24,x29,0
    930c:	03900613          	addi	x12,x0,57
    9310:	00098b93          	addi	x23,x19,0
    9314:	00c68023          	sb	x12,0(x13)
    9318:	03900613          	addi	x12,x0,57
    931c:	0080006f          	jal	x0,9324 <__gdtoa+0x1534>
    9320:	297d8063          	beq	x27,x23,95a0 <__gdtoa+0x17b0>
    9324:	fffbc683          	lbu	x13,-1(x23)
    9328:	000b8c93          	addi	x25,x23,0
    932c:	fffb8b93          	addi	x23,x23,-1
    9330:	fec688e3          	beq	x13,x12,9320 <__gdtoa+0x1530>
    9334:	00168693          	addi	x13,x13,1
    9338:	00db8023          	sb	x13,0(x23)
    933c:	02000b13          	addi	x22,x0,32
    9340:	bb9ff06f          	jal	x0,8ef8 <__gdtoa+0x1108>
    9344:	000c0593          	addi	x11,x24,0
    9348:	00040513          	addi	x10,x8,0
    934c:	00e12423          	sw	x14,8(x2)
    9350:	42d010ef          	jal	x1,af7c <__lshift>
    9354:	00812703          	lw	x14,8(x2)
    9358:	00050c13          	addi	x24,x10,0
    935c:	00050463          	beq	x10,x0,9364 <__gdtoa+0x1574>
    9360:	890ff06f          	jal	x0,83f0 <__gdtoa+0x600>
    9364:	b1cff06f          	jal	x0,8680 <__gdtoa+0x890>
    9368:	00100793          	addi	x15,x0,1
    936c:	00000493          	addi	x9,x0,0
    9370:	04f12c23          	sw	x15,88(x2)
    9374:	e7dfe06f          	jal	x0,81f0 <__gdtoa+0x400>
    9378:	00100793          	addi	x15,x0,1
    937c:	04f12c23          	sw	x15,88(x2)
    9380:	e71fe06f          	jal	x0,81f0 <__gdtoa+0x400>
    9384:	00100793          	addi	x15,x0,1
    9388:	04f12c23          	sw	x15,88(x2)
    938c:	aedff06f          	jal	x0,8e78 <__gdtoa+0x1088>
    9390:	04012c23          	sw	x0,88(x2)
    9394:	ae5ff06f          	jal	x0,8e78 <__gdtoa+0x1088>
    9398:	dadb9ee3          	bne	x23,x13,9154 <__gdtoa+0x1364>
    939c:	004aa783          	lw	x15,4(x21)
    93a0:	00812683          	lw	x13,8(x2)
    93a4:	00178793          	addi	x15,x15,1
    93a8:	dad7d6e3          	bge	x15,x13,9154 <__gdtoa+0x1364>
    93ac:	03012783          	lw	x15,48(x2)
    93b0:	00100b13          	addi	x22,x0,1
    93b4:	00178793          	addi	x15,x15,1
    93b8:	02f12823          	sw	x15,48(x2)
    93bc:	01812783          	lw	x15,24(x2)
    93c0:	00178793          	addi	x15,x15,1
    93c4:	00f12c23          	sw	x15,24(x2)
    93c8:	d8dff06f          	jal	x0,9154 <__gdtoa+0x1364>
    93cc:	004c2583          	lw	x11,4(x24)
    93d0:	00040513          	addi	x10,x8,0
    93d4:	00e12423          	sw	x14,8(x2)
    93d8:	2a8010ef          	jal	x1,a680 <_Balloc>
    93dc:	00050a93          	addi	x21,x10,0
    93e0:	aa050063          	beq	x10,x0,8680 <__gdtoa+0x890>
    93e4:	010c2603          	lw	x12,16(x24)
    93e8:	00cc0593          	addi	x11,x24,12
    93ec:	00c50513          	addi	x10,x10,12
    93f0:	00260613          	addi	x12,x12,2
    93f4:	00261613          	slli	x12,x12,0x2
    93f8:	8c0fd0ef          	jal	x1,64b8 <memcpy>
    93fc:	00100613          	addi	x12,x0,1
    9400:	000a8593          	addi	x11,x21,0
    9404:	00040513          	addi	x10,x8,0
    9408:	375010ef          	jal	x1,af7c <__lshift>
    940c:	00812703          	lw	x14,8(x2)
    9410:	00050e93          	addi	x29,x10,0
    9414:	00050463          	beq	x10,x0,941c <__gdtoa+0x162c>
    9418:	fe9fe06f          	jal	x0,8400 <__gdtoa+0x610>
    941c:	a64ff06f          	jal	x0,8680 <__gdtoa+0x890>
    9420:	17212823          	sw	x18,368(x2)
    9424:	17212c23          	sw	x18,376(x2)
    9428:	17812a23          	sw	x24,372(x2)
    942c:	17812e23          	sw	x24,380(x2)
    9430:	17012603          	lw	x12,368(x2)
    9434:	17412683          	lw	x13,372(x2)
    9438:	17812503          	lw	x10,376(x2)
    943c:	17c12583          	lw	x11,380(x2)
    9440:	02e12c23          	sw	x14,56(x2)
    9444:	501020ef          	jal	x1,c144 <__adddf3>
    9448:	00009697          	auipc	x13,0x9
    944c:	75068693          	addi	x13,x13,1872 # 12b98 <__SDATA_BEGIN__+0x48>
    9450:	0006a603          	lw	x12,0(x13)
    9454:	0046a683          	lw	x13,4(x13)
    9458:	4ed020ef          	jal	x1,c144 <__adddf3>
    945c:	03812703          	lw	x14,56(x2)
    9460:	fcc006b7          	lui	x13,0xfcc00
    9464:	00050913          	addi	x18,x10,0
    9468:	00b68333          	add	x6,x13,x11
    946c:	05012783          	lw	x15,80(x2)
    9470:	00009697          	auipc	x13,0x9
    9474:	73068693          	addi	x13,x13,1840 # 12ba0 <__SDATA_BEGIN__+0x50>
    9478:	0006a603          	lw	x12,0(x13)
    947c:	0cf12023          	sw	x15,192(x2)
    9480:	05c12783          	lw	x15,92(x2)
    9484:	0046a683          	lw	x13,4(x13)
    9488:	0c012503          	lw	x10,192(x2)
    948c:	0cf12223          	sw	x15,196(x2)
    9490:	0c412583          	lw	x11,196(x2)
    9494:	02e12c23          	sw	x14,56(x2)
    9498:	06612023          	sw	x6,96(x2)
    949c:	684040ef          	jal	x1,db20 <__subdf3>
    94a0:	06012303          	lw	x6,96(x2)
    94a4:	0d212423          	sw	x18,200(x2)
    94a8:	0c812603          	lw	x12,200(x2)
    94ac:	0c612623          	sw	x6,204(x2)
    94b0:	0cc12683          	lw	x13,204(x2)
    94b4:	00050c13          	addi	x24,x10,0
    94b8:	00058493          	addi	x9,x11,0
    94bc:	57d030ef          	jal	x1,d238 <__gedf2>
    94c0:	03812703          	lw	x14,56(x2)
    94c4:	50a04063          	blt	x0,x10,99c4 <__gdtoa+0x1bd4>
    94c8:	06012303          	lw	x6,96(x2)
    94cc:	800006b7          	lui	x13,0x80000
    94d0:	0d212823          	sw	x18,208(x2)
    94d4:	0066c6b3          	xor	x13,x13,x6
    94d8:	0d812c23          	sw	x24,216(x2)
    94dc:	0cd12a23          	sw	x13,212(x2)
    94e0:	0c912e23          	sw	x9,220(x2)
    94e4:	0d012603          	lw	x12,208(x2)
    94e8:	0d412683          	lw	x13,212(x2)
    94ec:	0d812503          	lw	x10,216(x2)
    94f0:	0dc12583          	lw	x11,220(x2)
    94f4:	645030ef          	jal	x1,d338 <__ledf2>
    94f8:	03812703          	lw	x14,56(x2)
    94fc:	d80540e3          	blt	x10,x0,927c <__gdtoa+0x148c>
    9500:	05012783          	lw	x15,80(x2)
    9504:	05c12c03          	lw	x24,92(x2)
    9508:	00009e17          	auipc	x28,0x9
    950c:	c48e0e13          	addi	x28,x28,-952 # 12150 <__mprec_tens>
    9510:	06f12023          	sw	x15,96(x2)
    9514:	02c12783          	lw	x15,44(x2)
    9518:	6207c463          	blt	x15,x0,9b40 <__gdtoa+0x1d50>
    951c:	000e2783          	lw	x15,0(x28)
    9520:	004e2803          	lw	x16,4(x28)
    9524:	02012c23          	sw	x0,56(x2)
    9528:	00f12423          	sw	x15,8(x2)
    952c:	01412783          	lw	x15,20(x2)
    9530:	01012623          	sw	x16,12(x2)
    9534:	f007dc63          	bge	x15,x0,8c4c <__gdtoa+0xe5c>
    9538:	02012783          	lw	x15,32(x2)
    953c:	f0079863          	bne	x15,x0,8c4c <__gdtoa+0xe5c>
    9540:	ca5ff06f          	jal	x0,91e4 <__gdtoa+0x13f4>
    9544:	01012583          	lw	x11,16(x2)
    9548:	00100613          	addi	x12,x0,1
    954c:	00040513          	addi	x10,x8,0
    9550:	00e12423          	sw	x14,8(x2)
    9554:	01012a23          	sw	x16,20(x2)
    9558:	225010ef          	jal	x1,af7c <__lshift>
    955c:	00a12823          	sw	x10,16(x2)
    9560:	92050063          	beq	x10,x0,8680 <__gdtoa+0x890>
    9564:	000d0593          	addi	x11,x26,0
    9568:	3a5010ef          	jal	x1,b10c <__mcmp>
    956c:	00812703          	lw	x14,8(x2)
    9570:	daa044e3          	blt	x0,x10,9318 <__gdtoa+0x1528>
    9574:	00051863          	bne	x10,x0,9584 <__gdtoa+0x1794>
    9578:	01412803          	lw	x16,20(x2)
    957c:	00187813          	andi	x16,x16,1
    9580:	d8081ce3          	bne	x16,x0,9318 <__gdtoa+0x1528>
    9584:	01012783          	lw	x15,16(x2)
    9588:	00100693          	addi	x13,x0,1
    958c:	01000b13          	addi	x22,x0,16
    9590:	0107a603          	lw	x12,16(x15)
    9594:	acc6c6e3          	blt	x13,x12,9060 <__gdtoa+0x1270>
    9598:	0147a683          	lw	x13,20(x15)
    959c:	abdff06f          	jal	x0,9058 <__gdtoa+0x1268>
    95a0:	04812783          	lw	x15,72(x2)
    95a4:	02000b13          	addi	x22,x0,32
    95a8:	00178793          	addi	x15,x15,1
    95ac:	04f12423          	sw	x15,72(x2)
    95b0:	03100793          	addi	x15,x0,49
    95b4:	00fd8023          	sb	x15,0(x27)
    95b8:	941ff06f          	jal	x0,8ef8 <__gdtoa+0x1108>
    95bc:	0f412023          	sw	x20,224(x2)
    95c0:	0f412423          	sw	x20,232(x2)
    95c4:	0f512223          	sw	x21,228(x2)
    95c8:	0f512623          	sw	x21,236(x2)
    95cc:	0e012603          	lw	x12,224(x2)
    95d0:	0e412683          	lw	x13,228(x2)
    95d4:	0e812503          	lw	x10,232(x2)
    95d8:	0ec12583          	lw	x11,236(x2)
    95dc:	00e12a23          	sw	x14,20(x2)
    95e0:	365020ef          	jal	x1,c144 <__adddf3>
    95e4:	0ea12823          	sw	x10,240(x2)
    95e8:	0eb12a23          	sw	x11,244(x2)
    95ec:	00812b03          	lw	x22,8(x2)
    95f0:	00c12b83          	lw	x23,12(x2)
    95f4:	0f012603          	lw	x12,240(x2)
    95f8:	0f412683          	lw	x13,244(x2)
    95fc:	00050a93          	addi	x21,x10,0
    9600:	00058a13          	addi	x20,x11,0
    9604:	000b0513          	addi	x10,x22,0
    9608:	000b8593          	addi	x11,x23,0
    960c:	52d030ef          	jal	x1,d338 <__ledf2>
    9610:	fffccc03          	lbu	x24,-1(x25)
    9614:	01412703          	lw	x14,20(x2)
    9618:	d4054a63          	blt	x10,x0,8b6c <__gdtoa+0xd7c>
    961c:	17512423          	sw	x21,360(x2)
    9620:	17412623          	sw	x20,364(x2)
    9624:	16812603          	lw	x12,360(x2)
    9628:	16c12683          	lw	x13,364(x2)
    962c:	000b0513          	addi	x10,x22,0
    9630:	000b8593          	addi	x11,x23,0
    9634:	00e12423          	sw	x14,8(x2)
    9638:	375030ef          	jal	x1,d1ac <__eqdf2>
    963c:	00812703          	lw	x14,8(x2)
    9640:	00051663          	bne	x10,x0,964c <__gdtoa+0x185c>
    9644:	0019f993          	andi	x19,x19,1
    9648:	d2099263          	bne	x19,x0,8b6c <__gdtoa+0xd7c>
    964c:	000c8793          	addi	x15,x25,0
    9650:	01000b13          	addi	x22,x0,16
    9654:	03000613          	addi	x12,x0,48
    9658:	fff7c683          	lbu	x13,-1(x15)
    965c:	00078c93          	addi	x25,x15,0
    9660:	fff78793          	addi	x15,x15,-1
    9664:	fec68ae3          	beq	x13,x12,9658 <__gdtoa+0x1868>
    9668:	00048d13          	addi	x26,x9,0
    966c:	f68ff06f          	jal	x0,8dd4 <__gdtoa+0xfe4>
    9670:	03812783          	lw	x15,56(x2)
    9674:	01912823          	sw	x25,16(x2)
    9678:	000d8e93          	addi	x29,x27,0
    967c:	01412703          	lw	x14,20(x2)
    9680:	00812d83          	lw	x27,8(x2)
    9684:	000b0813          	addi	x16,x22,0
    9688:	02078263          	beq	x15,x0,96ac <__gdtoa+0x18bc>
    968c:	01012783          	lw	x15,16(x2)
    9690:	00100693          	addi	x13,x0,1
    9694:	0107a603          	lw	x12,16(x15)
    9698:	00c6d463          	bge	x13,x12,96a0 <__gdtoa+0x18b0>
    969c:	ef1fe06f          	jal	x0,858c <__gdtoa+0x79c>
    96a0:	0147a683          	lw	x13,20(x15)
    96a4:	00068463          	beq	x13,x0,96ac <__gdtoa+0x18bc>
    96a8:	ee5fe06f          	jal	x0,858c <__gdtoa+0x79c>
    96ac:	01012583          	lw	x11,16(x2)
    96b0:	00100613          	addi	x12,x0,1
    96b4:	00040513          	addi	x10,x8,0
    96b8:	02e12423          	sw	x14,40(x2)
    96bc:	01d12a23          	sw	x29,20(x2)
    96c0:	01012423          	sw	x16,8(x2)
    96c4:	0b9010ef          	jal	x1,af7c <__lshift>
    96c8:	00a12823          	sw	x10,16(x2)
    96cc:	00051463          	bne	x10,x0,96d4 <__gdtoa+0x18e4>
    96d0:	fb1fe06f          	jal	x0,8680 <__gdtoa+0x890>
    96d4:	000d0593          	addi	x11,x26,0
    96d8:	235010ef          	jal	x1,b10c <__mcmp>
    96dc:	00812803          	lw	x16,8(x2)
    96e0:	01412e83          	lw	x29,20(x2)
    96e4:	02812703          	lw	x14,40(x2)
    96e8:	4ea05e63          	bge	x0,x10,9be4 <__gdtoa+0x1df4>
    96ec:	03900693          	addi	x13,x0,57
    96f0:	c0d806e3          	beq	x16,x13,92fc <__gdtoa+0x150c>
    96f4:	02000793          	addi	x15,x0,32
    96f8:	03190813          	addi	x16,x18,49
    96fc:	02f12c23          	sw	x15,56(x2)
    9700:	fd0ff06f          	jal	x0,8ed0 <__gdtoa+0x10e0>
    9704:	03100693          	addi	x13,x0,49
    9708:	00148493          	addi	x9,x9,1
    970c:	c84ff06f          	jal	x0,8b90 <__gdtoa+0xda0>
    9710:	13212823          	sw	x18,304(x2)
    9714:	12612a23          	sw	x6,308(x2)
    9718:	13012503          	lw	x10,304(x2)
    971c:	13412583          	lw	x11,308(x2)
    9720:	11c12423          	sw	x28,264(x2)
    9724:	0ee12c23          	sw	x14,248(x2)
    9728:	519030ef          	jal	x1,d440 <__muldf3>
    972c:	06012603          	lw	x12,96(x2)
    9730:	000c0693          	addi	x13,x24,0
    9734:	08b12023          	sw	x11,128(x2)
    9738:	00060d13          	addi	x26,x12,0
    973c:	00100593          	addi	x11,x0,1
    9740:	00000613          	addi	x12,x0,0
    9744:	07812823          	sw	x24,112(x2)
    9748:	000d8c93          	addi	x25,x27,0
    974c:	0db12023          	sw	x27,192(x2)
    9750:	0c812423          	sw	x8,200(x2)
    9754:	000d0c13          	addi	x24,x26,0
    9758:	03812d83          	lw	x27,56(x2)
    975c:	06a12c23          	sw	x10,120(x2)
    9760:	1ab12e23          	sw	x11,444(x2)
    9764:	00009497          	auipc	x9,0x9
    9768:	42448493          	addi	x9,x9,1060 # 12b88 <__SDATA_BEGIN__+0x38>
    976c:	0b712023          	sw	x23,160(x2)
    9770:	0b612c23          	sw	x22,184(x2)
    9774:	00060413          	addi	x8,x12,0
    9778:	0d512823          	sw	x21,208(x2)
    977c:	0d412c23          	sw	x20,216(x2)
    9780:	11312023          	sw	x19,256(x2)
    9784:	00068d13          	addi	x26,x13,0 # 80000000 <__heap_end+0x7fc00000>
    9788:	0200006f          	jal	x0,97a8 <__gdtoa+0x19b8>
    978c:	0004a603          	lw	x12,0(x9)
    9790:	0044a683          	lw	x13,4(x9)
    9794:	1b112e23          	sw	x17,444(x2)
    9798:	00100413          	addi	x8,x0,1
    979c:	4a5030ef          	jal	x1,d440 <__muldf3>
    97a0:	00050c13          	addi	x24,x10,0
    97a4:	00058d13          	addi	x26,x11,0
    97a8:	000c0513          	addi	x10,x24,0
    97ac:	000d0593          	addi	x11,x26,0
    97b0:	489040ef          	jal	x1,e438 <__fixdfsi>
    97b4:	00050793          	addi	x15,x10,0
    97b8:	02050863          	beq	x10,x0,97e8 <__gdtoa+0x19f8>
    97bc:	02a12c23          	sw	x10,56(x2)
    97c0:	4fd040ef          	jal	x1,e4bc <__floatsidf>
    97c4:	00050613          	addi	x12,x10,0
    97c8:	00058693          	addi	x13,x11,0
    97cc:	000c0513          	addi	x10,x24,0
    97d0:	000d0593          	addi	x11,x26,0
    97d4:	34c040ef          	jal	x1,db20 <__subdf3>
    97d8:	03812783          	lw	x15,56(x2)
    97dc:	00050c13          	addi	x24,x10,0
    97e0:	00058d13          	addi	x26,x11,0
    97e4:	00100413          	addi	x8,x0,1
    97e8:	03078793          	addi	x15,x15,48
    97ec:	001c8c93          	addi	x25,x25,1
    97f0:	0ff7f793          	andi	x15,x15,255
    97f4:	fefc8fa3          	sb	x15,-1(x25)
    97f8:	1bc12683          	lw	x13,444(x2)
    97fc:	000c0513          	addi	x10,x24,0
    9800:	000d0593          	addi	x11,x26,0
    9804:	00168893          	addi	x17,x13,1
    9808:	f9b692e3          	bne	x13,x27,978c <__gdtoa+0x199c>
    980c:	00040613          	addi	x12,x8,0
    9810:	0a012b83          	lw	x23,160(x2)
    9814:	0b812b03          	lw	x22,184(x2)
    9818:	0c012d83          	lw	x27,192(x2)
    981c:	0c812403          	lw	x8,200(x2)
    9820:	0d012a83          	lw	x21,208(x2)
    9824:	0d812a03          	lw	x20,216(x2)
    9828:	0f812703          	lw	x14,248(x2)
    982c:	10012983          	lw	x19,256(x2)
    9830:	10812e03          	lw	x28,264(x2)
    9834:	00078c13          	addi	x24,x15,0
    9838:	00060663          	beq	x12,x0,9844 <__gdtoa+0x1a54>
    983c:	06a12023          	sw	x10,96(x2)
    9840:	06b12823          	sw	x11,112(x2)
    9844:	07812903          	lw	x18,120(x2)
    9848:	08012d03          	lw	x26,128(x2)
    984c:	00009497          	auipc	x9,0x9
    9850:	35c48493          	addi	x9,x9,860 # 12ba8 <__SDATA_BEGIN__+0x58>
    9854:	13212c23          	sw	x18,312(x2)
    9858:	13a12e23          	sw	x26,316(x2)
    985c:	0004a603          	lw	x12,0(x9)
    9860:	0044a683          	lw	x13,4(x9)
    9864:	13812503          	lw	x10,312(x2)
    9868:	13c12583          	lw	x11,316(x2)
    986c:	0bc12023          	sw	x28,160(x2)
    9870:	02e12c23          	sw	x14,56(x2)
    9874:	0d1020ef          	jal	x1,c144 <__adddf3>
    9878:	07012703          	lw	x14,112(x2)
    987c:	06012783          	lw	x15,96(x2)
    9880:	14e12223          	sw	x14,324(x2)
    9884:	14f12023          	sw	x15,320(x2)
    9888:	14012603          	lw	x12,320(x2)
    988c:	14412683          	lw	x13,324(x2)
    9890:	2a9030ef          	jal	x1,d338 <__ledf2>
    9894:	03812703          	lw	x14,56(x2)
    9898:	1c054e63          	blt	x10,x0,9a74 <__gdtoa+0x1c84>
    989c:	15212423          	sw	x18,328(x2)
    98a0:	15a12623          	sw	x26,332(x2)
    98a4:	14812603          	lw	x12,328(x2)
    98a8:	14c12683          	lw	x13,332(x2)
    98ac:	0004a503          	lw	x10,0(x9)
    98b0:	0044a583          	lw	x11,4(x9)
    98b4:	26c040ef          	jal	x1,db20 <__subdf3>
    98b8:	07012703          	lw	x14,112(x2)
    98bc:	06012783          	lw	x15,96(x2)
    98c0:	14e12a23          	sw	x14,340(x2)
    98c4:	14f12823          	sw	x15,336(x2)
    98c8:	15012603          	lw	x12,336(x2)
    98cc:	15412683          	lw	x13,340(x2)
    98d0:	169030ef          	jal	x1,d238 <__gedf2>
    98d4:	03812703          	lw	x14,56(x2)
    98d8:	0a012e03          	lw	x28,160(x2)
    98dc:	2aa04463          	blt	x0,x10,9b84 <__gdtoa+0x1d94>
    98e0:	05012783          	lw	x15,80(x2)
    98e4:	05c12c03          	lw	x24,92(x2)
    98e8:	06f12023          	sw	x15,96(x2)
    98ec:	02c12783          	lw	x15,44(x2)
    98f0:	c207d6e3          	bge	x15,x0,951c <__gdtoa+0x172c>
    98f4:	04012483          	lw	x9,64(x2)
    98f8:	03012903          	lw	x18,48(x2)
    98fc:	02012c23          	sw	x0,56(x2)
    9900:	00000c13          	addi	x24,x0,0
    9904:	9f9fe06f          	jal	x0,82fc <__gdtoa+0x50c>
    9908:	000d8e93          	addi	x29,x27,0
    990c:	000c0a13          	addi	x20,x24,0
    9910:	00812d83          	lw	x27,8(x2)
    9914:	01412703          	lw	x14,20(x2)
    9918:	000b0813          	addi	x16,x22,0
    991c:	01912823          	sw	x25,16(x2)
    9920:	000e8c13          	addi	x24,x29,0
    9924:	f0cff06f          	jal	x0,9030 <__gdtoa+0x1240>
    9928:	fffccc03          	lbu	x24,-1(x25)
    992c:	a40ff06f          	jal	x0,8b6c <__gdtoa+0xd7c>
    9930:	ae0c88e3          	beq	x25,x0,9420 <__gdtoa+0x1630>
    9934:	06c12c83          	lw	x25,108(x2)
    9938:	bd9054e3          	bge	x0,x25,9500 <__gdtoa+0x1710>
    993c:	0f212c23          	sw	x18,248(x2)
    9940:	0f812e23          	sw	x24,252(x2)
    9944:	00009697          	auipc	x13,0x9
    9948:	24468693          	addi	x13,x13,580 # 12b88 <__SDATA_BEGIN__+0x38>
    994c:	0006a603          	lw	x12,0(x13)
    9950:	0f812503          	lw	x10,248(x2)
    9954:	0046a683          	lw	x13,4(x13)
    9958:	0fc12583          	lw	x11,252(x2)
    995c:	0ce12023          	sw	x14,192(x2)
    9960:	2e1030ef          	jal	x1,d440 <__muldf3>
    9964:	00009697          	auipc	x13,0x9
    9968:	22c68693          	addi	x13,x13,556 # 12b90 <__SDATA_BEGIN__+0x40>
    996c:	0006a603          	lw	x12,0(x13)
    9970:	0046a683          	lw	x13,4(x13)
    9974:	00058c13          	addi	x24,x11,0
    9978:	06a12023          	sw	x10,96(x2)
    997c:	0aa12c23          	sw	x10,184(x2)
    9980:	0ab12023          	sw	x11,160(x2)
    9984:	2bd030ef          	jal	x1,d440 <__muldf3>
    9988:	00009697          	auipc	x13,0x9
    998c:	21068693          	addi	x13,x13,528 # 12b98 <__SDATA_BEGIN__+0x48>
    9990:	0006a603          	lw	x12,0(x13)
    9994:	0046a683          	lw	x13,4(x13)
    9998:	7ac020ef          	jal	x1,c144 <__adddf3>
    999c:	fcc006b7          	lui	x13,0xfcc00
    99a0:	fff00793          	addi	x15,x0,-1
    99a4:	0b812e83          	lw	x29,184(x2)
    99a8:	0c012703          	lw	x14,192(x2)
    99ac:	00050913          	addi	x18,x10,0
    99b0:	00b68333          	add	x6,x13,x11
    99b4:	03912c23          	sw	x25,56(x2)
    99b8:	08f12c23          	sw	x15,152(x2)
    99bc:	000c0f13          	addi	x30,x24,0
    99c0:	f59fe06f          	jal	x0,8918 <__gdtoa+0xb28>
    99c4:	00200d13          	addi	x26,x0,2
    99c8:	00000593          	addi	x11,x0,0
    99cc:	00000c13          	addi	x24,x0,0
    99d0:	f2cff06f          	jal	x0,90fc <__gdtoa+0x130c>
    99d4:	01912823          	sw	x25,16(x2)
    99d8:	03900693          	addi	x13,x0,57
    99dc:	000d8e93          	addi	x29,x27,0
    99e0:	01412703          	lw	x14,20(x2)
    99e4:	00812d83          	lw	x27,8(x2)
    99e8:	90db0ae3          	beq	x22,x13,92fc <__gdtoa+0x150c>
    99ec:	001b0813          	addi	x16,x22,1
    99f0:	000c0a13          	addi	x20,x24,0
    99f4:	001b8c93          	addi	x25,x23,1
    99f8:	010b8023          	sb	x16,0(x23)
    99fc:	000e8c13          	addi	x24,x29,0
    9a00:	02000b13          	addi	x22,x0,32
    9a04:	cf4ff06f          	jal	x0,8ef8 <__gdtoa+0x1108>
    9a08:	03012683          	lw	x13,48(x2)
    9a0c:	01812603          	lw	x12,24(x2)
    9a10:	1af12e23          	sw	x15,444(x2)
    9a14:	00068913          	addi	x18,x13,0 # fcc00000 <__heap_end+0xfc800000>
    9a18:	00f60633          	add	x12,x12,x15
    9a1c:	00f687b3          	add	x15,x13,x15
    9a20:	00c12c23          	sw	x12,24(x2)
    9a24:	02f12823          	sw	x15,48(x2)
    9a28:	8b9fe06f          	jal	x0,82e0 <__gdtoa+0x4f0>
    9a2c:	000c0593          	addi	x11,x24,0
    9a30:	00000693          	addi	x13,x0,0
    9a34:	00a00613          	addi	x12,x0,10
    9a38:	00040513          	addi	x10,x8,0
    9a3c:	51d000ef          	jal	x1,a758 <__multadd>
    9a40:	00050c13          	addi	x24,x10,0
    9a44:	00051463          	bne	x10,x0,9a4c <__gdtoa+0x1c5c>
    9a48:	c39fe06f          	jal	x0,8680 <__gdtoa+0x890>
    9a4c:	06c12783          	lw	x15,108(x2)
    9a50:	00812703          	lw	x14,8(x2)
    9a54:	00f05663          	bge	x0,x15,9a60 <__gdtoa+0x1c70>
    9a58:	02f12023          	sw	x15,32(x2)
    9a5c:	989fe06f          	jal	x0,83e4 <__gdtoa+0x5f4>
    9a60:	00200793          	addi	x15,x0,2
    9a64:	1737c263          	blt	x15,x19,9bc8 <__gdtoa+0x1dd8>
    9a68:	06c12783          	lw	x15,108(x2)
    9a6c:	02f12023          	sw	x15,32(x2)
    9a70:	975fe06f          	jal	x0,83e4 <__gdtoa+0x5f4>
    9a74:	09812783          	lw	x15,152(x2)
    9a78:	00178493          	addi	x9,x15,1
    9a7c:	8f0ff06f          	jal	x0,8b6c <__gdtoa+0xd7c>
    9a80:	0a012d83          	lw	x27,160(x2)
    9a84:	0b812403          	lw	x8,184(x2)
    9a88:	0c012703          	lw	x14,192(x2)
    9a8c:	12912423          	sw	x9,296(x2)
    9a90:	13212623          	sw	x18,300(x2)
    9a94:	12812503          	lw	x10,296(x2)
    9a98:	12c12583          	lw	x11,300(x2)
    9a9c:	00000613          	addi	x12,x0,0
    9aa0:	00000693          	addi	x13,x0,0
    9aa4:	00e12423          	sw	x14,8(x2)
    9aa8:	704030ef          	jal	x1,d1ac <__eqdf2>
    9aac:	09812783          	lw	x15,152(x2)
    9ab0:	00a03b33          	sltu	x22,x0,x10
    9ab4:	00812703          	lw	x14,8(x2)
    9ab8:	004b1b13          	slli	x22,x22,0x4
    9abc:	00178d13          	addi	x26,x15,1
    9ac0:	b14ff06f          	jal	x0,8dd4 <__gdtoa+0xfe4>
    9ac4:	02012783          	lw	x15,32(x2)
    9ac8:	04012603          	lw	x12,64(x2)
    9acc:	fff78693          	addi	x13,x15,-1
    9ad0:	f6d64463          	blt	x12,x13,9238 <__gdtoa+0x1448>
    9ad4:	03012503          	lw	x10,48(x2)
    9ad8:	01812583          	lw	x11,24(x2)
    9adc:	1af12e23          	sw	x15,444(x2)
    9ae0:	00050913          	addi	x18,x10,0
    9ae4:	00f585b3          	add	x11,x11,x15
    9ae8:	00f507b3          	add	x15,x10,x15
    9aec:	00b12c23          	sw	x11,24(x2)
    9af0:	40d604b3          	sub	x9,x12,x13
    9af4:	02f12823          	sw	x15,48(x2)
    9af8:	fe8fe06f          	jal	x0,82e0 <__gdtoa+0x4f0>
    9afc:	05012783          	lw	x15,80(x2)
    9b00:	0d012d03          	lw	x26,208(x2)
    9b04:	0d812b83          	lw	x23,216(x2)
    9b08:	06f12023          	sw	x15,96(x2)
    9b0c:	02c12783          	lw	x15,44(x2)
    9b10:	0f812b03          	lw	x22,248(x2)
    9b14:	0a012d83          	lw	x27,160(x2)
    9b18:	0b812403          	lw	x8,184(x2)
    9b1c:	10012a83          	lw	x21,256(x2)
    9b20:	10812a03          	lw	x20,264(x2)
    9b24:	0c012703          	lw	x14,192(x2)
    9b28:	11012983          	lw	x19,272(x2)
    9b2c:	11812e03          	lw	x28,280(x2)
    9b30:	05c12c03          	lw	x24,92(x2)
    9b34:	9e07d4e3          	bge	x15,x0,951c <__gdtoa+0x172c>
    9b38:	02012c23          	sw	x0,56(x2)
    9b3c:	f30fe06f          	jal	x0,826c <__gdtoa+0x47c>
    9b40:	02012c23          	sw	x0,56(x2)
    9b44:	f20fe06f          	jal	x0,8264 <__gdtoa+0x474>
    9b48:	01912823          	sw	x25,16(x2)
    9b4c:	03900693          	addi	x13,x0,57
    9b50:	000d8e93          	addi	x29,x27,0
    9b54:	01412703          	lw	x14,20(x2)
    9b58:	00812d83          	lw	x27,8(x2)
    9b5c:	000b0813          	addi	x16,x22,0
    9b60:	f8db0e63          	beq	x22,x13,92fc <__gdtoa+0x150c>
    9b64:	0f505e63          	bge	x0,x21,9c60 <__gdtoa+0x1e70>
    9b68:	03190813          	addi	x16,x18,49
    9b6c:	02000b13          	addi	x22,x0,32
    9b70:	000c0a13          	addi	x20,x24,0
    9b74:	001b8c93          	addi	x25,x23,1
    9b78:	010b8023          	sb	x16,0(x23)
    9b7c:	000e8c13          	addi	x24,x29,0
    9b80:	b78ff06f          	jal	x0,8ef8 <__gdtoa+0x1108>
    9b84:	06012783          	lw	x15,96(x2)
    9b88:	00000613          	addi	x12,x0,0
    9b8c:	00000693          	addi	x13,x0,0
    9b90:	14f12c23          	sw	x15,344(x2)
    9b94:	07012783          	lw	x15,112(x2)
    9b98:	15812503          	lw	x10,344(x2)
    9b9c:	00e12423          	sw	x14,8(x2)
    9ba0:	14f12e23          	sw	x15,348(x2)
    9ba4:	15c12583          	lw	x11,348(x2)
    9ba8:	604030ef          	jal	x1,d1ac <__eqdf2>
    9bac:	09812703          	lw	x14,152(x2)
    9bb0:	00a03b33          	sltu	x22,x0,x10
    9bb4:	004b1b13          	slli	x22,x22,0x4
    9bb8:	00170493          	addi	x9,x14,1
    9bbc:	000c8793          	addi	x15,x25,0
    9bc0:	00812703          	lw	x14,8(x2)
    9bc4:	a91ff06f          	jal	x0,9654 <__gdtoa+0x1864>
    9bc8:	06c12783          	lw	x15,108(x2)
    9bcc:	02f12023          	sw	x15,32(x2)
    9bd0:	cdcff06f          	jal	x0,90ac <__gdtoa+0x12bc>
    9bd4:	0147a683          	lw	x13,20(x15)
    9bd8:	b0069863          	bne	x13,x0,8ee8 <__gdtoa+0x10f8>
    9bdc:	03812b03          	lw	x22,56(x2)
    9be0:	b08ff06f          	jal	x0,8ee8 <__gdtoa+0x10f8>
    9be4:	00051663          	bne	x10,x0,9bf0 <__gdtoa+0x1e00>
    9be8:	00187693          	andi	x13,x16,1
    9bec:	b00690e3          	bne	x13,x0,96ec <__gdtoa+0x18fc>
    9bf0:	02000793          	addi	x15,x0,32
    9bf4:	02f12c23          	sw	x15,56(x2)
    9bf8:	ad8ff06f          	jal	x0,8ed0 <__gdtoa+0x10e0>
    9bfc:	01212823          	sw	x18,16(x2)
    9c00:	03900693          	addi	x13,x0,57
    9c04:	000a8e93          	addi	x29,x21,0
    9c08:	000b0713          	addi	x14,x22,0
    9c0c:	00da0e63          	beq	x20,x13,9c28 <__gdtoa+0x1e38>
    9c10:	001a0813          	addi	x16,x20,1
    9c14:	02000b13          	addi	x22,x0,32
    9c18:	ad0ff06f          	jal	x0,8ee8 <__gdtoa+0x10f8>
    9c1c:	01000b13          	addi	x22,x0,16
    9c20:	001b8993          	addi	x19,x23,1
    9c24:	ac4ff06f          	jal	x0,8ee8 <__gdtoa+0x10f8>
    9c28:	000c0a13          	addi	x20,x24,0
    9c2c:	000b8693          	addi	x13,x23,0
    9c30:	00058c13          	addi	x24,x11,0
    9c34:	ed8ff06f          	jal	x0,930c <__gdtoa+0x151c>
    9c38:	010ca603          	lw	x12,16(x25)
    9c3c:	00100693          	addi	x13,x0,1
    9c40:	000c8793          	addi	x15,x25,0
    9c44:	00c6d463          	bge	x13,x12,9c4c <__gdtoa+0x1e5c>
    9c48:	945fe06f          	jal	x0,858c <__gdtoa+0x79c>
    9c4c:	0147a683          	lw	x13,20(x15)
    9c50:	00068463          	beq	x13,x0,9c58 <__gdtoa+0x1e68>
    9c54:	939fe06f          	jal	x0,858c <__gdtoa+0x79c>
    9c58:	001b8993          	addi	x19,x23,1
    9c5c:	a8cff06f          	jal	x0,8ee8 <__gdtoa+0x10f8>
    9c60:	01012783          	lw	x15,16(x2)
    9c64:	00100693          	addi	x13,x0,1
    9c68:	01000b13          	addi	x22,x0,16
    9c6c:	0107a603          	lw	x12,16(x15)
    9c70:	f0c6c0e3          	blt	x13,x12,9b70 <__gdtoa+0x1d80>
    9c74:	0147ab03          	lw	x22,20(x15)
    9c78:	01603b33          	sltu	x22,x0,x22
    9c7c:	004b1b13          	slli	x22,x22,0x4
    9c80:	ef1ff06f          	jal	x0,9b70 <__gdtoa+0x1d80>
    9c84:	020ac263          	blt	x21,x0,9ca8 <__gdtoa+0x1eb8>
    9c88:	0159eab3          	or	x21,x19,x21
    9c8c:	000a9863          	bne	x21,x0,9c9c <__gdtoa+0x1eac>
    9c90:	000a2783          	lw	x15,0(x20)
    9c94:	0017f793          	andi	x15,x15,1
    9c98:	00078863          	beq	x15,x0,9ca8 <__gdtoa+0x1eb8>
    9c9c:	00d04463          	blt	x0,x13,9ca4 <__gdtoa+0x1eb4>
    9ca0:	fb4fe06f          	jal	x0,8454 <__gdtoa+0x664>
    9ca4:	fa4fe06f          	jal	x0,8448 <__gdtoa+0x658>
    9ca8:	03812603          	lw	x12,56(x2)
    9cac:	01912823          	sw	x25,16(x2)
    9cb0:	000d8e93          	addi	x29,x27,0
    9cb4:	01412703          	lw	x14,20(x2)
    9cb8:	00812d83          	lw	x27,8(x2)
    9cbc:	000b0813          	addi	x16,x22,0
    9cc0:	02060863          	beq	x12,x0,9cf0 <__gdtoa+0x1f00>
    9cc4:	010ca583          	lw	x11,16(x25)
    9cc8:	00100613          	addi	x12,x0,1
    9ccc:	00b65463          	bge	x12,x11,9cd4 <__gdtoa+0x1ee4>
    9cd0:	8bdfe06f          	jal	x0,858c <__gdtoa+0x79c>
    9cd4:	014ca603          	lw	x12,20(x25)
    9cd8:	00060463          	beq	x12,x0,9ce0 <__gdtoa+0x1ef0>
    9cdc:	8b1fe06f          	jal	x0,858c <__gdtoa+0x79c>
    9ce0:	9cd046e3          	blt	x0,x13,96ac <__gdtoa+0x18bc>
    9ce4:	00000b13          	addi	x22,x0,0
    9ce8:	001b8993          	addi	x19,x23,1
    9cec:	9fcff06f          	jal	x0,8ee8 <__gdtoa+0x10f8>
    9cf0:	9ed05063          	bge	x0,x13,8ed0 <__gdtoa+0x10e0>
    9cf4:	9b9ff06f          	jal	x0,96ac <__gdtoa+0x18bc>

00009cf8 <__rv_alloc_D2A>:
    9cf8:	ff010113          	addi	x2,x2,-16
    9cfc:	00812423          	sw	x8,8(x2)
    9d00:	00112623          	sw	x1,12(x2)
    9d04:	01300793          	addi	x15,x0,19
    9d08:	00000413          	addi	x8,x0,0
    9d0c:	00b7fc63          	bgeu	x15,x11,9d24 <__rv_alloc_D2A+0x2c>
    9d10:	00400793          	addi	x15,x0,4
    9d14:	00179793          	slli	x15,x15,0x1
    9d18:	01078713          	addi	x14,x15,16
    9d1c:	00140413          	addi	x8,x8,1
    9d20:	fee5fae3          	bgeu	x11,x14,9d14 <__rv_alloc_D2A+0x1c>
    9d24:	00040593          	addi	x11,x8,0
    9d28:	159000ef          	jal	x1,a680 <_Balloc>
    9d2c:	00050663          	beq	x10,x0,9d38 <__rv_alloc_D2A+0x40>
    9d30:	00852023          	sw	x8,0(x10)
    9d34:	00450513          	addi	x10,x10,4
    9d38:	00c12083          	lw	x1,12(x2)
    9d3c:	00812403          	lw	x8,8(x2)
    9d40:	01010113          	addi	x2,x2,16
    9d44:	00008067          	jalr	x0,0(x1)

00009d48 <__nrv_alloc_D2A>:
    9d48:	ff010113          	addi	x2,x2,-16
    9d4c:	00812423          	sw	x8,8(x2)
    9d50:	01212023          	sw	x18,0(x2)
    9d54:	00112623          	sw	x1,12(x2)
    9d58:	00912223          	sw	x9,4(x2)
    9d5c:	01300793          	addi	x15,x0,19
    9d60:	00058413          	addi	x8,x11,0
    9d64:	00060913          	addi	x18,x12,0
    9d68:	06d7fe63          	bgeu	x15,x13,9de4 <__nrv_alloc_D2A+0x9c>
    9d6c:	00400793          	addi	x15,x0,4
    9d70:	00000493          	addi	x9,x0,0
    9d74:	00179793          	slli	x15,x15,0x1
    9d78:	01078713          	addi	x14,x15,16
    9d7c:	00148493          	addi	x9,x9,1
    9d80:	fee6fae3          	bgeu	x13,x14,9d74 <__nrv_alloc_D2A+0x2c>
    9d84:	00048593          	addi	x11,x9,0
    9d88:	0f9000ef          	jal	x1,a680 <_Balloc>
    9d8c:	00050793          	addi	x15,x10,0
    9d90:	04050e63          	beq	x10,x0,9dec <__nrv_alloc_D2A+0xa4>
    9d94:	00952023          	sw	x9,0(x10)
    9d98:	00044703          	lbu	x14,0(x8)
    9d9c:	00450513          	addi	x10,x10,4
    9da0:	00140593          	addi	x11,x8,1
    9da4:	00e78223          	sb	x14,4(x15)
    9da8:	00050793          	addi	x15,x10,0
    9dac:	00070c63          	beq	x14,x0,9dc4 <__nrv_alloc_D2A+0x7c>
    9db0:	0005c703          	lbu	x14,0(x11)
    9db4:	00178793          	addi	x15,x15,1
    9db8:	00158593          	addi	x11,x11,1
    9dbc:	00e78023          	sb	x14,0(x15)
    9dc0:	fe0718e3          	bne	x14,x0,9db0 <__nrv_alloc_D2A+0x68>
    9dc4:	00090463          	beq	x18,x0,9dcc <__nrv_alloc_D2A+0x84>
    9dc8:	00f92023          	sw	x15,0(x18)
    9dcc:	00c12083          	lw	x1,12(x2)
    9dd0:	00812403          	lw	x8,8(x2)
    9dd4:	00412483          	lw	x9,4(x2)
    9dd8:	00012903          	lw	x18,0(x2)
    9ddc:	01010113          	addi	x2,x2,16
    9de0:	00008067          	jalr	x0,0(x1)
    9de4:	00000493          	addi	x9,x0,0
    9de8:	f9dff06f          	jal	x0,9d84 <__nrv_alloc_D2A+0x3c>
    9dec:	00000513          	addi	x10,x0,0
    9df0:	fddff06f          	jal	x0,9dcc <__nrv_alloc_D2A+0x84>

00009df4 <__freedtoa>:
    9df4:	ffc5a683          	lw	x13,-4(x11)
    9df8:	00100713          	addi	x14,x0,1
    9dfc:	00058793          	addi	x15,x11,0
    9e00:	00d71733          	sll	x14,x14,x13
    9e04:	ffc58593          	addi	x11,x11,-4
    9e08:	00d7a023          	sw	x13,0(x15)
    9e0c:	00e7a223          	sw	x14,4(x15)
    9e10:	1250006f          	jal	x0,a734 <_Bfree>

00009e14 <__quorem_D2A>:
    9e14:	fe010113          	addi	x2,x2,-32
    9e18:	00912a23          	sw	x9,20(x2)
    9e1c:	01052783          	lw	x15,16(x10)
    9e20:	0105a483          	lw	x9,16(x11)
    9e24:	00112e23          	sw	x1,28(x2)
    9e28:	1e97c063          	blt	x15,x9,a008 <__quorem_D2A+0x1f4>
    9e2c:	fff48493          	addi	x9,x9,-1
    9e30:	00249893          	slli	x17,x9,0x2
    9e34:	00812c23          	sw	x8,24(x2)
    9e38:	01458413          	addi	x8,x11,20
    9e3c:	01312623          	sw	x19,12(x2)
    9e40:	01412423          	sw	x20,8(x2)
    9e44:	011409b3          	add	x19,x8,x17
    9e48:	01450a13          	addi	x20,x10,20
    9e4c:	0009a783          	lw	x15,0(x19)
    9e50:	011a08b3          	add	x17,x20,x17
    9e54:	0008a703          	lw	x14,0(x17)
    9e58:	01212823          	sw	x18,16(x2)
    9e5c:	01512223          	sw	x21,4(x2)
    9e60:	00178793          	addi	x15,x15,1
    9e64:	02f75933          	divu	x18,x14,x15
    9e68:	00050a93          	addi	x21,x10,0
    9e6c:	0cf76463          	bltu	x14,x15,9f34 <__quorem_D2A+0x120>
    9e70:	00040813          	addi	x16,x8,0
    9e74:	000a0513          	addi	x10,x20,0
    9e78:	00000e93          	addi	x29,x0,0
    9e7c:	00000e13          	addi	x28,x0,0
    9e80:	00082783          	lw	x15,0(x16)
    9e84:	00052603          	lw	x12,0(x10)
    9e88:	00450513          	addi	x10,x10,4
    9e8c:	01079693          	slli	x13,x15,0x10
    9e90:	0106d693          	srli	x13,x13,0x10
    9e94:	0107d793          	srli	x15,x15,0x10
    9e98:	01061713          	slli	x14,x12,0x10
    9e9c:	01065313          	srli	x6,x12,0x10
    9ea0:	01075713          	srli	x14,x14,0x10
    9ea4:	00480813          	addi	x16,x16,4
    9ea8:	032686b3          	mul	x13,x13,x18
    9eac:	032787b3          	mul	x15,x15,x18
    9eb0:	01d686b3          	add	x13,x13,x29
    9eb4:	01069613          	slli	x12,x13,0x10
    9eb8:	01065613          	srli	x12,x12,0x10
    9ebc:	40c70733          	sub	x14,x14,x12
    9ec0:	0106d693          	srli	x13,x13,0x10
    9ec4:	41c70733          	sub	x14,x14,x28
    9ec8:	01075613          	srli	x12,x14,0x10
    9ecc:	00167613          	andi	x12,x12,1
    9ed0:	01071713          	slli	x14,x14,0x10
    9ed4:	00d787b3          	add	x15,x15,x13
    9ed8:	01079693          	slli	x13,x15,0x10
    9edc:	0106d693          	srli	x13,x13,0x10
    9ee0:	00d60633          	add	x12,x12,x13
    9ee4:	40c306b3          	sub	x13,x6,x12
    9ee8:	01069613          	slli	x12,x13,0x10
    9eec:	01075713          	srli	x14,x14,0x10
    9ef0:	00e66733          	or	x14,x12,x14
    9ef4:	0106d693          	srli	x13,x13,0x10
    9ef8:	fee52e23          	sw	x14,-4(x10)
    9efc:	0107de93          	srli	x29,x15,0x10
    9f00:	0016fe13          	andi	x28,x13,1
    9f04:	f709fee3          	bgeu	x19,x16,9e80 <__quorem_D2A+0x6c>
    9f08:	0008a783          	lw	x15,0(x17)
    9f0c:	02079463          	bne	x15,x0,9f34 <__quorem_D2A+0x120>
    9f10:	ffc88893          	addi	x17,x17,-4
    9f14:	011a6863          	bltu	x20,x17,9f24 <__quorem_D2A+0x110>
    9f18:	0180006f          	jal	x0,9f30 <__quorem_D2A+0x11c>
    9f1c:	fff48493          	addi	x9,x9,-1
    9f20:	011a7863          	bgeu	x20,x17,9f30 <__quorem_D2A+0x11c>
    9f24:	0008a783          	lw	x15,0(x17)
    9f28:	ffc88893          	addi	x17,x17,-4
    9f2c:	fe0788e3          	beq	x15,x0,9f1c <__quorem_D2A+0x108>
    9f30:	009aa823          	sw	x9,16(x21)
    9f34:	000a8513          	addi	x10,x21,0
    9f38:	1d4010ef          	jal	x1,b10c <__mcmp>
    9f3c:	0a054263          	blt	x10,x0,9fe0 <__quorem_D2A+0x1cc>
    9f40:	000a0593          	addi	x11,x20,0
    9f44:	00000693          	addi	x13,x0,0
    9f48:	0005a783          	lw	x15,0(x11)
    9f4c:	00042603          	lw	x12,0(x8)
    9f50:	00458593          	addi	x11,x11,4
    9f54:	01079713          	slli	x14,x15,0x10
    9f58:	01061513          	slli	x10,x12,0x10
    9f5c:	01075713          	srli	x14,x14,0x10
    9f60:	01055513          	srli	x10,x10,0x10
    9f64:	40a70733          	sub	x14,x14,x10
    9f68:	40d70733          	sub	x14,x14,x13
    9f6c:	01075693          	srli	x13,x14,0x10
    9f70:	0016f693          	andi	x13,x13,1
    9f74:	01065613          	srli	x12,x12,0x10
    9f78:	00c686b3          	add	x13,x13,x12
    9f7c:	0107d793          	srli	x15,x15,0x10
    9f80:	40d787b3          	sub	x15,x15,x13
    9f84:	01071713          	slli	x14,x14,0x10
    9f88:	01079693          	slli	x13,x15,0x10
    9f8c:	01075713          	srli	x14,x14,0x10
    9f90:	00e6e733          	or	x14,x13,x14
    9f94:	0107d793          	srli	x15,x15,0x10
    9f98:	00440413          	addi	x8,x8,4
    9f9c:	fee5ae23          	sw	x14,-4(x11)
    9fa0:	0017f693          	andi	x13,x15,1
    9fa4:	fa89f2e3          	bgeu	x19,x8,9f48 <__quorem_D2A+0x134>
    9fa8:	00249793          	slli	x15,x9,0x2
    9fac:	00fa07b3          	add	x15,x20,x15
    9fb0:	0007a703          	lw	x14,0(x15)
    9fb4:	02071463          	bne	x14,x0,9fdc <__quorem_D2A+0x1c8>
    9fb8:	ffc78793          	addi	x15,x15,-4
    9fbc:	00fa6863          	bltu	x20,x15,9fcc <__quorem_D2A+0x1b8>
    9fc0:	0180006f          	jal	x0,9fd8 <__quorem_D2A+0x1c4>
    9fc4:	fff48493          	addi	x9,x9,-1
    9fc8:	00fa7863          	bgeu	x20,x15,9fd8 <__quorem_D2A+0x1c4>
    9fcc:	0007a703          	lw	x14,0(x15)
    9fd0:	ffc78793          	addi	x15,x15,-4
    9fd4:	fe0708e3          	beq	x14,x0,9fc4 <__quorem_D2A+0x1b0>
    9fd8:	009aa823          	sw	x9,16(x21)
    9fdc:	00190913          	addi	x18,x18,1
    9fe0:	01812403          	lw	x8,24(x2)
    9fe4:	01c12083          	lw	x1,28(x2)
    9fe8:	00c12983          	lw	x19,12(x2)
    9fec:	00812a03          	lw	x20,8(x2)
    9ff0:	00412a83          	lw	x21,4(x2)
    9ff4:	01412483          	lw	x9,20(x2)
    9ff8:	00090513          	addi	x10,x18,0
    9ffc:	01012903          	lw	x18,16(x2)
    a000:	02010113          	addi	x2,x2,32
    a004:	00008067          	jalr	x0,0(x1)
    a008:	01c12083          	lw	x1,28(x2)
    a00c:	01412483          	lw	x9,20(x2)
    a010:	00000513          	addi	x10,x0,0
    a014:	02010113          	addi	x2,x2,32
    a018:	00008067          	jalr	x0,0(x1)

0000a01c <__rshift_D2A>:
    a01c:	01052803          	lw	x16,16(x10)
    a020:	4055de13          	srai	x28,x11,0x5
    a024:	010e4863          	blt	x28,x16,a034 <__rshift_D2A+0x18>
    a028:	00052823          	sw	x0,16(x10)
    a02c:	00052a23          	sw	x0,20(x10)
    a030:	00008067          	jalr	x0,0(x1)
    a034:	01450313          	addi	x6,x10,20
    a038:	00281613          	slli	x12,x16,0x2
    a03c:	002e1793          	slli	x15,x28,0x2
    a040:	01f5f593          	andi	x11,x11,31
    a044:	00c30633          	add	x12,x6,x12
    a048:	00f307b3          	add	x15,x6,x15
    a04c:	06058263          	beq	x11,x0,a0b0 <__rshift_D2A+0x94>
    a050:	0007a683          	lw	x13,0(x15)
    a054:	02000e93          	addi	x29,x0,32
    a058:	00478793          	addi	x15,x15,4
    a05c:	40be8eb3          	sub	x29,x29,x11
    a060:	00b6d6b3          	srl	x13,x13,x11
    a064:	08c7f463          	bgeu	x15,x12,a0ec <__rshift_D2A+0xd0>
    a068:	00030893          	addi	x17,x6,0
    a06c:	0007a703          	lw	x14,0(x15)
    a070:	00488893          	addi	x17,x17,4
    a074:	00478793          	addi	x15,x15,4
    a078:	01d71733          	sll	x14,x14,x29
    a07c:	00d76733          	or	x14,x14,x13
    a080:	fee8ae23          	sw	x14,-4(x17)
    a084:	ffc7a683          	lw	x13,-4(x15)
    a088:	00b6d6b3          	srl	x13,x13,x11
    a08c:	fec7e0e3          	bltu	x15,x12,a06c <__rshift_D2A+0x50>
    a090:	41c80833          	sub	x16,x16,x28
    a094:	00281813          	slli	x16,x16,0x2
    a098:	ffc80813          	addi	x16,x16,-4
    a09c:	01030833          	add	x16,x6,x16
    a0a0:	00d82023          	sw	x13,0(x16)
    a0a4:	02068a63          	beq	x13,x0,a0d8 <__rshift_D2A+0xbc>
    a0a8:	00480813          	addi	x16,x16,4
    a0ac:	02c0006f          	jal	x0,a0d8 <__rshift_D2A+0xbc>
    a0b0:	00030713          	addi	x14,x6,0
    a0b4:	f6c7fae3          	bgeu	x15,x12,a028 <__rshift_D2A+0xc>
    a0b8:	0007a683          	lw	x13,0(x15)
    a0bc:	00478793          	addi	x15,x15,4
    a0c0:	00470713          	addi	x14,x14,4
    a0c4:	fed72e23          	sw	x13,-4(x14)
    a0c8:	fec7e8e3          	bltu	x15,x12,a0b8 <__rshift_D2A+0x9c>
    a0cc:	41c80833          	sub	x16,x16,x28
    a0d0:	00281813          	slli	x16,x16,0x2
    a0d4:	01030833          	add	x16,x6,x16
    a0d8:	406807b3          	sub	x15,x16,x6
    a0dc:	4027d793          	srai	x15,x15,0x2
    a0e0:	00f52823          	sw	x15,16(x10)
    a0e4:	f46804e3          	beq	x16,x6,a02c <__rshift_D2A+0x10>
    a0e8:	00008067          	jalr	x0,0(x1)
    a0ec:	00d52a23          	sw	x13,20(x10)
    a0f0:	f2068ce3          	beq	x13,x0,a028 <__rshift_D2A+0xc>
    a0f4:	00030813          	addi	x16,x6,0
    a0f8:	00480813          	addi	x16,x16,4
    a0fc:	fddff06f          	jal	x0,a0d8 <__rshift_D2A+0xbc>

0000a100 <__trailz_D2A>:
    a100:	01052703          	lw	x14,16(x10)
    a104:	fe010113          	addi	x2,x2,-32
    a108:	01450513          	addi	x10,x10,20
    a10c:	00271713          	slli	x14,x14,0x2
    a110:	00812c23          	sw	x8,24(x2)
    a114:	00112e23          	sw	x1,28(x2)
    a118:	00e50733          	add	x14,x10,x14
    a11c:	00000413          	addi	x8,x0,0
    a120:	00e56a63          	bltu	x10,x14,a134 <__trailz_D2A+0x34>
    a124:	02c0006f          	jal	x0,a150 <__trailz_D2A+0x50>
    a128:	00450513          	addi	x10,x10,4
    a12c:	02040413          	addi	x8,x8,32
    a130:	02e57063          	bgeu	x10,x14,a150 <__trailz_D2A+0x50>
    a134:	00052783          	lw	x15,0(x10)
    a138:	fe0788e3          	beq	x15,x0,a128 <__trailz_D2A+0x28>
    a13c:	00e57a63          	bgeu	x10,x14,a150 <__trailz_D2A+0x50>
    a140:	00c10513          	addi	x10,x2,12
    a144:	00f12623          	sw	x15,12(x2)
    a148:	10d000ef          	jal	x1,aa54 <__lo0bits>
    a14c:	00a40433          	add	x8,x8,x10
    a150:	01c12083          	lw	x1,28(x2)
    a154:	00040513          	addi	x10,x8,0
    a158:	01812403          	lw	x8,24(x2)
    a15c:	02010113          	addi	x2,x2,32
    a160:	00008067          	jalr	x0,0(x1)

0000a164 <__swbuf_r>:
    a164:	fe010113          	addi	x2,x2,-32
    a168:	00812c23          	sw	x8,24(x2)
    a16c:	00912a23          	sw	x9,20(x2)
    a170:	01212823          	sw	x18,16(x2)
    a174:	00112e23          	sw	x1,28(x2)
    a178:	00050913          	addi	x18,x10,0
    a17c:	00058493          	addi	x9,x11,0
    a180:	00060413          	addi	x8,x12,0
    a184:	00050663          	beq	x10,x0,a190 <__swbuf_r+0x2c>
    a188:	03452783          	lw	x15,52(x10)
    a18c:	16078063          	beq	x15,x0,a2ec <__swbuf_r+0x188>
    a190:	01842783          	lw	x15,24(x8)
    a194:	00c41703          	lh	x14,12(x8)
    a198:	00f42423          	sw	x15,8(x8)
    a19c:	00877793          	andi	x15,x14,8
    a1a0:	08078063          	beq	x15,x0,a220 <__swbuf_r+0xbc>
    a1a4:	01042783          	lw	x15,16(x8)
    a1a8:	06078c63          	beq	x15,x0,a220 <__swbuf_r+0xbc>
    a1ac:	01312623          	sw	x19,12(x2)
    a1b0:	01271693          	slli	x13,x14,0x12
    a1b4:	0ff4f993          	andi	x19,x9,255
    a1b8:	0ff4f493          	andi	x9,x9,255
    a1bc:	0806d863          	bge	x13,x0,a24c <__swbuf_r+0xe8>
    a1c0:	00042703          	lw	x14,0(x8)
    a1c4:	01442683          	lw	x13,20(x8)
    a1c8:	40f707b3          	sub	x15,x14,x15
    a1cc:	0ad7d863          	bge	x15,x13,a27c <__swbuf_r+0x118>
    a1d0:	00842683          	lw	x13,8(x8)
    a1d4:	00170613          	addi	x12,x14,1
    a1d8:	00c42023          	sw	x12,0(x8)
    a1dc:	fff68693          	addi	x13,x13,-1
    a1e0:	00d42423          	sw	x13,8(x8)
    a1e4:	01370023          	sb	x19,0(x14)
    a1e8:	01442703          	lw	x14,20(x8)
    a1ec:	00178793          	addi	x15,x15,1
    a1f0:	0cf70263          	beq	x14,x15,a2b4 <__swbuf_r+0x150>
    a1f4:	00c45783          	lhu	x15,12(x8)
    a1f8:	0017f793          	andi	x15,x15,1
    a1fc:	0c079a63          	bne	x15,x0,a2d0 <__swbuf_r+0x16c>
    a200:	00c12983          	lw	x19,12(x2)
    a204:	01c12083          	lw	x1,28(x2)
    a208:	01812403          	lw	x8,24(x2)
    a20c:	01012903          	lw	x18,16(x2)
    a210:	00048513          	addi	x10,x9,0
    a214:	01412483          	lw	x9,20(x2)
    a218:	02010113          	addi	x2,x2,32
    a21c:	00008067          	jalr	x0,0(x1)
    a220:	00040593          	addi	x11,x8,0
    a224:	00090513          	addi	x10,x18,0
    a228:	cc0fc0ef          	jal	x1,66e8 <__swsetup_r>
    a22c:	08051e63          	bne	x10,x0,a2c8 <__swbuf_r+0x164>
    a230:	00c41703          	lh	x14,12(x8)
    a234:	01312623          	sw	x19,12(x2)
    a238:	01042783          	lw	x15,16(x8)
    a23c:	01271693          	slli	x13,x14,0x12
    a240:	0ff4f993          	andi	x19,x9,255
    a244:	0ff4f493          	andi	x9,x9,255
    a248:	f606cce3          	blt	x13,x0,a1c0 <__swbuf_r+0x5c>
    a24c:	06442683          	lw	x13,100(x8)
    a250:	00002637          	lui	x12,0x2
    a254:	00c76733          	or	x14,x14,x12
    a258:	ffffe637          	lui	x12,0xffffe
    a25c:	fff60613          	addi	x12,x12,-1 # ffffdfff <__heap_end+0xffbfdfff>
    a260:	00c6f6b3          	and	x13,x13,x12
    a264:	00e41623          	sh	x14,12(x8)
    a268:	00042703          	lw	x14,0(x8)
    a26c:	06d42223          	sw	x13,100(x8)
    a270:	01442683          	lw	x13,20(x8)
    a274:	40f707b3          	sub	x15,x14,x15
    a278:	f4d7cce3          	blt	x15,x13,a1d0 <__swbuf_r+0x6c>
    a27c:	00040593          	addi	x11,x8,0
    a280:	00090513          	addi	x10,x18,0
    a284:	bd5fc0ef          	jal	x1,6e58 <_fflush_r>
    a288:	02051e63          	bne	x10,x0,a2c4 <__swbuf_r+0x160>
    a28c:	00042703          	lw	x14,0(x8)
    a290:	00842683          	lw	x13,8(x8)
    a294:	00100793          	addi	x15,x0,1
    a298:	00170613          	addi	x12,x14,1
    a29c:	fff68693          	addi	x13,x13,-1
    a2a0:	00c42023          	sw	x12,0(x8)
    a2a4:	00d42423          	sw	x13,8(x8)
    a2a8:	01370023          	sb	x19,0(x14)
    a2ac:	01442703          	lw	x14,20(x8)
    a2b0:	f4f712e3          	bne	x14,x15,a1f4 <__swbuf_r+0x90>
    a2b4:	00040593          	addi	x11,x8,0
    a2b8:	00090513          	addi	x10,x18,0
    a2bc:	b9dfc0ef          	jal	x1,6e58 <_fflush_r>
    a2c0:	f40500e3          	beq	x10,x0,a200 <__swbuf_r+0x9c>
    a2c4:	00c12983          	lw	x19,12(x2)
    a2c8:	fff00493          	addi	x9,x0,-1
    a2cc:	f39ff06f          	jal	x0,a204 <__swbuf_r+0xa0>
    a2d0:	00a00793          	addi	x15,x0,10
    a2d4:	f2f496e3          	bne	x9,x15,a200 <__swbuf_r+0x9c>
    a2d8:	00040593          	addi	x11,x8,0
    a2dc:	00090513          	addi	x10,x18,0
    a2e0:	b79fc0ef          	jal	x1,6e58 <_fflush_r>
    a2e4:	f0050ee3          	beq	x10,x0,a200 <__swbuf_r+0x9c>
    a2e8:	fddff06f          	jal	x0,a2c4 <__swbuf_r+0x160>
    a2ec:	abdf60ef          	jal	x1,da8 <__sinit>
    a2f0:	ea1ff06f          	jal	x0,a190 <__swbuf_r+0x2c>

0000a2f4 <__swbuf>:
    a2f4:	00058613          	addi	x12,x11,0
    a2f8:	00050593          	addi	x11,x10,0
    a2fc:	f041a503          	lw	x10,-252(x3) # 12bb4 <_impure_ptr>
    a300:	e65ff06f          	jal	x0,a164 <__swbuf_r>

0000a304 <_wcrtomb_r>:
    a304:	fe010113          	addi	x2,x2,-32
    a308:	00812c23          	sw	x8,24(x2)
    a30c:	00912a23          	sw	x9,20(x2)
    a310:	00112e23          	sw	x1,28(x2)
    a314:	00050413          	addi	x8,x10,0
    a318:	00068493          	addi	x9,x13,0
    a31c:	e141a783          	lw	x15,-492(x3) # 12ac4 <__global_locale+0xe0>
    a320:	02058263          	beq	x11,x0,a344 <_wcrtomb_r+0x40>
    a324:	000780e7          	jalr	x1,0(x15)
    a328:	fff00793          	addi	x15,x0,-1
    a32c:	02f50663          	beq	x10,x15,a358 <_wcrtomb_r+0x54>
    a330:	01c12083          	lw	x1,28(x2)
    a334:	01812403          	lw	x8,24(x2)
    a338:	01412483          	lw	x9,20(x2)
    a33c:	02010113          	addi	x2,x2,32
    a340:	00008067          	jalr	x0,0(x1)
    a344:	00000613          	addi	x12,x0,0
    a348:	00410593          	addi	x11,x2,4
    a34c:	000780e7          	jalr	x1,0(x15)
    a350:	fff00793          	addi	x15,x0,-1
    a354:	fcf51ee3          	bne	x10,x15,a330 <_wcrtomb_r+0x2c>
    a358:	0004a023          	sw	x0,0(x9)
    a35c:	08a00793          	addi	x15,x0,138
    a360:	01c12083          	lw	x1,28(x2)
    a364:	00f42023          	sw	x15,0(x8)
    a368:	01812403          	lw	x8,24(x2)
    a36c:	01412483          	lw	x9,20(x2)
    a370:	02010113          	addi	x2,x2,32
    a374:	00008067          	jalr	x0,0(x1)

0000a378 <wcrtomb>:
    a378:	fe010113          	addi	x2,x2,-32
    a37c:	00812c23          	sw	x8,24(x2)
    a380:	00912a23          	sw	x9,20(x2)
    a384:	00112e23          	sw	x1,28(x2)
    a388:	00060413          	addi	x8,x12,0
    a38c:	f041a483          	lw	x9,-252(x3) # 12bb4 <_impure_ptr>
    a390:	e141a783          	lw	x15,-492(x3) # 12ac4 <__global_locale+0xe0>
    a394:	02050a63          	beq	x10,x0,a3c8 <wcrtomb+0x50>
    a398:	00058613          	addi	x12,x11,0
    a39c:	00040693          	addi	x13,x8,0
    a3a0:	00050593          	addi	x11,x10,0
    a3a4:	00048513          	addi	x10,x9,0
    a3a8:	000780e7          	jalr	x1,0(x15)
    a3ac:	fff00793          	addi	x15,x0,-1
    a3b0:	02f50a63          	beq	x10,x15,a3e4 <wcrtomb+0x6c>
    a3b4:	01c12083          	lw	x1,28(x2)
    a3b8:	01812403          	lw	x8,24(x2)
    a3bc:	01412483          	lw	x9,20(x2)
    a3c0:	02010113          	addi	x2,x2,32
    a3c4:	00008067          	jalr	x0,0(x1)
    a3c8:	00060693          	addi	x13,x12,0
    a3cc:	00410593          	addi	x11,x2,4
    a3d0:	00000613          	addi	x12,x0,0
    a3d4:	00048513          	addi	x10,x9,0
    a3d8:	000780e7          	jalr	x1,0(x15)
    a3dc:	fff00793          	addi	x15,x0,-1
    a3e0:	fcf51ae3          	bne	x10,x15,a3b4 <wcrtomb+0x3c>
    a3e4:	00042023          	sw	x0,0(x8)
    a3e8:	01c12083          	lw	x1,28(x2)
    a3ec:	01812403          	lw	x8,24(x2)
    a3f0:	08a00793          	addi	x15,x0,138
    a3f4:	00f4a023          	sw	x15,0(x9)
    a3f8:	01412483          	lw	x9,20(x2)
    a3fc:	02010113          	addi	x2,x2,32
    a400:	00008067          	jalr	x0,0(x1)

0000a404 <_setlocale_r>:
    a404:	04060063          	beq	x12,x0,a444 <_setlocale_r+0x40>
    a408:	ff010113          	addi	x2,x2,-16
    a40c:	00007597          	auipc	x11,0x7
    a410:	6f058593          	addi	x11,x11,1776 # 11afc <__clzsi2+0x380>
    a414:	00060513          	addi	x10,x12,0
    a418:	00812423          	sw	x8,8(x2)
    a41c:	00112623          	sw	x1,12(x2)
    a420:	00060413          	addi	x8,x12,0
    a424:	0e0000ef          	jal	x1,a504 <strcmp>
    a428:	02051463          	bne	x10,x0,a450 <_setlocale_r+0x4c>
    a42c:	00007517          	auipc	x10,0x7
    a430:	6cc50513          	addi	x10,x10,1740 # 11af8 <__clzsi2+0x37c>
    a434:	00c12083          	lw	x1,12(x2)
    a438:	00812403          	lw	x8,8(x2)
    a43c:	01010113          	addi	x2,x2,16
    a440:	00008067          	jalr	x0,0(x1)
    a444:	00007517          	auipc	x10,0x7
    a448:	6b450513          	addi	x10,x10,1716 # 11af8 <__clzsi2+0x37c>
    a44c:	00008067          	jalr	x0,0(x1)
    a450:	00007597          	auipc	x11,0x7
    a454:	6a858593          	addi	x11,x11,1704 # 11af8 <__clzsi2+0x37c>
    a458:	00040513          	addi	x10,x8,0
    a45c:	0a8000ef          	jal	x1,a504 <strcmp>
    a460:	fc0506e3          	beq	x10,x0,a42c <_setlocale_r+0x28>
    a464:	00007597          	auipc	x11,0x7
    a468:	49858593          	addi	x11,x11,1176 # 118fc <__clzsi2+0x180>
    a46c:	00040513          	addi	x10,x8,0
    a470:	094000ef          	jal	x1,a504 <strcmp>
    a474:	fa050ce3          	beq	x10,x0,a42c <_setlocale_r+0x28>
    a478:	00000513          	addi	x10,x0,0
    a47c:	fb9ff06f          	jal	x0,a434 <_setlocale_r+0x30>

0000a480 <__locale_mb_cur_max>:
    a480:	e5c1c503          	lbu	x10,-420(x3) # 12b0c <__global_locale+0x128>
    a484:	00008067          	jalr	x0,0(x1)

0000a488 <setlocale>:
    a488:	04058063          	beq	x11,x0,a4c8 <setlocale+0x40>
    a48c:	ff010113          	addi	x2,x2,-16
    a490:	00812423          	sw	x8,8(x2)
    a494:	00058413          	addi	x8,x11,0
    a498:	00040513          	addi	x10,x8,0
    a49c:	00007597          	auipc	x11,0x7
    a4a0:	66058593          	addi	x11,x11,1632 # 11afc <__clzsi2+0x380>
    a4a4:	00112623          	sw	x1,12(x2)
    a4a8:	05c000ef          	jal	x1,a504 <strcmp>
    a4ac:	02051463          	bne	x10,x0,a4d4 <setlocale+0x4c>
    a4b0:	00007517          	auipc	x10,0x7
    a4b4:	64850513          	addi	x10,x10,1608 # 11af8 <__clzsi2+0x37c>
    a4b8:	00c12083          	lw	x1,12(x2)
    a4bc:	00812403          	lw	x8,8(x2)
    a4c0:	01010113          	addi	x2,x2,16
    a4c4:	00008067          	jalr	x0,0(x1)
    a4c8:	00007517          	auipc	x10,0x7
    a4cc:	63050513          	addi	x10,x10,1584 # 11af8 <__clzsi2+0x37c>
    a4d0:	00008067          	jalr	x0,0(x1)
    a4d4:	00007597          	auipc	x11,0x7
    a4d8:	62458593          	addi	x11,x11,1572 # 11af8 <__clzsi2+0x37c>
    a4dc:	00040513          	addi	x10,x8,0
    a4e0:	024000ef          	jal	x1,a504 <strcmp>
    a4e4:	fc0506e3          	beq	x10,x0,a4b0 <setlocale+0x28>
    a4e8:	00007597          	auipc	x11,0x7
    a4ec:	41458593          	addi	x11,x11,1044 # 118fc <__clzsi2+0x180>
    a4f0:	00040513          	addi	x10,x8,0
    a4f4:	010000ef          	jal	x1,a504 <strcmp>
    a4f8:	fa050ce3          	beq	x10,x0,a4b0 <setlocale+0x28>
    a4fc:	00000513          	addi	x10,x0,0
    a500:	fb9ff06f          	jal	x0,a4b8 <setlocale+0x30>

0000a504 <strcmp>:
    a504:	00b56733          	or	x14,x10,x11
    a508:	fff00393          	addi	x7,x0,-1
    a50c:	00377713          	andi	x14,x14,3
    a510:	10071063          	bne	x14,x0,a610 <strcmp+0x10c>
    a514:	7f7f87b7          	lui	x15,0x7f7f8
    a518:	f7f78793          	addi	x15,x15,-129 # 7f7f7f7f <__heap_end+0x7f3f7f7f>
    a51c:	00052603          	lw	x12,0(x10)
    a520:	0005a683          	lw	x13,0(x11)
    a524:	00f672b3          	and	x5,x12,x15
    a528:	00f66333          	or	x6,x12,x15
    a52c:	00f282b3          	add	x5,x5,x15
    a530:	0062e2b3          	or	x5,x5,x6
    a534:	10729263          	bne	x5,x7,a638 <strcmp+0x134>
    a538:	08d61663          	bne	x12,x13,a5c4 <strcmp+0xc0>
    a53c:	00452603          	lw	x12,4(x10)
    a540:	0045a683          	lw	x13,4(x11)
    a544:	00f672b3          	and	x5,x12,x15
    a548:	00f66333          	or	x6,x12,x15
    a54c:	00f282b3          	add	x5,x5,x15
    a550:	0062e2b3          	or	x5,x5,x6
    a554:	0c729e63          	bne	x5,x7,a630 <strcmp+0x12c>
    a558:	06d61663          	bne	x12,x13,a5c4 <strcmp+0xc0>
    a55c:	00852603          	lw	x12,8(x10)
    a560:	0085a683          	lw	x13,8(x11)
    a564:	00f672b3          	and	x5,x12,x15
    a568:	00f66333          	or	x6,x12,x15
    a56c:	00f282b3          	add	x5,x5,x15
    a570:	0062e2b3          	or	x5,x5,x6
    a574:	0c729863          	bne	x5,x7,a644 <strcmp+0x140>
    a578:	04d61663          	bne	x12,x13,a5c4 <strcmp+0xc0>
    a57c:	00c52603          	lw	x12,12(x10)
    a580:	00c5a683          	lw	x13,12(x11)
    a584:	00f672b3          	and	x5,x12,x15
    a588:	00f66333          	or	x6,x12,x15
    a58c:	00f282b3          	add	x5,x5,x15
    a590:	0062e2b3          	or	x5,x5,x6
    a594:	0c729263          	bne	x5,x7,a658 <strcmp+0x154>
    a598:	02d61663          	bne	x12,x13,a5c4 <strcmp+0xc0>
    a59c:	01052603          	lw	x12,16(x10)
    a5a0:	0105a683          	lw	x13,16(x11)
    a5a4:	00f672b3          	and	x5,x12,x15
    a5a8:	00f66333          	or	x6,x12,x15
    a5ac:	00f282b3          	add	x5,x5,x15
    a5b0:	0062e2b3          	or	x5,x5,x6
    a5b4:	0a729c63          	bne	x5,x7,a66c <strcmp+0x168>
    a5b8:	01450513          	addi	x10,x10,20
    a5bc:	01458593          	addi	x11,x11,20
    a5c0:	f4d60ee3          	beq	x12,x13,a51c <strcmp+0x18>
    a5c4:	01061713          	slli	x14,x12,0x10
    a5c8:	01069793          	slli	x15,x13,0x10
    a5cc:	00f71e63          	bne	x14,x15,a5e8 <strcmp+0xe4>
    a5d0:	01065713          	srli	x14,x12,0x10
    a5d4:	0106d793          	srli	x15,x13,0x10
    a5d8:	40f70533          	sub	x10,x14,x15
    a5dc:	0ff57593          	andi	x11,x10,255
    a5e0:	02059063          	bne	x11,x0,a600 <strcmp+0xfc>
    a5e4:	00008067          	jalr	x0,0(x1)
    a5e8:	01075713          	srli	x14,x14,0x10
    a5ec:	0107d793          	srli	x15,x15,0x10
    a5f0:	40f70533          	sub	x10,x14,x15
    a5f4:	0ff57593          	andi	x11,x10,255
    a5f8:	00059463          	bne	x11,x0,a600 <strcmp+0xfc>
    a5fc:	00008067          	jalr	x0,0(x1)
    a600:	0ff77713          	andi	x14,x14,255
    a604:	0ff7f793          	andi	x15,x15,255
    a608:	40f70533          	sub	x10,x14,x15
    a60c:	00008067          	jalr	x0,0(x1)
    a610:	00054603          	lbu	x12,0(x10)
    a614:	0005c683          	lbu	x13,0(x11)
    a618:	00150513          	addi	x10,x10,1
    a61c:	00158593          	addi	x11,x11,1
    a620:	00d61463          	bne	x12,x13,a628 <strcmp+0x124>
    a624:	fe0616e3          	bne	x12,x0,a610 <strcmp+0x10c>
    a628:	40d60533          	sub	x10,x12,x13
    a62c:	00008067          	jalr	x0,0(x1)
    a630:	00450513          	addi	x10,x10,4
    a634:	00458593          	addi	x11,x11,4
    a638:	fcd61ce3          	bne	x12,x13,a610 <strcmp+0x10c>
    a63c:	00000513          	addi	x10,x0,0
    a640:	00008067          	jalr	x0,0(x1)
    a644:	00850513          	addi	x10,x10,8
    a648:	00858593          	addi	x11,x11,8
    a64c:	fcd612e3          	bne	x12,x13,a610 <strcmp+0x10c>
    a650:	00000513          	addi	x10,x0,0
    a654:	00008067          	jalr	x0,0(x1)
    a658:	00c50513          	addi	x10,x10,12
    a65c:	00c58593          	addi	x11,x11,12
    a660:	fad618e3          	bne	x12,x13,a610 <strcmp+0x10c>
    a664:	00000513          	addi	x10,x0,0
    a668:	00008067          	jalr	x0,0(x1)
    a66c:	01050513          	addi	x10,x10,16
    a670:	01058593          	addi	x11,x11,16
    a674:	f8d61ee3          	bne	x12,x13,a610 <strcmp+0x10c>
    a678:	00000513          	addi	x10,x0,0
    a67c:	00008067          	jalr	x0,0(x1)

0000a680 <_Balloc>:
    a680:	04452783          	lw	x15,68(x10)
    a684:	ff010113          	addi	x2,x2,-16
    a688:	00812423          	sw	x8,8(x2)
    a68c:	00912223          	sw	x9,4(x2)
    a690:	00112623          	sw	x1,12(x2)
    a694:	00050413          	addi	x8,x10,0
    a698:	00058493          	addi	x9,x11,0
    a69c:	02078c63          	beq	x15,x0,a6d4 <_Balloc+0x54>
    a6a0:	00249713          	slli	x14,x9,0x2
    a6a4:	00e787b3          	add	x15,x15,x14
    a6a8:	0007a503          	lw	x10,0(x15)
    a6ac:	04050463          	beq	x10,x0,a6f4 <_Balloc+0x74>
    a6b0:	00052703          	lw	x14,0(x10)
    a6b4:	00e7a023          	sw	x14,0(x15)
    a6b8:	00052823          	sw	x0,16(x10)
    a6bc:	00052623          	sw	x0,12(x10)
    a6c0:	00c12083          	lw	x1,12(x2)
    a6c4:	00812403          	lw	x8,8(x2)
    a6c8:	00412483          	lw	x9,4(x2)
    a6cc:	01010113          	addi	x2,x2,16
    a6d0:	00008067          	jalr	x0,0(x1)
    a6d4:	02100613          	addi	x12,x0,33
    a6d8:	00400593          	addi	x11,x0,4
    a6dc:	21c010ef          	jal	x1,b8f8 <_calloc_r>
    a6e0:	04a42223          	sw	x10,68(x8)
    a6e4:	00050793          	addi	x15,x10,0
    a6e8:	fa051ce3          	bne	x10,x0,a6a0 <_Balloc+0x20>
    a6ec:	00000513          	addi	x10,x0,0
    a6f0:	fd1ff06f          	jal	x0,a6c0 <_Balloc+0x40>
    a6f4:	01212023          	sw	x18,0(x2)
    a6f8:	00100913          	addi	x18,x0,1
    a6fc:	00991933          	sll	x18,x18,x9
    a700:	00590613          	addi	x12,x18,5
    a704:	00261613          	slli	x12,x12,0x2
    a708:	00100593          	addi	x11,x0,1
    a70c:	00040513          	addi	x10,x8,0
    a710:	1e8010ef          	jal	x1,b8f8 <_calloc_r>
    a714:	00050a63          	beq	x10,x0,a728 <_Balloc+0xa8>
    a718:	01252423          	sw	x18,8(x10)
    a71c:	00952223          	sw	x9,4(x10)
    a720:	00012903          	lw	x18,0(x2)
    a724:	f95ff06f          	jal	x0,a6b8 <_Balloc+0x38>
    a728:	00012903          	lw	x18,0(x2)
    a72c:	00000513          	addi	x10,x0,0
    a730:	f91ff06f          	jal	x0,a6c0 <_Balloc+0x40>

0000a734 <_Bfree>:
    a734:	02058063          	beq	x11,x0,a754 <_Bfree+0x20>
    a738:	0045a703          	lw	x14,4(x11)
    a73c:	04452783          	lw	x15,68(x10)
    a740:	00271713          	slli	x14,x14,0x2
    a744:	00e787b3          	add	x15,x15,x14
    a748:	0007a703          	lw	x14,0(x15)
    a74c:	00e5a023          	sw	x14,0(x11)
    a750:	00b7a023          	sw	x11,0(x15)
    a754:	00008067          	jalr	x0,0(x1)

0000a758 <__multadd>:
    a758:	fe010113          	addi	x2,x2,-32
    a75c:	00912a23          	sw	x9,20(x2)
    a760:	0105a483          	lw	x9,16(x11)
    a764:	00812c23          	sw	x8,24(x2)
    a768:	01212823          	sw	x18,16(x2)
    a76c:	01312623          	sw	x19,12(x2)
    a770:	00112e23          	sw	x1,28(x2)
    a774:	00058913          	addi	x18,x11,0
    a778:	00050993          	addi	x19,x10,0
    a77c:	00068413          	addi	x8,x13,0
    a780:	01458813          	addi	x16,x11,20
    a784:	00000893          	addi	x17,x0,0
    a788:	00082783          	lw	x15,0(x16)
    a78c:	00480813          	addi	x16,x16,4
    a790:	00188893          	addi	x17,x17,1
    a794:	01079713          	slli	x14,x15,0x10
    a798:	01075713          	srli	x14,x14,0x10
    a79c:	02c70733          	mul	x14,x14,x12
    a7a0:	0107d693          	srli	x13,x15,0x10
    a7a4:	02c686b3          	mul	x13,x13,x12
    a7a8:	008707b3          	add	x15,x14,x8
    a7ac:	0107d713          	srli	x14,x15,0x10
    a7b0:	01079793          	slli	x15,x15,0x10
    a7b4:	0107d793          	srli	x15,x15,0x10
    a7b8:	00e686b3          	add	x13,x13,x14
    a7bc:	01069713          	slli	x14,x13,0x10
    a7c0:	00f707b3          	add	x15,x14,x15
    a7c4:	fef82e23          	sw	x15,-4(x16)
    a7c8:	0106d413          	srli	x8,x13,0x10
    a7cc:	fa98cee3          	blt	x17,x9,a788 <__multadd+0x30>
    a7d0:	02040263          	beq	x8,x0,a7f4 <__multadd+0x9c>
    a7d4:	00892783          	lw	x15,8(x18)
    a7d8:	02f4de63          	bge	x9,x15,a814 <__multadd+0xbc>
    a7dc:	00448713          	addi	x14,x9,4
    a7e0:	00271713          	slli	x14,x14,0x2
    a7e4:	00e90733          	add	x14,x18,x14
    a7e8:	00872223          	sw	x8,4(x14)
    a7ec:	00148793          	addi	x15,x9,1
    a7f0:	00f92823          	sw	x15,16(x18)
    a7f4:	01c12083          	lw	x1,28(x2)
    a7f8:	01812403          	lw	x8,24(x2)
    a7fc:	01412483          	lw	x9,20(x2)
    a800:	00c12983          	lw	x19,12(x2)
    a804:	00090513          	addi	x10,x18,0
    a808:	01012903          	lw	x18,16(x2)
    a80c:	02010113          	addi	x2,x2,32
    a810:	00008067          	jalr	x0,0(x1)
    a814:	00492583          	lw	x11,4(x18)
    a818:	00098513          	addi	x10,x19,0
    a81c:	01412423          	sw	x20,8(x2)
    a820:	00158593          	addi	x11,x11,1
    a824:	e5dff0ef          	jal	x1,a680 <_Balloc>
    a828:	00050a13          	addi	x20,x10,0
    a82c:	04050e63          	beq	x10,x0,a888 <__multadd+0x130>
    a830:	01092603          	lw	x12,16(x18)
    a834:	00c90593          	addi	x11,x18,12
    a838:	00c50513          	addi	x10,x10,12
    a83c:	00260613          	addi	x12,x12,2
    a840:	00261613          	slli	x12,x12,0x2
    a844:	c75fb0ef          	jal	x1,64b8 <memcpy>
    a848:	00492703          	lw	x14,4(x18)
    a84c:	0449a783          	lw	x15,68(x19)
    a850:	00271713          	slli	x14,x14,0x2
    a854:	00e787b3          	add	x15,x15,x14
    a858:	0007a703          	lw	x14,0(x15)
    a85c:	00e92023          	sw	x14,0(x18)
    a860:	00448713          	addi	x14,x9,4
    a864:	0127a023          	sw	x18,0(x15)
    a868:	00271713          	slli	x14,x14,0x2
    a86c:	000a0913          	addi	x18,x20,0
    a870:	00e90733          	add	x14,x18,x14
    a874:	00812a03          	lw	x20,8(x2)
    a878:	00148793          	addi	x15,x9,1
    a87c:	00872223          	sw	x8,4(x14)
    a880:	00f92823          	sw	x15,16(x18)
    a884:	f71ff06f          	jal	x0,a7f4 <__multadd+0x9c>
    a888:	00007697          	auipc	x13,0x7
    a88c:	28068693          	addi	x13,x13,640 # 11b08 <__clzsi2+0x38c>
    a890:	00000613          	addi	x12,x0,0
    a894:	0ba00593          	addi	x11,x0,186
    a898:	00007517          	auipc	x10,0x7
    a89c:	28450513          	addi	x10,x10,644 # 11b1c <__clzsi2+0x3a0>
    a8a0:	1f0010ef          	jal	x1,ba90 <__assert_func>

0000a8a4 <__s2b>:
    a8a4:	fe010113          	addi	x2,x2,-32
    a8a8:	00812c23          	sw	x8,24(x2)
    a8ac:	00912a23          	sw	x9,20(x2)
    a8b0:	01212823          	sw	x18,16(x2)
    a8b4:	01312623          	sw	x19,12(x2)
    a8b8:	01412423          	sw	x20,8(x2)
    a8bc:	00068993          	addi	x19,x13,0
    a8c0:	00900793          	addi	x15,x0,9
    a8c4:	00868693          	addi	x13,x13,8
    a8c8:	00112e23          	sw	x1,28(x2)
    a8cc:	02f6c6b3          	div	x13,x13,x15
    a8d0:	00050913          	addi	x18,x10,0
    a8d4:	00058413          	addi	x8,x11,0
    a8d8:	00060a13          	addi	x20,x12,0
    a8dc:	00070493          	addi	x9,x14,0
    a8e0:	0d37da63          	bge	x15,x19,a9b4 <__s2b+0x110>
    a8e4:	00100793          	addi	x15,x0,1
    a8e8:	00000593          	addi	x11,x0,0
    a8ec:	00179793          	slli	x15,x15,0x1
    a8f0:	00158593          	addi	x11,x11,1
    a8f4:	fed7cce3          	blt	x15,x13,a8ec <__s2b+0x48>
    a8f8:	00090513          	addi	x10,x18,0
    a8fc:	d85ff0ef          	jal	x1,a680 <_Balloc>
    a900:	00050593          	addi	x11,x10,0
    a904:	0a050c63          	beq	x10,x0,a9bc <__s2b+0x118>
    a908:	00100793          	addi	x15,x0,1
    a90c:	00f52823          	sw	x15,16(x10)
    a910:	00952a23          	sw	x9,20(x10)
    a914:	00900793          	addi	x15,x0,9
    a918:	0947d863          	bge	x15,x20,a9a8 <__s2b+0x104>
    a91c:	01512223          	sw	x21,4(x2)
    a920:	00940a93          	addi	x21,x8,9
    a924:	000a8493          	addi	x9,x21,0
    a928:	01440433          	add	x8,x8,x20
    a92c:	0004c683          	lbu	x13,0(x9)
    a930:	00a00613          	addi	x12,x0,10
    a934:	00090513          	addi	x10,x18,0
    a938:	fd068693          	addi	x13,x13,-48
    a93c:	e1dff0ef          	jal	x1,a758 <__multadd>
    a940:	00148493          	addi	x9,x9,1
    a944:	00050593          	addi	x11,x10,0
    a948:	fe8492e3          	bne	x9,x8,a92c <__s2b+0x88>
    a94c:	ff8a0413          	addi	x8,x20,-8
    a950:	008a8433          	add	x8,x21,x8
    a954:	00412a83          	lw	x21,4(x2)
    a958:	033a5663          	bge	x20,x19,a984 <__s2b+0xe0>
    a95c:	414989b3          	sub	x19,x19,x20
    a960:	013409b3          	add	x19,x8,x19
    a964:	00044683          	lbu	x13,0(x8)
    a968:	00a00613          	addi	x12,x0,10
    a96c:	00090513          	addi	x10,x18,0
    a970:	fd068693          	addi	x13,x13,-48
    a974:	de5ff0ef          	jal	x1,a758 <__multadd>
    a978:	00140413          	addi	x8,x8,1
    a97c:	00050593          	addi	x11,x10,0
    a980:	ff3412e3          	bne	x8,x19,a964 <__s2b+0xc0>
    a984:	01c12083          	lw	x1,28(x2)
    a988:	01812403          	lw	x8,24(x2)
    a98c:	01412483          	lw	x9,20(x2)
    a990:	01012903          	lw	x18,16(x2)
    a994:	00c12983          	lw	x19,12(x2)
    a998:	00812a03          	lw	x20,8(x2)
    a99c:	00058513          	addi	x10,x11,0
    a9a0:	02010113          	addi	x2,x2,32
    a9a4:	00008067          	jalr	x0,0(x1)
    a9a8:	00a40413          	addi	x8,x8,10
    a9ac:	00900a13          	addi	x20,x0,9
    a9b0:	fa9ff06f          	jal	x0,a958 <__s2b+0xb4>
    a9b4:	00000593          	addi	x11,x0,0
    a9b8:	f41ff06f          	jal	x0,a8f8 <__s2b+0x54>
    a9bc:	00007697          	auipc	x13,0x7
    a9c0:	14c68693          	addi	x13,x13,332 # 11b08 <__clzsi2+0x38c>
    a9c4:	00000613          	addi	x12,x0,0
    a9c8:	0d300593          	addi	x11,x0,211
    a9cc:	00007517          	auipc	x10,0x7
    a9d0:	15050513          	addi	x10,x10,336 # 11b1c <__clzsi2+0x3a0>
    a9d4:	01512223          	sw	x21,4(x2)
    a9d8:	0b8010ef          	jal	x1,ba90 <__assert_func>

0000a9dc <__hi0bits>:
    a9dc:	00050793          	addi	x15,x10,0
    a9e0:	00010737          	lui	x14,0x10
    a9e4:	00000513          	addi	x10,x0,0
    a9e8:	00e7f663          	bgeu	x15,x14,a9f4 <__hi0bits+0x18>
    a9ec:	01079793          	slli	x15,x15,0x10
    a9f0:	01000513          	addi	x10,x0,16
    a9f4:	01000737          	lui	x14,0x1000
    a9f8:	00e7f663          	bgeu	x15,x14,aa04 <__hi0bits+0x28>
    a9fc:	00850513          	addi	x10,x10,8
    aa00:	00879793          	slli	x15,x15,0x8
    aa04:	10000737          	lui	x14,0x10000
    aa08:	00e7f663          	bgeu	x15,x14,aa14 <__hi0bits+0x38>
    aa0c:	00450513          	addi	x10,x10,4
    aa10:	00479793          	slli	x15,x15,0x4
    aa14:	40000737          	lui	x14,0x40000
    aa18:	00e7ea63          	bltu	x15,x14,aa2c <__hi0bits+0x50>
    aa1c:	fff7c793          	xori	x15,x15,-1
    aa20:	01f7d793          	srli	x15,x15,0x1f
    aa24:	00f50533          	add	x10,x10,x15
    aa28:	00008067          	jalr	x0,0(x1)
    aa2c:	00279793          	slli	x15,x15,0x2
    aa30:	0007ca63          	blt	x15,x0,aa44 <__hi0bits+0x68>
    aa34:	00179713          	slli	x14,x15,0x1
    aa38:	00075a63          	bge	x14,x0,aa4c <__hi0bits+0x70>
    aa3c:	00350513          	addi	x10,x10,3
    aa40:	00008067          	jalr	x0,0(x1)
    aa44:	00250513          	addi	x10,x10,2
    aa48:	00008067          	jalr	x0,0(x1)
    aa4c:	02000513          	addi	x10,x0,32
    aa50:	00008067          	jalr	x0,0(x1)

0000aa54 <__lo0bits>:
    aa54:	00052783          	lw	x15,0(x10)
    aa58:	00050713          	addi	x14,x10,0
    aa5c:	0077f693          	andi	x13,x15,7
    aa60:	02068463          	beq	x13,x0,aa88 <__lo0bits+0x34>
    aa64:	0017f693          	andi	x13,x15,1
    aa68:	00000513          	addi	x10,x0,0
    aa6c:	04069e63          	bne	x13,x0,aac8 <__lo0bits+0x74>
    aa70:	0027f693          	andi	x13,x15,2
    aa74:	0a068863          	beq	x13,x0,ab24 <__lo0bits+0xd0>
    aa78:	0017d793          	srli	x15,x15,0x1
    aa7c:	00f72023          	sw	x15,0(x14) # 40000000 <__heap_end+0x3fc00000>
    aa80:	00100513          	addi	x10,x0,1
    aa84:	00008067          	jalr	x0,0(x1)
    aa88:	01079693          	slli	x13,x15,0x10
    aa8c:	0106d693          	srli	x13,x13,0x10
    aa90:	00000513          	addi	x10,x0,0
    aa94:	06068e63          	beq	x13,x0,ab10 <__lo0bits+0xbc>
    aa98:	0ff7f693          	andi	x13,x15,255
    aa9c:	06068063          	beq	x13,x0,aafc <__lo0bits+0xa8>
    aaa0:	00f7f693          	andi	x13,x15,15
    aaa4:	04068263          	beq	x13,x0,aae8 <__lo0bits+0x94>
    aaa8:	0037f693          	andi	x13,x15,3
    aaac:	02068463          	beq	x13,x0,aad4 <__lo0bits+0x80>
    aab0:	0017f693          	andi	x13,x15,1
    aab4:	00069c63          	bne	x13,x0,aacc <__lo0bits+0x78>
    aab8:	0017d793          	srli	x15,x15,0x1
    aabc:	00150513          	addi	x10,x10,1
    aac0:	00079663          	bne	x15,x0,aacc <__lo0bits+0x78>
    aac4:	02000513          	addi	x10,x0,32
    aac8:	00008067          	jalr	x0,0(x1)
    aacc:	00f72023          	sw	x15,0(x14)
    aad0:	00008067          	jalr	x0,0(x1)
    aad4:	0027d793          	srli	x15,x15,0x2
    aad8:	0017f693          	andi	x13,x15,1
    aadc:	00250513          	addi	x10,x10,2
    aae0:	fe0696e3          	bne	x13,x0,aacc <__lo0bits+0x78>
    aae4:	fd5ff06f          	jal	x0,aab8 <__lo0bits+0x64>
    aae8:	0047d793          	srli	x15,x15,0x4
    aaec:	0037f693          	andi	x13,x15,3
    aaf0:	00450513          	addi	x10,x10,4
    aaf4:	fa069ee3          	bne	x13,x0,aab0 <__lo0bits+0x5c>
    aaf8:	fddff06f          	jal	x0,aad4 <__lo0bits+0x80>
    aafc:	0087d793          	srli	x15,x15,0x8
    ab00:	00f7f693          	andi	x13,x15,15
    ab04:	00850513          	addi	x10,x10,8
    ab08:	fa0690e3          	bne	x13,x0,aaa8 <__lo0bits+0x54>
    ab0c:	fddff06f          	jal	x0,aae8 <__lo0bits+0x94>
    ab10:	0107d793          	srli	x15,x15,0x10
    ab14:	0ff7f693          	andi	x13,x15,255
    ab18:	01000513          	addi	x10,x0,16
    ab1c:	f80692e3          	bne	x13,x0,aaa0 <__lo0bits+0x4c>
    ab20:	fddff06f          	jal	x0,aafc <__lo0bits+0xa8>
    ab24:	0027d793          	srli	x15,x15,0x2
    ab28:	00f72023          	sw	x15,0(x14)
    ab2c:	00200513          	addi	x10,x0,2
    ab30:	00008067          	jalr	x0,0(x1)

0000ab34 <__i2b>:
    ab34:	04452783          	lw	x15,68(x10)
    ab38:	ff010113          	addi	x2,x2,-16
    ab3c:	00812423          	sw	x8,8(x2)
    ab40:	00912223          	sw	x9,4(x2)
    ab44:	00112623          	sw	x1,12(x2)
    ab48:	00050413          	addi	x8,x10,0
    ab4c:	00058493          	addi	x9,x11,0
    ab50:	02078c63          	beq	x15,x0,ab88 <__i2b+0x54>
    ab54:	0047a503          	lw	x10,4(x15)
    ab58:	06050263          	beq	x10,x0,abbc <__i2b+0x88>
    ab5c:	00052703          	lw	x14,0(x10)
    ab60:	00e7a223          	sw	x14,4(x15)
    ab64:	00c12083          	lw	x1,12(x2)
    ab68:	00812403          	lw	x8,8(x2)
    ab6c:	00100793          	addi	x15,x0,1
    ab70:	00952a23          	sw	x9,20(x10)
    ab74:	00052623          	sw	x0,12(x10)
    ab78:	00f52823          	sw	x15,16(x10)
    ab7c:	00412483          	lw	x9,4(x2)
    ab80:	01010113          	addi	x2,x2,16
    ab84:	00008067          	jalr	x0,0(x1)
    ab88:	02100613          	addi	x12,x0,33
    ab8c:	00400593          	addi	x11,x0,4
    ab90:	569000ef          	jal	x1,b8f8 <_calloc_r>
    ab94:	04a42223          	sw	x10,68(x8)
    ab98:	00050793          	addi	x15,x10,0
    ab9c:	fa051ce3          	bne	x10,x0,ab54 <__i2b+0x20>
    aba0:	00007697          	auipc	x13,0x7
    aba4:	f6868693          	addi	x13,x13,-152 # 11b08 <__clzsi2+0x38c>
    aba8:	00000613          	addi	x12,x0,0
    abac:	14500593          	addi	x11,x0,325
    abb0:	00007517          	auipc	x10,0x7
    abb4:	f6c50513          	addi	x10,x10,-148 # 11b1c <__clzsi2+0x3a0>
    abb8:	6d9000ef          	jal	x1,ba90 <__assert_func>
    abbc:	01c00613          	addi	x12,x0,28
    abc0:	00100593          	addi	x11,x0,1
    abc4:	00040513          	addi	x10,x8,0
    abc8:	531000ef          	jal	x1,b8f8 <_calloc_r>
    abcc:	fc050ae3          	beq	x10,x0,aba0 <__i2b+0x6c>
    abd0:	00100793          	addi	x15,x0,1
    abd4:	00f52223          	sw	x15,4(x10)
    abd8:	00200793          	addi	x15,x0,2
    abdc:	00f52423          	sw	x15,8(x10)
    abe0:	f85ff06f          	jal	x0,ab64 <__i2b+0x30>

0000abe4 <__multiply>:
    abe4:	fe010113          	addi	x2,x2,-32
    abe8:	01212823          	sw	x18,16(x2)
    abec:	01312623          	sw	x19,12(x2)
    abf0:	0105a903          	lw	x18,16(x11)
    abf4:	01062983          	lw	x19,16(x12)
    abf8:	00912a23          	sw	x9,20(x2)
    abfc:	01412423          	sw	x20,8(x2)
    ac00:	00112e23          	sw	x1,28(x2)
    ac04:	00812c23          	sw	x8,24(x2)
    ac08:	00058a13          	addi	x20,x11,0
    ac0c:	00060493          	addi	x9,x12,0
    ac10:	01394c63          	blt	x18,x19,ac28 <__multiply+0x44>
    ac14:	00098713          	addi	x14,x19,0
    ac18:	00058493          	addi	x9,x11,0
    ac1c:	00090993          	addi	x19,x18,0
    ac20:	00060a13          	addi	x20,x12,0
    ac24:	00070913          	addi	x18,x14,0
    ac28:	0084a783          	lw	x15,8(x9)
    ac2c:	0044a583          	lw	x11,4(x9)
    ac30:	01298433          	add	x8,x19,x18
    ac34:	0087a7b3          	slt	x15,x15,x8
    ac38:	00f585b3          	add	x11,x11,x15
    ac3c:	a45ff0ef          	jal	x1,a680 <_Balloc>
    ac40:	1c050863          	beq	x10,x0,ae10 <__multiply+0x22c>
    ac44:	01450893          	addi	x17,x10,20
    ac48:	00241813          	slli	x16,x8,0x2
    ac4c:	01088833          	add	x16,x17,x16
    ac50:	00088793          	addi	x15,x17,0
    ac54:	0108f863          	bgeu	x17,x16,ac64 <__multiply+0x80>
    ac58:	0007a023          	sw	x0,0(x15)
    ac5c:	00478793          	addi	x15,x15,4
    ac60:	ff07ece3          	bltu	x15,x16,ac58 <__multiply+0x74>
    ac64:	014a0593          	addi	x11,x20,20
    ac68:	00291313          	slli	x6,x18,0x2
    ac6c:	01448e13          	addi	x28,x9,20
    ac70:	00299693          	slli	x13,x19,0x2
    ac74:	00658333          	add	x6,x11,x6
    ac78:	00de06b3          	add	x13,x28,x13
    ac7c:	1465fa63          	bgeu	x11,x6,add0 <__multiply+0x1ec>
    ac80:	01548793          	addi	x15,x9,21
    ac84:	00400e93          	addi	x29,x0,4
    ac88:	02f6ec63          	bltu	x13,x15,acc0 <__multiply+0xdc>
    ac8c:	0005af03          	lw	x30,0(x11)
    ac90:	409687b3          	sub	x15,x13,x9
    ac94:	feb78793          	addi	x15,x15,-21
    ac98:	010f1293          	slli	x5,x30,0x10
    ac9c:	ffc7f793          	andi	x15,x15,-4
    aca0:	0102d293          	srli	x5,x5,0x10
    aca4:	00478e93          	addi	x29,x15,4
    aca8:	02029463          	bne	x5,x0,acd0 <__multiply+0xec>
    acac:	010f5f13          	srli	x30,x30,0x10
    acb0:	0a0f1063          	bne	x30,x0,ad50 <__multiply+0x16c>
    acb4:	00458593          	addi	x11,x11,4
    acb8:	00488893          	addi	x17,x17,4
    acbc:	1065fa63          	bgeu	x11,x6,add0 <__multiply+0x1ec>
    acc0:	0005af03          	lw	x30,0(x11)
    acc4:	010f1293          	slli	x5,x30,0x10
    acc8:	0102d293          	srli	x5,x5,0x10
    accc:	fe0280e3          	beq	x5,x0,acac <__multiply+0xc8>
    acd0:	00088f93          	addi	x31,x17,0
    acd4:	000e0f13          	addi	x30,x28,0
    acd8:	00000393          	addi	x7,x0,0
    acdc:	000f2783          	lw	x15,0(x30)
    ace0:	000fa603          	lw	x12,0(x31)
    ace4:	004f8f93          	addi	x31,x31,4
    ace8:	01079713          	slli	x14,x15,0x10
    acec:	01075713          	srli	x14,x14,0x10
    acf0:	02570733          	mul	x14,x14,x5
    acf4:	0107d793          	srli	x15,x15,0x10
    acf8:	01061493          	slli	x9,x12,0x10
    acfc:	0104d493          	srli	x9,x9,0x10
    ad00:	01065613          	srli	x12,x12,0x10
    ad04:	004f0f13          	addi	x30,x30,4
    ad08:	025787b3          	mul	x15,x15,x5
    ad0c:	00970733          	add	x14,x14,x9
    ad10:	00770733          	add	x14,x14,x7
    ad14:	01075393          	srli	x7,x14,0x10
    ad18:	01071713          	slli	x14,x14,0x10
    ad1c:	01075713          	srli	x14,x14,0x10
    ad20:	00c787b3          	add	x15,x15,x12
    ad24:	007787b3          	add	x15,x15,x7
    ad28:	01079613          	slli	x12,x15,0x10
    ad2c:	00e66733          	or	x14,x12,x14
    ad30:	feefae23          	sw	x14,-4(x31)
    ad34:	0107d393          	srli	x7,x15,0x10
    ad38:	fadf62e3          	bltu	x30,x13,acdc <__multiply+0xf8>
    ad3c:	01d887b3          	add	x15,x17,x29
    ad40:	0077a023          	sw	x7,0(x15)
    ad44:	0005af03          	lw	x30,0(x11)
    ad48:	010f5f13          	srli	x30,x30,0x10
    ad4c:	f60f04e3          	beq	x30,x0,acb4 <__multiply+0xd0>
    ad50:	0008a783          	lw	x15,0(x17)
    ad54:	00088f93          	addi	x31,x17,0
    ad58:	000e0613          	addi	x12,x28,0
    ad5c:	00078393          	addi	x7,x15,0
    ad60:	00000293          	addi	x5,x0,0
    ad64:	00065703          	lhu	x14,0(x12)
    ad68:	0103d913          	srli	x18,x7,0x10
    ad6c:	01079793          	slli	x15,x15,0x10
    ad70:	03e70733          	mul	x14,x14,x30
    ad74:	0107d793          	srli	x15,x15,0x10
    ad78:	004fa383          	lw	x7,4(x31)
    ad7c:	004f8f93          	addi	x31,x31,4
    ad80:	00460613          	addi	x12,x12,4
    ad84:	01039493          	slli	x9,x7,0x10
    ad88:	0104d493          	srli	x9,x9,0x10
    ad8c:	00570733          	add	x14,x14,x5
    ad90:	01270733          	add	x14,x14,x18
    ad94:	01071293          	slli	x5,x14,0x10
    ad98:	00f2e7b3          	or	x15,x5,x15
    ad9c:	feffae23          	sw	x15,-4(x31)
    ada0:	ffe65783          	lhu	x15,-2(x12)
    ada4:	01075713          	srli	x14,x14,0x10
    ada8:	03e787b3          	mul	x15,x15,x30
    adac:	009787b3          	add	x15,x15,x9
    adb0:	00e787b3          	add	x15,x15,x14
    adb4:	0107d293          	srli	x5,x15,0x10
    adb8:	fad666e3          	bltu	x12,x13,ad64 <__multiply+0x180>
    adbc:	01d88733          	add	x14,x17,x29
    adc0:	00f72023          	sw	x15,0(x14)
    adc4:	00458593          	addi	x11,x11,4
    adc8:	00488893          	addi	x17,x17,4
    adcc:	ee65eae3          	bltu	x11,x6,acc0 <__multiply+0xdc>
    add0:	00804863          	blt	x0,x8,ade0 <__multiply+0x1fc>
    add4:	0180006f          	jal	x0,adec <__multiply+0x208>
    add8:	fff40413          	addi	x8,x8,-1
    addc:	00040863          	beq	x8,x0,adec <__multiply+0x208>
    ade0:	ffc82783          	lw	x15,-4(x16)
    ade4:	ffc80813          	addi	x16,x16,-4
    ade8:	fe0788e3          	beq	x15,x0,add8 <__multiply+0x1f4>
    adec:	01c12083          	lw	x1,28(x2)
    adf0:	00852823          	sw	x8,16(x10)
    adf4:	01812403          	lw	x8,24(x2)
    adf8:	01412483          	lw	x9,20(x2)
    adfc:	01012903          	lw	x18,16(x2)
    ae00:	00c12983          	lw	x19,12(x2)
    ae04:	00812a03          	lw	x20,8(x2)
    ae08:	02010113          	addi	x2,x2,32
    ae0c:	00008067          	jalr	x0,0(x1)
    ae10:	00007697          	auipc	x13,0x7
    ae14:	cf868693          	addi	x13,x13,-776 # 11b08 <__clzsi2+0x38c>
    ae18:	00000613          	addi	x12,x0,0
    ae1c:	16200593          	addi	x11,x0,354
    ae20:	00007517          	auipc	x10,0x7
    ae24:	cfc50513          	addi	x10,x10,-772 # 11b1c <__clzsi2+0x3a0>
    ae28:	469000ef          	jal	x1,ba90 <__assert_func>

0000ae2c <__pow5mult>:
    ae2c:	fe010113          	addi	x2,x2,-32
    ae30:	00812c23          	sw	x8,24(x2)
    ae34:	01212823          	sw	x18,16(x2)
    ae38:	01312623          	sw	x19,12(x2)
    ae3c:	00112e23          	sw	x1,28(x2)
    ae40:	00367793          	andi	x15,x12,3
    ae44:	00060413          	addi	x8,x12,0
    ae48:	00050993          	addi	x19,x10,0
    ae4c:	00058913          	addi	x18,x11,0
    ae50:	0a079c63          	bne	x15,x0,af08 <__pow5mult+0xdc>
    ae54:	40245413          	srai	x8,x8,0x2
    ae58:	06040a63          	beq	x8,x0,aecc <__pow5mult+0xa0>
    ae5c:	00912a23          	sw	x9,20(x2)
    ae60:	0409a483          	lw	x9,64(x19)
    ae64:	0c048663          	beq	x9,x0,af30 <__pow5mult+0x104>
    ae68:	00147793          	andi	x15,x8,1
    ae6c:	02079063          	bne	x15,x0,ae8c <__pow5mult+0x60>
    ae70:	40145413          	srai	x8,x8,0x1
    ae74:	04040a63          	beq	x8,x0,aec8 <__pow5mult+0x9c>
    ae78:	0004a503          	lw	x10,0(x9)
    ae7c:	06050663          	beq	x10,x0,aee8 <__pow5mult+0xbc>
    ae80:	00050493          	addi	x9,x10,0
    ae84:	00147793          	andi	x15,x8,1
    ae88:	fe0784e3          	beq	x15,x0,ae70 <__pow5mult+0x44>
    ae8c:	00048613          	addi	x12,x9,0
    ae90:	00090593          	addi	x11,x18,0
    ae94:	00098513          	addi	x10,x19,0
    ae98:	d4dff0ef          	jal	x1,abe4 <__multiply>
    ae9c:	02090063          	beq	x18,x0,aebc <__pow5mult+0x90>
    aea0:	00492703          	lw	x14,4(x18)
    aea4:	0449a783          	lw	x15,68(x19)
    aea8:	00271713          	slli	x14,x14,0x2
    aeac:	00e787b3          	add	x15,x15,x14
    aeb0:	0007a703          	lw	x14,0(x15)
    aeb4:	00e92023          	sw	x14,0(x18)
    aeb8:	0127a023          	sw	x18,0(x15)
    aebc:	40145413          	srai	x8,x8,0x1
    aec0:	00050913          	addi	x18,x10,0
    aec4:	fa041ae3          	bne	x8,x0,ae78 <__pow5mult+0x4c>
    aec8:	01412483          	lw	x9,20(x2)
    aecc:	01c12083          	lw	x1,28(x2)
    aed0:	01812403          	lw	x8,24(x2)
    aed4:	00c12983          	lw	x19,12(x2)
    aed8:	00090513          	addi	x10,x18,0
    aedc:	01012903          	lw	x18,16(x2)
    aee0:	02010113          	addi	x2,x2,32
    aee4:	00008067          	jalr	x0,0(x1)
    aee8:	00048613          	addi	x12,x9,0
    aeec:	00048593          	addi	x11,x9,0
    aef0:	00098513          	addi	x10,x19,0
    aef4:	cf1ff0ef          	jal	x1,abe4 <__multiply>
    aef8:	00a4a023          	sw	x10,0(x9)
    aefc:	00052023          	sw	x0,0(x10)
    af00:	00050493          	addi	x9,x10,0
    af04:	f81ff06f          	jal	x0,ae84 <__pow5mult+0x58>
    af08:	fff78793          	addi	x15,x15,-1
    af0c:	00007717          	auipc	x14,0x7
    af10:	23470713          	addi	x14,x14,564 # 12140 <p05.0>
    af14:	00279793          	slli	x15,x15,0x2
    af18:	00f707b3          	add	x15,x14,x15
    af1c:	0007a603          	lw	x12,0(x15)
    af20:	00000693          	addi	x13,x0,0
    af24:	835ff0ef          	jal	x1,a758 <__multadd>
    af28:	00050913          	addi	x18,x10,0
    af2c:	f29ff06f          	jal	x0,ae54 <__pow5mult+0x28>
    af30:	00100593          	addi	x11,x0,1
    af34:	00098513          	addi	x10,x19,0
    af38:	f48ff0ef          	jal	x1,a680 <_Balloc>
    af3c:	00050493          	addi	x9,x10,0
    af40:	02050063          	beq	x10,x0,af60 <__pow5mult+0x134>
    af44:	27100793          	addi	x15,x0,625
    af48:	00f52a23          	sw	x15,20(x10)
    af4c:	00100793          	addi	x15,x0,1
    af50:	00f52823          	sw	x15,16(x10)
    af54:	04a9a023          	sw	x10,64(x19)
    af58:	00052023          	sw	x0,0(x10)
    af5c:	f0dff06f          	jal	x0,ae68 <__pow5mult+0x3c>
    af60:	00007697          	auipc	x13,0x7
    af64:	ba868693          	addi	x13,x13,-1112 # 11b08 <__clzsi2+0x38c>
    af68:	00000613          	addi	x12,x0,0
    af6c:	14500593          	addi	x11,x0,325
    af70:	00007517          	auipc	x10,0x7
    af74:	bac50513          	addi	x10,x10,-1108 # 11b1c <__clzsi2+0x3a0>
    af78:	319000ef          	jal	x1,ba90 <__assert_func>

0000af7c <__lshift>:
    af7c:	fe010113          	addi	x2,x2,-32
    af80:	01512223          	sw	x21,4(x2)
    af84:	0105aa83          	lw	x21,16(x11)
    af88:	0085a783          	lw	x15,8(x11)
    af8c:	01312623          	sw	x19,12(x2)
    af90:	40565993          	srai	x19,x12,0x5
    af94:	01598ab3          	add	x21,x19,x21
    af98:	00812c23          	sw	x8,24(x2)
    af9c:	00912a23          	sw	x9,20(x2)
    afa0:	01212823          	sw	x18,16(x2)
    afa4:	01412423          	sw	x20,8(x2)
    afa8:	00112e23          	sw	x1,28(x2)
    afac:	001a8913          	addi	x18,x21,1
    afb0:	00058493          	addi	x9,x11,0
    afb4:	00060413          	addi	x8,x12,0
    afb8:	0045a583          	lw	x11,4(x11)
    afbc:	00050a13          	addi	x20,x10,0
    afc0:	0127d863          	bge	x15,x18,afd0 <__lshift+0x54>
    afc4:	00179793          	slli	x15,x15,0x1
    afc8:	00158593          	addi	x11,x11,1
    afcc:	ff27cce3          	blt	x15,x18,afc4 <__lshift+0x48>
    afd0:	000a0513          	addi	x10,x20,0
    afd4:	eacff0ef          	jal	x1,a680 <_Balloc>
    afd8:	10050c63          	beq	x10,x0,b0f0 <__lshift+0x174>
    afdc:	01450813          	addi	x16,x10,20
    afe0:	03305463          	bge	x0,x19,b008 <__lshift+0x8c>
    afe4:	00598993          	addi	x19,x19,5
    afe8:	00299993          	slli	x19,x19,0x2
    afec:	01350733          	add	x14,x10,x19
    aff0:	00080793          	addi	x15,x16,0
    aff4:	00478793          	addi	x15,x15,4
    aff8:	fe07ae23          	sw	x0,-4(x15)
    affc:	fee79ce3          	bne	x15,x14,aff4 <__lshift+0x78>
    b000:	fec98993          	addi	x19,x19,-20
    b004:	01380833          	add	x16,x16,x19
    b008:	0104a883          	lw	x17,16(x9)
    b00c:	01448793          	addi	x15,x9,20
    b010:	01f47613          	andi	x12,x8,31
    b014:	00289893          	slli	x17,x17,0x2
    b018:	011788b3          	add	x17,x15,x17
    b01c:	0a060463          	beq	x12,x0,b0c4 <__lshift+0x148>
    b020:	02000593          	addi	x11,x0,32
    b024:	40c585b3          	sub	x11,x11,x12
    b028:	00080313          	addi	x6,x16,0
    b02c:	00000693          	addi	x13,x0,0
    b030:	0007a703          	lw	x14,0(x15)
    b034:	00430313          	addi	x6,x6,4
    b038:	00478793          	addi	x15,x15,4
    b03c:	00c71733          	sll	x14,x14,x12
    b040:	00d76733          	or	x14,x14,x13
    b044:	fee32e23          	sw	x14,-4(x6)
    b048:	ffc7a683          	lw	x13,-4(x15)
    b04c:	00b6d6b3          	srl	x13,x13,x11
    b050:	ff17e0e3          	bltu	x15,x17,b030 <__lshift+0xb4>
    b054:	01548793          	addi	x15,x9,21
    b058:	00400713          	addi	x14,x0,4
    b05c:	00f8ea63          	bltu	x17,x15,b070 <__lshift+0xf4>
    b060:	409887b3          	sub	x15,x17,x9
    b064:	feb78793          	addi	x15,x15,-21
    b068:	ffc7f793          	andi	x15,x15,-4
    b06c:	00478713          	addi	x14,x15,4
    b070:	00e80833          	add	x16,x16,x14
    b074:	00d82023          	sw	x13,0(x16)
    b078:	00069463          	bne	x13,x0,b080 <__lshift+0x104>
    b07c:	000a8913          	addi	x18,x21,0
    b080:	0044a703          	lw	x14,4(x9)
    b084:	044a2783          	lw	x15,68(x20)
    b088:	01c12083          	lw	x1,28(x2)
    b08c:	00271713          	slli	x14,x14,0x2
    b090:	00e787b3          	add	x15,x15,x14
    b094:	0007a703          	lw	x14,0(x15)
    b098:	01252823          	sw	x18,16(x10)
    b09c:	01812403          	lw	x8,24(x2)
    b0a0:	00e4a023          	sw	x14,0(x9)
    b0a4:	0097a023          	sw	x9,0(x15)
    b0a8:	01012903          	lw	x18,16(x2)
    b0ac:	01412483          	lw	x9,20(x2)
    b0b0:	00c12983          	lw	x19,12(x2)
    b0b4:	00812a03          	lw	x20,8(x2)
    b0b8:	00412a83          	lw	x21,4(x2)
    b0bc:	02010113          	addi	x2,x2,32
    b0c0:	00008067          	jalr	x0,0(x1)
    b0c4:	0007a703          	lw	x14,0(x15)
    b0c8:	00478793          	addi	x15,x15,4
    b0cc:	00480813          	addi	x16,x16,4
    b0d0:	fee82e23          	sw	x14,-4(x16)
    b0d4:	fb17f4e3          	bgeu	x15,x17,b07c <__lshift+0x100>
    b0d8:	0007a703          	lw	x14,0(x15)
    b0dc:	00478793          	addi	x15,x15,4
    b0e0:	00480813          	addi	x16,x16,4
    b0e4:	fee82e23          	sw	x14,-4(x16)
    b0e8:	fd17eee3          	bltu	x15,x17,b0c4 <__lshift+0x148>
    b0ec:	f91ff06f          	jal	x0,b07c <__lshift+0x100>
    b0f0:	00007697          	auipc	x13,0x7
    b0f4:	a1868693          	addi	x13,x13,-1512 # 11b08 <__clzsi2+0x38c>
    b0f8:	00000613          	addi	x12,x0,0
    b0fc:	1de00593          	addi	x11,x0,478
    b100:	00007517          	auipc	x10,0x7
    b104:	a1c50513          	addi	x10,x10,-1508 # 11b1c <__clzsi2+0x3a0>
    b108:	189000ef          	jal	x1,ba90 <__assert_func>

0000b10c <__mcmp>:
    b10c:	01052703          	lw	x14,16(x10)
    b110:	0105a783          	lw	x15,16(x11)
    b114:	00050813          	addi	x16,x10,0
    b118:	40f70533          	sub	x10,x14,x15
    b11c:	04f71263          	bne	x14,x15,b160 <__mcmp+0x54>
    b120:	00279793          	slli	x15,x15,0x2
    b124:	01480813          	addi	x16,x16,20
    b128:	01458593          	addi	x11,x11,20
    b12c:	00f80733          	add	x14,x16,x15
    b130:	00f587b3          	add	x15,x11,x15
    b134:	0080006f          	jal	x0,b13c <__mcmp+0x30>
    b138:	02e87463          	bgeu	x16,x14,b160 <__mcmp+0x54>
    b13c:	ffc72603          	lw	x12,-4(x14)
    b140:	ffc7a683          	lw	x13,-4(x15)
    b144:	ffc70713          	addi	x14,x14,-4
    b148:	ffc78793          	addi	x15,x15,-4
    b14c:	fed606e3          	beq	x12,x13,b138 <__mcmp+0x2c>
    b150:	00100513          	addi	x10,x0,1
    b154:	00d67663          	bgeu	x12,x13,b160 <__mcmp+0x54>
    b158:	fff00513          	addi	x10,x0,-1
    b15c:	00008067          	jalr	x0,0(x1)
    b160:	00008067          	jalr	x0,0(x1)

0000b164 <__mdiff>:
    b164:	0105a703          	lw	x14,16(x11)
    b168:	01062783          	lw	x15,16(x12)
    b16c:	ff010113          	addi	x2,x2,-16
    b170:	00812423          	sw	x8,8(x2)
    b174:	00912223          	sw	x9,4(x2)
    b178:	00112623          	sw	x1,12(x2)
    b17c:	01212023          	sw	x18,0(x2)
    b180:	00058413          	addi	x8,x11,0
    b184:	00060493          	addi	x9,x12,0
    b188:	40f706b3          	sub	x13,x14,x15
    b18c:	18f71863          	bne	x14,x15,b31c <__mdiff+0x1b8>
    b190:	00279693          	slli	x13,x15,0x2
    b194:	01458613          	addi	x12,x11,20
    b198:	01448713          	addi	x14,x9,20
    b19c:	00d607b3          	add	x15,x12,x13
    b1a0:	00d70733          	add	x14,x14,x13
    b1a4:	0080006f          	jal	x0,b1ac <__mdiff+0x48>
    b1a8:	18f67e63          	bgeu	x12,x15,b344 <__mdiff+0x1e0>
    b1ac:	ffc7a583          	lw	x11,-4(x15)
    b1b0:	ffc72683          	lw	x13,-4(x14)
    b1b4:	ffc78793          	addi	x15,x15,-4
    b1b8:	ffc70713          	addi	x14,x14,-4
    b1bc:	fed586e3          	beq	x11,x13,b1a8 <__mdiff+0x44>
    b1c0:	00100913          	addi	x18,x0,1
    b1c4:	16d5f063          	bgeu	x11,x13,b324 <__mdiff+0x1c0>
    b1c8:	0044a583          	lw	x11,4(x9)
    b1cc:	cb4ff0ef          	jal	x1,a680 <_Balloc>
    b1d0:	1c050063          	beq	x10,x0,b390 <__mdiff+0x22c>
    b1d4:	0104a883          	lw	x17,16(x9)
    b1d8:	01042f83          	lw	x31,16(x8)
    b1dc:	01448f13          	addi	x30,x9,20
    b1e0:	00289313          	slli	x6,x17,0x2
    b1e4:	01440813          	addi	x16,x8,20
    b1e8:	002f9f93          	slli	x31,x31,0x2
    b1ec:	01450593          	addi	x11,x10,20
    b1f0:	01252623          	sw	x18,12(x10)
    b1f4:	006f0333          	add	x6,x30,x6
    b1f8:	01f80fb3          	add	x31,x16,x31
    b1fc:	00058e93          	addi	x29,x11,0
    b200:	000f0e13          	addi	x28,x30,0
    b204:	00000693          	addi	x13,x0,0
    b208:	000e2703          	lw	x14,0(x28)
    b20c:	00082603          	lw	x12,0(x16)
    b210:	004e8e93          	addi	x29,x29,4
    b214:	01071793          	slli	x15,x14,0x10
    b218:	01061293          	slli	x5,x12,0x10
    b21c:	0107d793          	srli	x15,x15,0x10
    b220:	0102d293          	srli	x5,x5,0x10
    b224:	405787b3          	sub	x15,x15,x5
    b228:	00d787b3          	add	x15,x15,x13
    b22c:	01075713          	srli	x14,x14,0x10
    b230:	01065613          	srli	x12,x12,0x10
    b234:	4107d693          	srai	x13,x15,0x10
    b238:	40c70733          	sub	x14,x14,x12
    b23c:	00d70733          	add	x14,x14,x13
    b240:	01079793          	slli	x15,x15,0x10
    b244:	01071693          	slli	x13,x14,0x10
    b248:	0107d793          	srli	x15,x15,0x10
    b24c:	00d7e7b3          	or	x15,x15,x13
    b250:	00480813          	addi	x16,x16,4
    b254:	fefeae23          	sw	x15,-4(x29)
    b258:	004e0e13          	addi	x28,x28,4
    b25c:	41075693          	srai	x13,x14,0x10
    b260:	fbf864e3          	bltu	x16,x31,b208 <__mdiff+0xa4>
    b264:	01540713          	addi	x14,x8,21
    b268:	408f8433          	sub	x8,x31,x8
    b26c:	feb40413          	addi	x8,x8,-21
    b270:	00efbfb3          	sltu	x31,x31,x14
    b274:	001fce93          	xori	x29,x31,1
    b278:	00245413          	srli	x8,x8,0x2
    b27c:	00400713          	addi	x14,x0,4
    b280:	0a0f8c63          	beq	x31,x0,b338 <__mdiff+0x1d4>
    b284:	00ef0f33          	add	x30,x30,x14
    b288:	00e58833          	add	x16,x11,x14
    b28c:	00080e13          	addi	x28,x16,0
    b290:	000f0613          	addi	x12,x30,0
    b294:	0e6f7063          	bgeu	x30,x6,b374 <__mdiff+0x210>
    b298:	00062783          	lw	x15,0(x12)
    b29c:	004e0e13          	addi	x28,x28,4
    b2a0:	00460613          	addi	x12,x12,4
    b2a4:	01079713          	slli	x14,x15,0x10
    b2a8:	01075713          	srli	x14,x14,0x10
    b2ac:	00d70733          	add	x14,x14,x13
    b2b0:	0107d593          	srli	x11,x15,0x10
    b2b4:	41075713          	srai	x14,x14,0x10
    b2b8:	00d787b3          	add	x15,x15,x13
    b2bc:	00b70733          	add	x14,x14,x11
    b2c0:	01079793          	slli	x15,x15,0x10
    b2c4:	01071693          	slli	x13,x14,0x10
    b2c8:	0107d793          	srli	x15,x15,0x10
    b2cc:	00d7e7b3          	or	x15,x15,x13
    b2d0:	fefe2e23          	sw	x15,-4(x28)
    b2d4:	41075693          	srai	x13,x14,0x10
    b2d8:	fc6660e3          	bltu	x12,x6,b298 <__mdiff+0x134>
    b2dc:	fff30313          	addi	x6,x6,-1
    b2e0:	41e30333          	sub	x6,x6,x30
    b2e4:	ffc37313          	andi	x6,x6,-4
    b2e8:	00680733          	add	x14,x16,x6
    b2ec:	00079a63          	bne	x15,x0,b300 <__mdiff+0x19c>
    b2f0:	ffc72783          	lw	x15,-4(x14)
    b2f4:	fff88893          	addi	x17,x17,-1
    b2f8:	ffc70713          	addi	x14,x14,-4
    b2fc:	fe078ae3          	beq	x15,x0,b2f0 <__mdiff+0x18c>
    b300:	00c12083          	lw	x1,12(x2)
    b304:	00812403          	lw	x8,8(x2)
    b308:	01152823          	sw	x17,16(x10)
    b30c:	00412483          	lw	x9,4(x2)
    b310:	00012903          	lw	x18,0(x2)
    b314:	01010113          	addi	x2,x2,16
    b318:	00008067          	jalr	x0,0(x1)
    b31c:	00100913          	addi	x18,x0,1
    b320:	ea06c4e3          	blt	x13,x0,b1c8 <__mdiff+0x64>
    b324:	00048793          	addi	x15,x9,0
    b328:	00000913          	addi	x18,x0,0
    b32c:	00040493          	addi	x9,x8,0
    b330:	00078413          	addi	x8,x15,0
    b334:	e95ff06f          	jal	x0,b1c8 <__mdiff+0x64>
    b338:	00140713          	addi	x14,x8,1
    b33c:	00271713          	slli	x14,x14,0x2
    b340:	f45ff06f          	jal	x0,b284 <__mdiff+0x120>
    b344:	00000593          	addi	x11,x0,0
    b348:	b38ff0ef          	jal	x1,a680 <_Balloc>
    b34c:	06050063          	beq	x10,x0,b3ac <__mdiff+0x248>
    b350:	00c12083          	lw	x1,12(x2)
    b354:	00812403          	lw	x8,8(x2)
    b358:	00100793          	addi	x15,x0,1
    b35c:	00f52823          	sw	x15,16(x10)
    b360:	00052a23          	sw	x0,20(x10)
    b364:	00412483          	lw	x9,4(x2)
    b368:	00012903          	lw	x18,0(x2)
    b36c:	01010113          	addi	x2,x2,16
    b370:	00008067          	jalr	x0,0(x1)
    b374:	00000713          	addi	x14,x0,0
    b378:	000e9663          	bne	x29,x0,b384 <__mdiff+0x220>
    b37c:	00e58733          	add	x14,x11,x14
    b380:	f6dff06f          	jal	x0,b2ec <__mdiff+0x188>
    b384:	00241713          	slli	x14,x8,0x2
    b388:	00e58733          	add	x14,x11,x14
    b38c:	f61ff06f          	jal	x0,b2ec <__mdiff+0x188>
    b390:	00006697          	auipc	x13,0x6
    b394:	77868693          	addi	x13,x13,1912 # 11b08 <__clzsi2+0x38c>
    b398:	00000613          	addi	x12,x0,0
    b39c:	24500593          	addi	x11,x0,581
    b3a0:	00006517          	auipc	x10,0x6
    b3a4:	77c50513          	addi	x10,x10,1916 # 11b1c <__clzsi2+0x3a0>
    b3a8:	6e8000ef          	jal	x1,ba90 <__assert_func>
    b3ac:	00006697          	auipc	x13,0x6
    b3b0:	75c68693          	addi	x13,x13,1884 # 11b08 <__clzsi2+0x38c>
    b3b4:	00000613          	addi	x12,x0,0
    b3b8:	23700593          	addi	x11,x0,567
    b3bc:	00006517          	auipc	x10,0x6
    b3c0:	76050513          	addi	x10,x10,1888 # 11b1c <__clzsi2+0x3a0>
    b3c4:	6cc000ef          	jal	x1,ba90 <__assert_func>

0000b3c8 <__ulp>:
    b3c8:	7ff007b7          	lui	x15,0x7ff00
    b3cc:	00b7f5b3          	and	x11,x15,x11
    b3d0:	fcc007b7          	lui	x15,0xfcc00
    b3d4:	00f585b3          	add	x11,x11,x15
    b3d8:	00000793          	addi	x15,x0,0
    b3dc:	00b05663          	bge	x0,x11,b3e8 <__ulp+0x20>
    b3e0:	00078513          	addi	x10,x15,0 # fcc00000 <__heap_end+0xfc800000>
    b3e4:	00008067          	jalr	x0,0(x1)
    b3e8:	40b005b3          	sub	x11,x0,x11
    b3ec:	4145d593          	srai	x11,x11,0x14
    b3f0:	01300793          	addi	x15,x0,19
    b3f4:	00b7cc63          	blt	x15,x11,b40c <__ulp+0x44>
    b3f8:	000807b7          	lui	x15,0x80
    b3fc:	40b7d5b3          	sra	x11,x15,x11
    b400:	00000793          	addi	x15,x0,0
    b404:	00078513          	addi	x10,x15,0 # 80000 <__heap_start+0x6d130>
    b408:	00008067          	jalr	x0,0(x1)
    b40c:	fec58593          	addi	x11,x11,-20
    b410:	01e00713          	addi	x14,x0,30
    b414:	00100793          	addi	x15,x0,1
    b418:	00b74663          	blt	x14,x11,b424 <__ulp+0x5c>
    b41c:	800007b7          	lui	x15,0x80000
    b420:	00b7d7b3          	srl	x15,x15,x11
    b424:	00000593          	addi	x11,x0,0
    b428:	00078513          	addi	x10,x15,0 # 80000000 <__heap_end+0x7fc00000>
    b42c:	00008067          	jalr	x0,0(x1)

0000b430 <__b2d>:
    b430:	fe010113          	addi	x2,x2,-32
    b434:	00912a23          	sw	x9,20(x2)
    b438:	01052483          	lw	x9,16(x10)
    b43c:	00812c23          	sw	x8,24(x2)
    b440:	01450413          	addi	x8,x10,20
    b444:	00249493          	slli	x9,x9,0x2
    b448:	009404b3          	add	x9,x8,x9
    b44c:	01512223          	sw	x21,4(x2)
    b450:	ffc4aa83          	lw	x21,-4(x9)
    b454:	01412423          	sw	x20,8(x2)
    b458:	01612023          	sw	x22,0(x2)
    b45c:	000a8513          	addi	x10,x21,0
    b460:	00058a13          	addi	x20,x11,0
    b464:	00112e23          	sw	x1,28(x2)
    b468:	01212823          	sw	x18,16(x2)
    b46c:	01312623          	sw	x19,12(x2)
    b470:	d6cff0ef          	jal	x1,a9dc <__hi0bits>
    b474:	02000713          	addi	x14,x0,32
    b478:	40a707b3          	sub	x15,x14,x10
    b47c:	00fa2023          	sw	x15,0(x20)
    b480:	00a00793          	addi	x15,x0,10
    b484:	ffc48b13          	addi	x22,x9,-4
    b488:	0aa7d063          	bge	x15,x10,b528 <__b2d+0xf8>
    b48c:	ff550613          	addi	x12,x10,-11
    b490:	05647063          	bgeu	x8,x22,b4d0 <__b2d+0xa0>
    b494:	ff84a783          	lw	x15,-8(x9)
    b498:	04060c63          	beq	x12,x0,b4f0 <__b2d+0xc0>
    b49c:	40c706b3          	sub	x13,x14,x12
    b4a0:	00d7d5b3          	srl	x11,x15,x13
    b4a4:	00ca9733          	sll	x14,x21,x12
    b4a8:	00b76733          	or	x14,x14,x11
    b4ac:	3ff00537          	lui	x10,0x3ff00
    b4b0:	ff848593          	addi	x11,x9,-8
    b4b4:	00a76733          	or	x14,x14,x10
    b4b8:	00c797b3          	sll	x15,x15,x12
    b4bc:	02b47e63          	bgeu	x8,x11,b4f8 <__b2d+0xc8>
    b4c0:	ff44a603          	lw	x12,-12(x9)
    b4c4:	00d656b3          	srl	x13,x12,x13
    b4c8:	00d7e7b3          	or	x15,x15,x13
    b4cc:	02c0006f          	jal	x0,b4f8 <__b2d+0xc8>
    b4d0:	00b00793          	addi	x15,x0,11
    b4d4:	00f50c63          	beq	x10,x15,b4ec <__b2d+0xbc>
    b4d8:	00ca9633          	sll	x12,x21,x12
    b4dc:	3ff00737          	lui	x14,0x3ff00
    b4e0:	00e66733          	or	x14,x12,x14
    b4e4:	00000793          	addi	x15,x0,0
    b4e8:	0100006f          	jal	x0,b4f8 <__b2d+0xc8>
    b4ec:	00000793          	addi	x15,x0,0
    b4f0:	3ff00737          	lui	x14,0x3ff00
    b4f4:	00eae733          	or	x14,x21,x14
    b4f8:	01c12083          	lw	x1,28(x2)
    b4fc:	01812403          	lw	x8,24(x2)
    b500:	01412483          	lw	x9,20(x2)
    b504:	01012903          	lw	x18,16(x2)
    b508:	00c12983          	lw	x19,12(x2)
    b50c:	00812a03          	lw	x20,8(x2)
    b510:	00412a83          	lw	x21,4(x2)
    b514:	00012b03          	lw	x22,0(x2)
    b518:	00078513          	addi	x10,x15,0
    b51c:	00070593          	addi	x11,x14,0 # 3ff00000 <__heap_end+0x3fb00000>
    b520:	02010113          	addi	x2,x2,32
    b524:	00008067          	jalr	x0,0(x1)
    b528:	00b00793          	addi	x15,x0,11
    b52c:	40a787b3          	sub	x15,x15,x10
    b530:	3ff006b7          	lui	x13,0x3ff00
    b534:	00fad733          	srl	x14,x21,x15
    b538:	00d76733          	or	x14,x14,x13
    b53c:	00000693          	addi	x13,x0,0
    b540:	01647663          	bgeu	x8,x22,b54c <__b2d+0x11c>
    b544:	ff84a683          	lw	x13,-8(x9)
    b548:	00f6d6b3          	srl	x13,x13,x15
    b54c:	01550793          	addi	x15,x10,21 # 3ff00015 <__heap_end+0x3fb00015>
    b550:	00fa97b3          	sll	x15,x21,x15
    b554:	00d7e7b3          	or	x15,x15,x13
    b558:	fa1ff06f          	jal	x0,b4f8 <__b2d+0xc8>

0000b55c <__d2b>:
    b55c:	fd010113          	addi	x2,x2,-48
    b560:	01512a23          	sw	x21,20(x2)
    b564:	00058a93          	addi	x21,x11,0
    b568:	00100593          	addi	x11,x0,1
    b56c:	02912223          	sw	x9,36(x2)
    b570:	01312e23          	sw	x19,28(x2)
    b574:	01412c23          	sw	x20,24(x2)
    b578:	02112623          	sw	x1,44(x2)
    b57c:	02812423          	sw	x8,40(x2)
    b580:	03212023          	sw	x18,32(x2)
    b584:	00060493          	addi	x9,x12,0
    b588:	00068a13          	addi	x20,x13,0 # 3ff00000 <__heap_end+0x3fb00000>
    b58c:	00070993          	addi	x19,x14,0
    b590:	8f0ff0ef          	jal	x1,a680 <_Balloc>
    b594:	0e050e63          	beq	x10,x0,b690 <__d2b+0x134>
    b598:	00100737          	lui	x14,0x100
    b59c:	0144d913          	srli	x18,x9,0x14
    b5a0:	fff70793          	addi	x15,x14,-1 # fffff <__heap_start+0xed12f>
    b5a4:	7ff97913          	andi	x18,x18,2047
    b5a8:	00050413          	addi	x8,x10,0
    b5ac:	0097f7b3          	and	x15,x15,x9
    b5b0:	00090463          	beq	x18,x0,b5b8 <__d2b+0x5c>
    b5b4:	00e7e7b3          	or	x15,x15,x14
    b5b8:	00f12623          	sw	x15,12(x2)
    b5bc:	060a9263          	bne	x21,x0,b620 <__d2b+0xc4>
    b5c0:	00c10513          	addi	x10,x2,12
    b5c4:	c90ff0ef          	jal	x1,aa54 <__lo0bits>
    b5c8:	00c12703          	lw	x14,12(x2)
    b5cc:	00100493          	addi	x9,x0,1
    b5d0:	00942823          	sw	x9,16(x8)
    b5d4:	00e42a23          	sw	x14,20(x8)
    b5d8:	02050793          	addi	x15,x10,32
    b5dc:	08090863          	beq	x18,x0,b66c <__d2b+0x110>
    b5e0:	bcd90913          	addi	x18,x18,-1075
    b5e4:	00f90933          	add	x18,x18,x15
    b5e8:	03500493          	addi	x9,x0,53
    b5ec:	012a2023          	sw	x18,0(x20)
    b5f0:	40f48533          	sub	x10,x9,x15
    b5f4:	00a9a023          	sw	x10,0(x19)
    b5f8:	02c12083          	lw	x1,44(x2)
    b5fc:	00040513          	addi	x10,x8,0
    b600:	02812403          	lw	x8,40(x2)
    b604:	02412483          	lw	x9,36(x2)
    b608:	02012903          	lw	x18,32(x2)
    b60c:	01c12983          	lw	x19,28(x2)
    b610:	01812a03          	lw	x20,24(x2)
    b614:	01412a83          	lw	x21,20(x2)
    b618:	03010113          	addi	x2,x2,48
    b61c:	00008067          	jalr	x0,0(x1)
    b620:	00810513          	addi	x10,x2,8
    b624:	01512423          	sw	x21,8(x2)
    b628:	c2cff0ef          	jal	x1,aa54 <__lo0bits>
    b62c:	00c12703          	lw	x14,12(x2)
    b630:	00812683          	lw	x13,8(x2)
    b634:	00050793          	addi	x15,x10,0
    b638:	00050e63          	beq	x10,x0,b654 <__d2b+0xf8>
    b63c:	02000613          	addi	x12,x0,32
    b640:	40a60633          	sub	x12,x12,x10
    b644:	00c71633          	sll	x12,x14,x12
    b648:	00a75733          	srl	x14,x14,x10
    b64c:	00c6e6b3          	or	x13,x13,x12
    b650:	00e12623          	sw	x14,12(x2)
    b654:	00e034b3          	sltu	x9,x0,x14
    b658:	00148493          	addi	x9,x9,1
    b65c:	00d42a23          	sw	x13,20(x8)
    b660:	00e42c23          	sw	x14,24(x8)
    b664:	00942823          	sw	x9,16(x8)
    b668:	f6091ce3          	bne	x18,x0,b5e0 <__d2b+0x84>
    b66c:	00249713          	slli	x14,x9,0x2
    b670:	00e40733          	add	x14,x8,x14
    b674:	01072503          	lw	x10,16(x14)
    b678:	bce78793          	addi	x15,x15,-1074
    b67c:	00fa2023          	sw	x15,0(x20)
    b680:	b5cff0ef          	jal	x1,a9dc <__hi0bits>
    b684:	00549493          	slli	x9,x9,0x5
    b688:	40a48533          	sub	x10,x9,x10
    b68c:	f69ff06f          	jal	x0,b5f4 <__d2b+0x98>
    b690:	00006697          	auipc	x13,0x6
    b694:	47868693          	addi	x13,x13,1144 # 11b08 <__clzsi2+0x38c>
    b698:	00000613          	addi	x12,x0,0
    b69c:	30f00593          	addi	x11,x0,783
    b6a0:	00006517          	auipc	x10,0x6
    b6a4:	47c50513          	addi	x10,x10,1148 # 11b1c <__clzsi2+0x3a0>
    b6a8:	3e8000ef          	jal	x1,ba90 <__assert_func>

0000b6ac <__ratio>:
    b6ac:	fc010113          	addi	x2,x2,-64
    b6b0:	03612023          	sw	x22,32(x2)
    b6b4:	00058b13          	addi	x22,x11,0
    b6b8:	00810593          	addi	x11,x2,8
    b6bc:	02112e23          	sw	x1,60(x2)
    b6c0:	02812c23          	sw	x8,56(x2)
    b6c4:	02912a23          	sw	x9,52(x2)
    b6c8:	01712e23          	sw	x23,28(x2)
    b6cc:	03212823          	sw	x18,48(x2)
    b6d0:	00050b93          	addi	x23,x10,0
    b6d4:	03312623          	sw	x19,44(x2)
    b6d8:	03412423          	sw	x20,40(x2)
    b6dc:	03512223          	sw	x21,36(x2)
    b6e0:	d51ff0ef          	jal	x1,b430 <__b2d>
    b6e4:	00050493          	addi	x9,x10,0
    b6e8:	00058413          	addi	x8,x11,0
    b6ec:	000b0513          	addi	x10,x22,0
    b6f0:	00c10593          	addi	x11,x2,12
    b6f4:	d3dff0ef          	jal	x1,b430 <__b2d>
    b6f8:	010b2703          	lw	x14,16(x22)
    b6fc:	010ba783          	lw	x15,16(x23)
    b700:	00c12683          	lw	x13,12(x2)
    b704:	40e787b3          	sub	x15,x15,x14
    b708:	00812703          	lw	x14,8(x2)
    b70c:	00579793          	slli	x15,x15,0x5
    b710:	40d70733          	sub	x14,x14,x13
    b714:	00e787b3          	add	x15,x15,x14
    b718:	04f05663          	bge	x0,x15,b764 <__ratio+0xb8>
    b71c:	01479793          	slli	x15,x15,0x14
    b720:	00878433          	add	x8,x15,x8
    b724:	00050613          	addi	x12,x10,0
    b728:	00058693          	addi	x13,x11,0
    b72c:	00048513          	addi	x10,x9,0
    b730:	00040593          	addi	x11,x8,0
    b734:	2e8010ef          	jal	x1,ca1c <__divdf3>
    b738:	03c12083          	lw	x1,60(x2)
    b73c:	03812403          	lw	x8,56(x2)
    b740:	03412483          	lw	x9,52(x2)
    b744:	03012903          	lw	x18,48(x2)
    b748:	02c12983          	lw	x19,44(x2)
    b74c:	02812a03          	lw	x20,40(x2)
    b750:	02412a83          	lw	x21,36(x2)
    b754:	02012b03          	lw	x22,32(x2)
    b758:	01c12b83          	lw	x23,28(x2)
    b75c:	04010113          	addi	x2,x2,64
    b760:	00008067          	jalr	x0,0(x1)
    b764:	01479793          	slli	x15,x15,0x14
    b768:	40f585b3          	sub	x11,x11,x15
    b76c:	fb9ff06f          	jal	x0,b724 <__ratio+0x78>

0000b770 <_mprec_log10>:
    b770:	fe010113          	addi	x2,x2,-32
    b774:	01412423          	sw	x20,8(x2)
    b778:	00112e23          	sw	x1,28(x2)
    b77c:	01212823          	sw	x18,16(x2)
    b780:	01312623          	sw	x19,12(x2)
    b784:	01700793          	addi	x15,x0,23
    b788:	00050a13          	addi	x20,x10,0
    b78c:	06a7d863          	bge	x15,x10,b7fc <_mprec_log10+0x8c>
    b790:	00007797          	auipc	x15,0x7
    b794:	3f078793          	addi	x15,x15,1008 # 12b80 <__SDATA_BEGIN__+0x30>
    b798:	0007a503          	lw	x10,0(x15)
    b79c:	0047a583          	lw	x11,4(x15)
    b7a0:	00007797          	auipc	x15,0x7
    b7a4:	3e878793          	addi	x15,x15,1000 # 12b88 <__SDATA_BEGIN__+0x38>
    b7a8:	00812c23          	sw	x8,24(x2)
    b7ac:	00912a23          	sw	x9,20(x2)
    b7b0:	0007a403          	lw	x8,0(x15)
    b7b4:	0047a483          	lw	x9,4(x15)
    b7b8:	01612223          	sw	x22,4(x2)
    b7bc:	01712023          	sw	x23,0(x2)
    b7c0:	00040613          	addi	x12,x8,0
    b7c4:	00048693          	addi	x13,x9,0
    b7c8:	fffa0a13          	addi	x20,x20,-1
    b7cc:	475010ef          	jal	x1,d440 <__muldf3>
    b7d0:	fe0a18e3          	bne	x20,x0,b7c0 <_mprec_log10+0x50>
    b7d4:	01812403          	lw	x8,24(x2)
    b7d8:	01c12083          	lw	x1,28(x2)
    b7dc:	01412483          	lw	x9,20(x2)
    b7e0:	00412b03          	lw	x22,4(x2)
    b7e4:	00012b83          	lw	x23,0(x2)
    b7e8:	01012903          	lw	x18,16(x2)
    b7ec:	00c12983          	lw	x19,12(x2)
    b7f0:	00812a03          	lw	x20,8(x2)
    b7f4:	02010113          	addi	x2,x2,32
    b7f8:	00008067          	jalr	x0,0(x1)
    b7fc:	01c12083          	lw	x1,28(x2)
    b800:	00351a13          	slli	x20,x10,0x3
    b804:	00007797          	auipc	x15,0x7
    b808:	93c78793          	addi	x15,x15,-1732 # 12140 <p05.0>
    b80c:	014787b3          	add	x15,x15,x20
    b810:	0107a503          	lw	x10,16(x15)
    b814:	0147a583          	lw	x11,20(x15)
    b818:	01012903          	lw	x18,16(x2)
    b81c:	00c12983          	lw	x19,12(x2)
    b820:	00812a03          	lw	x20,8(x2)
    b824:	02010113          	addi	x2,x2,32
    b828:	00008067          	jalr	x0,0(x1)

0000b82c <__copybits>:
    b82c:	01062683          	lw	x13,16(x12)
    b830:	fff58593          	addi	x11,x11,-1
    b834:	4055d593          	srai	x11,x11,0x5
    b838:	00158593          	addi	x11,x11,1
    b83c:	01460793          	addi	x15,x12,20
    b840:	00269693          	slli	x13,x13,0x2
    b844:	00259593          	slli	x11,x11,0x2
    b848:	00d786b3          	add	x13,x15,x13
    b84c:	00b505b3          	add	x11,x10,x11
    b850:	02d7f863          	bgeu	x15,x13,b880 <__copybits+0x54>
    b854:	00050713          	addi	x14,x10,0
    b858:	0007a803          	lw	x16,0(x15)
    b85c:	00478793          	addi	x15,x15,4
    b860:	00470713          	addi	x14,x14,4
    b864:	ff072e23          	sw	x16,-4(x14)
    b868:	fed7e8e3          	bltu	x15,x13,b858 <__copybits+0x2c>
    b86c:	40c687b3          	sub	x15,x13,x12
    b870:	feb78793          	addi	x15,x15,-21
    b874:	ffc7f793          	andi	x15,x15,-4
    b878:	00478793          	addi	x15,x15,4
    b87c:	00f50533          	add	x10,x10,x15
    b880:	00b57863          	bgeu	x10,x11,b890 <__copybits+0x64>
    b884:	00450513          	addi	x10,x10,4
    b888:	fe052e23          	sw	x0,-4(x10)
    b88c:	feb56ce3          	bltu	x10,x11,b884 <__copybits+0x58>
    b890:	00008067          	jalr	x0,0(x1)

0000b894 <__any_on>:
    b894:	01052703          	lw	x14,16(x10)
    b898:	4055d613          	srai	x12,x11,0x5
    b89c:	01450693          	addi	x13,x10,20
    b8a0:	02c75263          	bge	x14,x12,b8c4 <__any_on+0x30>
    b8a4:	00271713          	slli	x14,x14,0x2
    b8a8:	00e687b3          	add	x15,x13,x14
    b8ac:	04f6f263          	bgeu	x13,x15,b8f0 <__any_on+0x5c>
    b8b0:	ffc7a703          	lw	x14,-4(x15)
    b8b4:	ffc78793          	addi	x15,x15,-4
    b8b8:	fe070ae3          	beq	x14,x0,b8ac <__any_on+0x18>
    b8bc:	00100513          	addi	x10,x0,1
    b8c0:	00008067          	jalr	x0,0(x1)
    b8c4:	00261793          	slli	x15,x12,0x2
    b8c8:	00f687b3          	add	x15,x13,x15
    b8cc:	fee650e3          	bge	x12,x14,b8ac <__any_on+0x18>
    b8d0:	01f5f593          	andi	x11,x11,31
    b8d4:	fc058ce3          	beq	x11,x0,b8ac <__any_on+0x18>
    b8d8:	0007a603          	lw	x12,0(x15)
    b8dc:	00100513          	addi	x10,x0,1
    b8e0:	00b65733          	srl	x14,x12,x11
    b8e4:	00b71733          	sll	x14,x14,x11
    b8e8:	fce602e3          	beq	x12,x14,b8ac <__any_on+0x18>
    b8ec:	00008067          	jalr	x0,0(x1)
    b8f0:	00000513          	addi	x10,x0,0
    b8f4:	00008067          	jalr	x0,0(x1)

0000b8f8 <_calloc_r>:
    b8f8:	02c5b7b3          	mulhu	x15,x11,x12
    b8fc:	ff010113          	addi	x2,x2,-16
    b900:	00112623          	sw	x1,12(x2)
    b904:	00812423          	sw	x8,8(x2)
    b908:	02c585b3          	mul	x11,x11,x12
    b90c:	0a079063          	bne	x15,x0,b9ac <_calloc_r+0xb4>
    b910:	8c8fa0ef          	jal	x1,59d8 <_malloc_r>
    b914:	00050413          	addi	x8,x10,0
    b918:	0a050063          	beq	x10,x0,b9b8 <_calloc_r+0xc0>
    b91c:	ffc52603          	lw	x12,-4(x10)
    b920:	02400713          	addi	x14,x0,36
    b924:	ffc67613          	andi	x12,x12,-4
    b928:	ffc60613          	addi	x12,x12,-4
    b92c:	04c76863          	bltu	x14,x12,b97c <_calloc_r+0x84>
    b930:	01300693          	addi	x13,x0,19
    b934:	00050793          	addi	x15,x10,0
    b938:	02c6f263          	bgeu	x13,x12,b95c <_calloc_r+0x64>
    b93c:	00052023          	sw	x0,0(x10)
    b940:	00052223          	sw	x0,4(x10)
    b944:	01b00793          	addi	x15,x0,27
    b948:	04c7f863          	bgeu	x15,x12,b998 <_calloc_r+0xa0>
    b94c:	00052423          	sw	x0,8(x10)
    b950:	00052623          	sw	x0,12(x10)
    b954:	01050793          	addi	x15,x10,16
    b958:	06e60c63          	beq	x12,x14,b9d0 <_calloc_r+0xd8>
    b95c:	0007a023          	sw	x0,0(x15)
    b960:	0007a223          	sw	x0,4(x15)
    b964:	0007a423          	sw	x0,8(x15)
    b968:	00c12083          	lw	x1,12(x2)
    b96c:	00040513          	addi	x10,x8,0
    b970:	00812403          	lw	x8,8(x2)
    b974:	01010113          	addi	x2,x2,16
    b978:	00008067          	jalr	x0,0(x1)
    b97c:	00000593          	addi	x11,x0,0
    b980:	dedf40ef          	jal	x1,76c <memset>
    b984:	00c12083          	lw	x1,12(x2)
    b988:	00040513          	addi	x10,x8,0
    b98c:	00812403          	lw	x8,8(x2)
    b990:	01010113          	addi	x2,x2,16
    b994:	00008067          	jalr	x0,0(x1)
    b998:	00850793          	addi	x15,x10,8
    b99c:	0007a023          	sw	x0,0(x15)
    b9a0:	0007a223          	sw	x0,4(x15)
    b9a4:	0007a423          	sw	x0,8(x15)
    b9a8:	fc1ff06f          	jal	x0,b968 <_calloc_r+0x70>
    b9ac:	06c000ef          	jal	x1,ba18 <__errno>
    b9b0:	00c00793          	addi	x15,x0,12
    b9b4:	00f52023          	sw	x15,0(x10)
    b9b8:	00000413          	addi	x8,x0,0
    b9bc:	00c12083          	lw	x1,12(x2)
    b9c0:	00040513          	addi	x10,x8,0
    b9c4:	00812403          	lw	x8,8(x2)
    b9c8:	01010113          	addi	x2,x2,16
    b9cc:	00008067          	jalr	x0,0(x1)
    b9d0:	00052823          	sw	x0,16(x10)
    b9d4:	01850793          	addi	x15,x10,24
    b9d8:	00052a23          	sw	x0,20(x10)
    b9dc:	f81ff06f          	jal	x0,b95c <_calloc_r+0x64>

0000b9e0 <_wctomb_r>:
    b9e0:	e141a783          	lw	x15,-492(x3) # 12ac4 <__global_locale+0xe0>
    b9e4:	00078067          	jalr	x0,0(x15)

0000b9e8 <__ascii_wctomb>:
    b9e8:	02058463          	beq	x11,x0,ba10 <__ascii_wctomb+0x28>
    b9ec:	0ff00793          	addi	x15,x0,255
    b9f0:	00c7e863          	bltu	x15,x12,ba00 <__ascii_wctomb+0x18>
    b9f4:	00c58023          	sb	x12,0(x11)
    b9f8:	00100513          	addi	x10,x0,1
    b9fc:	00008067          	jalr	x0,0(x1)
    ba00:	08a00793          	addi	x15,x0,138
    ba04:	00f52023          	sw	x15,0(x10)
    ba08:	fff00513          	addi	x10,x0,-1
    ba0c:	00008067          	jalr	x0,0(x1)
    ba10:	00000513          	addi	x10,x0,0
    ba14:	00008067          	jalr	x0,0(x1)

0000ba18 <__errno>:
    ba18:	f041a503          	lw	x10,-252(x3) # 12bb4 <_impure_ptr>
    ba1c:	00008067          	jalr	x0,0(x1)

0000ba20 <_mbtowc_r>:
    ba20:	e181a783          	lw	x15,-488(x3) # 12ac8 <__global_locale+0xe4>
    ba24:	00078067          	jalr	x0,0(x15)

0000ba28 <__ascii_mbtowc>:
    ba28:	02058063          	beq	x11,x0,ba48 <__ascii_mbtowc+0x20>
    ba2c:	04060263          	beq	x12,x0,ba70 <__ascii_mbtowc+0x48>
    ba30:	04068863          	beq	x13,x0,ba80 <__ascii_mbtowc+0x58>
    ba34:	00064783          	lbu	x15,0(x12)
    ba38:	00f5a023          	sw	x15,0(x11)
    ba3c:	00064503          	lbu	x10,0(x12)
    ba40:	00a03533          	sltu	x10,x0,x10
    ba44:	00008067          	jalr	x0,0(x1)
    ba48:	ff010113          	addi	x2,x2,-16
    ba4c:	00c10593          	addi	x11,x2,12
    ba50:	02060463          	beq	x12,x0,ba78 <__ascii_mbtowc+0x50>
    ba54:	02068a63          	beq	x13,x0,ba88 <__ascii_mbtowc+0x60>
    ba58:	00064783          	lbu	x15,0(x12)
    ba5c:	00f5a023          	sw	x15,0(x11)
    ba60:	00064503          	lbu	x10,0(x12)
    ba64:	00a03533          	sltu	x10,x0,x10
    ba68:	01010113          	addi	x2,x2,16
    ba6c:	00008067          	jalr	x0,0(x1)
    ba70:	00000513          	addi	x10,x0,0
    ba74:	00008067          	jalr	x0,0(x1)
    ba78:	00000513          	addi	x10,x0,0
    ba7c:	fedff06f          	jal	x0,ba68 <__ascii_mbtowc+0x40>
    ba80:	ffe00513          	addi	x10,x0,-2
    ba84:	00008067          	jalr	x0,0(x1)
    ba88:	ffe00513          	addi	x10,x0,-2
    ba8c:	fddff06f          	jal	x0,ba68 <__ascii_mbtowc+0x40>

0000ba90 <__assert_func>:
    ba90:	ff010113          	addi	x2,x2,-16
    ba94:	00068793          	addi	x15,x13,0
    ba98:	f041a703          	lw	x14,-252(x3) # 12bb4 <_impure_ptr>
    ba9c:	00060813          	addi	x16,x12,0
    baa0:	00112623          	sw	x1,12(x2)
    baa4:	00c72883          	lw	x17,12(x14)
    baa8:	00078613          	addi	x12,x15,0
    baac:	00050693          	addi	x13,x10,0
    bab0:	00058713          	addi	x14,x11,0
    bab4:	00006797          	auipc	x15,0x6
    bab8:	09c78793          	addi	x15,x15,156 # 11b50 <__clzsi2+0x3d4>
    babc:	00080c63          	beq	x16,x0,bad4 <__assert_func+0x44>
    bac0:	00006597          	auipc	x11,0x6
    bac4:	0a058593          	addi	x11,x11,160 # 11b60 <__clzsi2+0x3e4>
    bac8:	00088513          	addi	x10,x17,0
    bacc:	064000ef          	jal	x1,bb30 <fiprintf>
    bad0:	0a8000ef          	jal	x1,bb78 <abort>
    bad4:	00006797          	auipc	x15,0x6
    bad8:	e2878793          	addi	x15,x15,-472 # 118fc <__clzsi2+0x180>
    badc:	00078813          	addi	x16,x15,0
    bae0:	fe1ff06f          	jal	x0,bac0 <__assert_func+0x30>

0000bae4 <__assert>:
    bae4:	ff010113          	addi	x2,x2,-16
    bae8:	00060693          	addi	x13,x12,0
    baec:	00000613          	addi	x12,x0,0
    baf0:	00112623          	sw	x1,12(x2)
    baf4:	f9dff0ef          	jal	x1,ba90 <__assert_func>

0000baf8 <_fiprintf_r>:
    baf8:	fc010113          	addi	x2,x2,-64
    bafc:	02c10313          	addi	x6,x2,44
    bb00:	02d12623          	sw	x13,44(x2)
    bb04:	00030693          	addi	x13,x6,0
    bb08:	00112e23          	sw	x1,28(x2)
    bb0c:	02e12823          	sw	x14,48(x2)
    bb10:	02f12a23          	sw	x15,52(x2)
    bb14:	03012c23          	sw	x16,56(x2)
    bb18:	03112e23          	sw	x17,60(x2)
    bb1c:	00612623          	sw	x6,12(x2)
    bb20:	9f5f80ef          	jal	x1,4514 <_vfiprintf_r>
    bb24:	01c12083          	lw	x1,28(x2)
    bb28:	04010113          	addi	x2,x2,64
    bb2c:	00008067          	jalr	x0,0(x1)

0000bb30 <fiprintf>:
    bb30:	fc010113          	addi	x2,x2,-64
    bb34:	02810313          	addi	x6,x2,40
    bb38:	02c12423          	sw	x12,40(x2)
    bb3c:	02d12623          	sw	x13,44(x2)
    bb40:	00058613          	addi	x12,x11,0
    bb44:	00030693          	addi	x13,x6,0
    bb48:	00050593          	addi	x11,x10,0
    bb4c:	f041a503          	lw	x10,-252(x3) # 12bb4 <_impure_ptr>
    bb50:	00112e23          	sw	x1,28(x2)
    bb54:	02e12823          	sw	x14,48(x2)
    bb58:	02f12a23          	sw	x15,52(x2)
    bb5c:	03012c23          	sw	x16,56(x2)
    bb60:	03112e23          	sw	x17,60(x2)
    bb64:	00612623          	sw	x6,12(x2)
    bb68:	9adf80ef          	jal	x1,4514 <_vfiprintf_r>
    bb6c:	01c12083          	lw	x1,28(x2)
    bb70:	04010113          	addi	x2,x2,64
    bb74:	00008067          	jalr	x0,0(x1)

0000bb78 <abort>:
    bb78:	ff010113          	addi	x2,x2,-16
    bb7c:	00600513          	addi	x10,x0,6
    bb80:	00112623          	sw	x1,12(x2)
    bb84:	2b4000ef          	jal	x1,be38 <raise>
    bb88:	00100513          	addi	x10,x0,1
    bb8c:	f8cf40ef          	jal	x1,318 <_exit>

0000bb90 <_init_signal_r>:
    bb90:	11852783          	lw	x15,280(x10)
    bb94:	00078663          	beq	x15,x0,bba0 <_init_signal_r+0x10>
    bb98:	00000513          	addi	x10,x0,0
    bb9c:	00008067          	jalr	x0,0(x1)
    bba0:	ff010113          	addi	x2,x2,-16
    bba4:	08000593          	addi	x11,x0,128
    bba8:	00812423          	sw	x8,8(x2)
    bbac:	00112623          	sw	x1,12(x2)
    bbb0:	00050413          	addi	x8,x10,0
    bbb4:	e25f90ef          	jal	x1,59d8 <_malloc_r>
    bbb8:	10a42c23          	sw	x10,280(x8)
    bbbc:	02050463          	beq	x10,x0,bbe4 <_init_signal_r+0x54>
    bbc0:	08050793          	addi	x15,x10,128
    bbc4:	00052023          	sw	x0,0(x10)
    bbc8:	00450513          	addi	x10,x10,4
    bbcc:	fef51ce3          	bne	x10,x15,bbc4 <_init_signal_r+0x34>
    bbd0:	00000513          	addi	x10,x0,0
    bbd4:	00c12083          	lw	x1,12(x2)
    bbd8:	00812403          	lw	x8,8(x2)
    bbdc:	01010113          	addi	x2,x2,16
    bbe0:	00008067          	jalr	x0,0(x1)
    bbe4:	fff00513          	addi	x10,x0,-1
    bbe8:	fedff06f          	jal	x0,bbd4 <_init_signal_r+0x44>

0000bbec <_signal_r>:
    bbec:	fe010113          	addi	x2,x2,-32
    bbf0:	00912a23          	sw	x9,20(x2)
    bbf4:	00112e23          	sw	x1,28(x2)
    bbf8:	01f00793          	addi	x15,x0,31
    bbfc:	00050493          	addi	x9,x10,0
    bc00:	02b7ec63          	bltu	x15,x11,bc38 <_signal_r+0x4c>
    bc04:	11852783          	lw	x15,280(x10)
    bc08:	00812c23          	sw	x8,24(x2)
    bc0c:	00058413          	addi	x8,x11,0
    bc10:	04078263          	beq	x15,x0,bc54 <_signal_r+0x68>
    bc14:	00241413          	slli	x8,x8,0x2
    bc18:	008787b3          	add	x15,x15,x8
    bc1c:	01c12083          	lw	x1,28(x2)
    bc20:	01812403          	lw	x8,24(x2)
    bc24:	0007a503          	lw	x10,0(x15)
    bc28:	00c7a023          	sw	x12,0(x15)
    bc2c:	01412483          	lw	x9,20(x2)
    bc30:	02010113          	addi	x2,x2,32
    bc34:	00008067          	jalr	x0,0(x1)
    bc38:	01600793          	addi	x15,x0,22
    bc3c:	00f52023          	sw	x15,0(x10)
    bc40:	fff00513          	addi	x10,x0,-1
    bc44:	01c12083          	lw	x1,28(x2)
    bc48:	01412483          	lw	x9,20(x2)
    bc4c:	02010113          	addi	x2,x2,32
    bc50:	00008067          	jalr	x0,0(x1)
    bc54:	08000593          	addi	x11,x0,128
    bc58:	00c12623          	sw	x12,12(x2)
    bc5c:	d7df90ef          	jal	x1,59d8 <_malloc_r>
    bc60:	10a4ac23          	sw	x10,280(x9)
    bc64:	00c12603          	lw	x12,12(x2)
    bc68:	00050793          	addi	x15,x10,0
    bc6c:	00050713          	addi	x14,x10,0
    bc70:	08050693          	addi	x13,x10,128
    bc74:	00050a63          	beq	x10,x0,bc88 <_signal_r+0x9c>
    bc78:	00072023          	sw	x0,0(x14)
    bc7c:	00470713          	addi	x14,x14,4
    bc80:	fed71ce3          	bne	x14,x13,bc78 <_signal_r+0x8c>
    bc84:	f91ff06f          	jal	x0,bc14 <_signal_r+0x28>
    bc88:	01812403          	lw	x8,24(x2)
    bc8c:	fff00513          	addi	x10,x0,-1
    bc90:	fb5ff06f          	jal	x0,bc44 <_signal_r+0x58>

0000bc94 <_raise_r>:
    bc94:	ff010113          	addi	x2,x2,-16
    bc98:	00912223          	sw	x9,4(x2)
    bc9c:	00112623          	sw	x1,12(x2)
    bca0:	01f00793          	addi	x15,x0,31
    bca4:	00050493          	addi	x9,x10,0
    bca8:	0ab7e063          	bltu	x15,x11,bd48 <_raise_r+0xb4>
    bcac:	11852783          	lw	x15,280(x10)
    bcb0:	00812423          	sw	x8,8(x2)
    bcb4:	00058413          	addi	x8,x11,0
    bcb8:	04078463          	beq	x15,x0,bd00 <_raise_r+0x6c>
    bcbc:	00259713          	slli	x14,x11,0x2
    bcc0:	00e787b3          	add	x15,x15,x14
    bcc4:	0007a703          	lw	x14,0(x15)
    bcc8:	02070c63          	beq	x14,x0,bd00 <_raise_r+0x6c>
    bccc:	00100693          	addi	x13,x0,1
    bcd0:	00d70c63          	beq	x14,x13,bce8 <_raise_r+0x54>
    bcd4:	fff00693          	addi	x13,x0,-1
    bcd8:	04d70863          	beq	x14,x13,bd28 <_raise_r+0x94>
    bcdc:	0007a023          	sw	x0,0(x15)
    bce0:	00058513          	addi	x10,x11,0
    bce4:	000700e7          	jalr	x1,0(x14)
    bce8:	00812403          	lw	x8,8(x2)
    bcec:	00000513          	addi	x10,x0,0
    bcf0:	00c12083          	lw	x1,12(x2)
    bcf4:	00412483          	lw	x9,4(x2)
    bcf8:	01010113          	addi	x2,x2,16
    bcfc:	00008067          	jalr	x0,0(x1)
    bd00:	00048513          	addi	x10,x9,0
    bd04:	43c000ef          	jal	x1,c140 <_getpid_r>
    bd08:	00040613          	addi	x12,x8,0
    bd0c:	00812403          	lw	x8,8(x2)
    bd10:	00c12083          	lw	x1,12(x2)
    bd14:	00050593          	addi	x11,x10,0
    bd18:	00048513          	addi	x10,x9,0
    bd1c:	00412483          	lw	x9,4(x2)
    bd20:	01010113          	addi	x2,x2,16
    bd24:	3c40006f          	jal	x0,c0e8 <_kill_r>
    bd28:	00812403          	lw	x8,8(x2)
    bd2c:	00c12083          	lw	x1,12(x2)
    bd30:	01600793          	addi	x15,x0,22
    bd34:	00f52023          	sw	x15,0(x10)
    bd38:	00412483          	lw	x9,4(x2)
    bd3c:	00100513          	addi	x10,x0,1
    bd40:	01010113          	addi	x2,x2,16
    bd44:	00008067          	jalr	x0,0(x1)
    bd48:	01600793          	addi	x15,x0,22
    bd4c:	00f52023          	sw	x15,0(x10)
    bd50:	fff00513          	addi	x10,x0,-1
    bd54:	f9dff06f          	jal	x0,bcf0 <_raise_r+0x5c>

0000bd58 <__sigtramp_r>:
    bd58:	01f00793          	addi	x15,x0,31
    bd5c:	0cb7ea63          	bltu	x15,x11,be30 <__sigtramp_r+0xd8>
    bd60:	11852783          	lw	x15,280(x10)
    bd64:	ff010113          	addi	x2,x2,-16
    bd68:	00812423          	sw	x8,8(x2)
    bd6c:	00912223          	sw	x9,4(x2)
    bd70:	00112623          	sw	x1,12(x2)
    bd74:	00058413          	addi	x8,x11,0
    bd78:	00050493          	addi	x9,x10,0
    bd7c:	08078063          	beq	x15,x0,bdfc <__sigtramp_r+0xa4>
    bd80:	00241713          	slli	x14,x8,0x2
    bd84:	00e787b3          	add	x15,x15,x14
    bd88:	0007a703          	lw	x14,0(x15)
    bd8c:	02070c63          	beq	x14,x0,bdc4 <__sigtramp_r+0x6c>
    bd90:	fff00693          	addi	x13,x0,-1
    bd94:	06d70063          	beq	x14,x13,bdf4 <__sigtramp_r+0x9c>
    bd98:	00100693          	addi	x13,x0,1
    bd9c:	04d70063          	beq	x14,x13,bddc <__sigtramp_r+0x84>
    bda0:	00040513          	addi	x10,x8,0
    bda4:	0007a023          	sw	x0,0(x15)
    bda8:	000700e7          	jalr	x1,0(x14)
    bdac:	00000513          	addi	x10,x0,0
    bdb0:	00c12083          	lw	x1,12(x2)
    bdb4:	00812403          	lw	x8,8(x2)
    bdb8:	00412483          	lw	x9,4(x2)
    bdbc:	01010113          	addi	x2,x2,16
    bdc0:	00008067          	jalr	x0,0(x1)
    bdc4:	00c12083          	lw	x1,12(x2)
    bdc8:	00812403          	lw	x8,8(x2)
    bdcc:	00412483          	lw	x9,4(x2)
    bdd0:	00100513          	addi	x10,x0,1
    bdd4:	01010113          	addi	x2,x2,16
    bdd8:	00008067          	jalr	x0,0(x1)
    bddc:	00c12083          	lw	x1,12(x2)
    bde0:	00812403          	lw	x8,8(x2)
    bde4:	00412483          	lw	x9,4(x2)
    bde8:	00300513          	addi	x10,x0,3
    bdec:	01010113          	addi	x2,x2,16
    bdf0:	00008067          	jalr	x0,0(x1)
    bdf4:	00200513          	addi	x10,x0,2
    bdf8:	fb9ff06f          	jal	x0,bdb0 <__sigtramp_r+0x58>
    bdfc:	08000593          	addi	x11,x0,128
    be00:	bd9f90ef          	jal	x1,59d8 <_malloc_r>
    be04:	10a4ac23          	sw	x10,280(x9)
    be08:	00050793          	addi	x15,x10,0
    be0c:	00050e63          	beq	x10,x0,be28 <__sigtramp_r+0xd0>
    be10:	00050713          	addi	x14,x10,0
    be14:	08050693          	addi	x13,x10,128
    be18:	00072023          	sw	x0,0(x14)
    be1c:	00470713          	addi	x14,x14,4
    be20:	fed71ce3          	bne	x14,x13,be18 <__sigtramp_r+0xc0>
    be24:	f5dff06f          	jal	x0,bd80 <__sigtramp_r+0x28>
    be28:	fff00513          	addi	x10,x0,-1
    be2c:	f85ff06f          	jal	x0,bdb0 <__sigtramp_r+0x58>
    be30:	fff00513          	addi	x10,x0,-1
    be34:	00008067          	jalr	x0,0(x1)

0000be38 <raise>:
    be38:	ff010113          	addi	x2,x2,-16
    be3c:	00912223          	sw	x9,4(x2)
    be40:	00112623          	sw	x1,12(x2)
    be44:	01f00793          	addi	x15,x0,31
    be48:	f041a483          	lw	x9,-252(x3) # 12bb4 <_impure_ptr>
    be4c:	08a7ee63          	bltu	x15,x10,bee8 <raise+0xb0>
    be50:	1184a783          	lw	x15,280(x9)
    be54:	00812423          	sw	x8,8(x2)
    be58:	00050413          	addi	x8,x10,0
    be5c:	04078263          	beq	x15,x0,bea0 <raise+0x68>
    be60:	00251713          	slli	x14,x10,0x2
    be64:	00e787b3          	add	x15,x15,x14
    be68:	0007a703          	lw	x14,0(x15)
    be6c:	02070a63          	beq	x14,x0,bea0 <raise+0x68>
    be70:	00100693          	addi	x13,x0,1
    be74:	00d70a63          	beq	x14,x13,be88 <raise+0x50>
    be78:	fff00693          	addi	x13,x0,-1
    be7c:	04d70663          	beq	x14,x13,bec8 <raise+0x90>
    be80:	0007a023          	sw	x0,0(x15)
    be84:	000700e7          	jalr	x1,0(x14)
    be88:	00812403          	lw	x8,8(x2)
    be8c:	00000513          	addi	x10,x0,0
    be90:	00c12083          	lw	x1,12(x2)
    be94:	00412483          	lw	x9,4(x2)
    be98:	01010113          	addi	x2,x2,16
    be9c:	00008067          	jalr	x0,0(x1)
    bea0:	00048513          	addi	x10,x9,0
    bea4:	29c000ef          	jal	x1,c140 <_getpid_r>
    bea8:	00040613          	addi	x12,x8,0
    beac:	00812403          	lw	x8,8(x2)
    beb0:	00c12083          	lw	x1,12(x2)
    beb4:	00050593          	addi	x11,x10,0
    beb8:	00048513          	addi	x10,x9,0
    bebc:	00412483          	lw	x9,4(x2)
    bec0:	01010113          	addi	x2,x2,16
    bec4:	2240006f          	jal	x0,c0e8 <_kill_r>
    bec8:	00812403          	lw	x8,8(x2)
    becc:	00c12083          	lw	x1,12(x2)
    bed0:	01600793          	addi	x15,x0,22
    bed4:	00f4a023          	sw	x15,0(x9)
    bed8:	00100513          	addi	x10,x0,1
    bedc:	00412483          	lw	x9,4(x2)
    bee0:	01010113          	addi	x2,x2,16
    bee4:	00008067          	jalr	x0,0(x1)
    bee8:	01600793          	addi	x15,x0,22
    beec:	00f4a023          	sw	x15,0(x9)
    bef0:	fff00513          	addi	x10,x0,-1
    bef4:	f9dff06f          	jal	x0,be90 <raise+0x58>

0000bef8 <signal>:
    bef8:	ff010113          	addi	x2,x2,-16
    befc:	01212023          	sw	x18,0(x2)
    bf00:	00112623          	sw	x1,12(x2)
    bf04:	01f00793          	addi	x15,x0,31
    bf08:	f041a903          	lw	x18,-252(x3) # 12bb4 <_impure_ptr>
    bf0c:	04a7e263          	bltu	x15,x10,bf50 <signal+0x58>
    bf10:	00812423          	sw	x8,8(x2)
    bf14:	00050413          	addi	x8,x10,0
    bf18:	11892503          	lw	x10,280(x18)
    bf1c:	00912223          	sw	x9,4(x2)
    bf20:	00058493          	addi	x9,x11,0
    bf24:	04050463          	beq	x10,x0,bf6c <signal+0x74>
    bf28:	00241413          	slli	x8,x8,0x2
    bf2c:	008507b3          	add	x15,x10,x8
    bf30:	00c12083          	lw	x1,12(x2)
    bf34:	00812403          	lw	x8,8(x2)
    bf38:	0007a503          	lw	x10,0(x15)
    bf3c:	0097a023          	sw	x9,0(x15)
    bf40:	00012903          	lw	x18,0(x2)
    bf44:	00412483          	lw	x9,4(x2)
    bf48:	01010113          	addi	x2,x2,16
    bf4c:	00008067          	jalr	x0,0(x1)
    bf50:	01600793          	addi	x15,x0,22
    bf54:	00f92023          	sw	x15,0(x18)
    bf58:	fff00513          	addi	x10,x0,-1
    bf5c:	00c12083          	lw	x1,12(x2)
    bf60:	00012903          	lw	x18,0(x2)
    bf64:	01010113          	addi	x2,x2,16
    bf68:	00008067          	jalr	x0,0(x1)
    bf6c:	08000593          	addi	x11,x0,128
    bf70:	00090513          	addi	x10,x18,0
    bf74:	a65f90ef          	jal	x1,59d8 <_malloc_r>
    bf78:	10a92c23          	sw	x10,280(x18)
    bf7c:	00050793          	addi	x15,x10,0
    bf80:	08050713          	addi	x14,x10,128
    bf84:	00050a63          	beq	x10,x0,bf98 <signal+0xa0>
    bf88:	0007a023          	sw	x0,0(x15)
    bf8c:	00478793          	addi	x15,x15,4
    bf90:	fef71ce3          	bne	x14,x15,bf88 <signal+0x90>
    bf94:	f95ff06f          	jal	x0,bf28 <signal+0x30>
    bf98:	00812403          	lw	x8,8(x2)
    bf9c:	00412483          	lw	x9,4(x2)
    bfa0:	fff00513          	addi	x10,x0,-1
    bfa4:	fb9ff06f          	jal	x0,bf5c <signal+0x64>

0000bfa8 <_init_signal>:
    bfa8:	ff010113          	addi	x2,x2,-16
    bfac:	00812423          	sw	x8,8(x2)
    bfb0:	f041a403          	lw	x8,-252(x3) # 12bb4 <_impure_ptr>
    bfb4:	11842783          	lw	x15,280(x8)
    bfb8:	00112623          	sw	x1,12(x2)
    bfbc:	00078c63          	beq	x15,x0,bfd4 <_init_signal+0x2c>
    bfc0:	00000513          	addi	x10,x0,0
    bfc4:	00c12083          	lw	x1,12(x2)
    bfc8:	00812403          	lw	x8,8(x2)
    bfcc:	01010113          	addi	x2,x2,16
    bfd0:	00008067          	jalr	x0,0(x1)
    bfd4:	08000593          	addi	x11,x0,128
    bfd8:	00040513          	addi	x10,x8,0
    bfdc:	9fdf90ef          	jal	x1,59d8 <_malloc_r>
    bfe0:	10a42c23          	sw	x10,280(x8)
    bfe4:	00050c63          	beq	x10,x0,bffc <_init_signal+0x54>
    bfe8:	08050793          	addi	x15,x10,128
    bfec:	00052023          	sw	x0,0(x10)
    bff0:	00450513          	addi	x10,x10,4
    bff4:	fef51ce3          	bne	x10,x15,bfec <_init_signal+0x44>
    bff8:	fc9ff06f          	jal	x0,bfc0 <_init_signal+0x18>
    bffc:	fff00513          	addi	x10,x0,-1
    c000:	fc5ff06f          	jal	x0,bfc4 <_init_signal+0x1c>

0000c004 <__sigtramp>:
    c004:	ff010113          	addi	x2,x2,-16
    c008:	00912223          	sw	x9,4(x2)
    c00c:	00112623          	sw	x1,12(x2)
    c010:	01f00793          	addi	x15,x0,31
    c014:	f041a483          	lw	x9,-252(x3) # 12bb4 <_impure_ptr>
    c018:	0ca7e463          	bltu	x15,x10,c0e0 <__sigtramp+0xdc>
    c01c:	1184a783          	lw	x15,280(x9)
    c020:	00812423          	sw	x8,8(x2)
    c024:	00050413          	addi	x8,x10,0
    c028:	08078263          	beq	x15,x0,c0ac <__sigtramp+0xa8>
    c02c:	00241713          	slli	x14,x8,0x2
    c030:	00e787b3          	add	x15,x15,x14
    c034:	0007a703          	lw	x14,0(x15)
    c038:	02070c63          	beq	x14,x0,c070 <__sigtramp+0x6c>
    c03c:	fff00693          	addi	x13,x0,-1
    c040:	06d70063          	beq	x14,x13,c0a0 <__sigtramp+0x9c>
    c044:	00100693          	addi	x13,x0,1
    c048:	04d70063          	beq	x14,x13,c088 <__sigtramp+0x84>
    c04c:	00040513          	addi	x10,x8,0
    c050:	0007a023          	sw	x0,0(x15)
    c054:	000700e7          	jalr	x1,0(x14)
    c058:	00812403          	lw	x8,8(x2)
    c05c:	00000513          	addi	x10,x0,0
    c060:	00c12083          	lw	x1,12(x2)
    c064:	00412483          	lw	x9,4(x2)
    c068:	01010113          	addi	x2,x2,16
    c06c:	00008067          	jalr	x0,0(x1)
    c070:	00812403          	lw	x8,8(x2)
    c074:	00c12083          	lw	x1,12(x2)
    c078:	00412483          	lw	x9,4(x2)
    c07c:	00100513          	addi	x10,x0,1
    c080:	01010113          	addi	x2,x2,16
    c084:	00008067          	jalr	x0,0(x1)
    c088:	00812403          	lw	x8,8(x2)
    c08c:	00c12083          	lw	x1,12(x2)
    c090:	00412483          	lw	x9,4(x2)
    c094:	00300513          	addi	x10,x0,3
    c098:	01010113          	addi	x2,x2,16
    c09c:	00008067          	jalr	x0,0(x1)
    c0a0:	00812403          	lw	x8,8(x2)
    c0a4:	00200513          	addi	x10,x0,2
    c0a8:	fb9ff06f          	jal	x0,c060 <__sigtramp+0x5c>
    c0ac:	08000593          	addi	x11,x0,128
    c0b0:	00048513          	addi	x10,x9,0
    c0b4:	925f90ef          	jal	x1,59d8 <_malloc_r>
    c0b8:	10a4ac23          	sw	x10,280(x9)
    c0bc:	00050793          	addi	x15,x10,0
    c0c0:	00050e63          	beq	x10,x0,c0dc <__sigtramp+0xd8>
    c0c4:	00050713          	addi	x14,x10,0
    c0c8:	08050693          	addi	x13,x10,128
    c0cc:	00072023          	sw	x0,0(x14)
    c0d0:	00470713          	addi	x14,x14,4
    c0d4:	fee69ce3          	bne	x13,x14,c0cc <__sigtramp+0xc8>
    c0d8:	f55ff06f          	jal	x0,c02c <__sigtramp+0x28>
    c0dc:	00812403          	lw	x8,8(x2)
    c0e0:	fff00513          	addi	x10,x0,-1
    c0e4:	f7dff06f          	jal	x0,c060 <__sigtramp+0x5c>

0000c0e8 <_kill_r>:
    c0e8:	ff010113          	addi	x2,x2,-16
    c0ec:	00058713          	addi	x14,x11,0
    c0f0:	00812423          	sw	x8,8(x2)
    c0f4:	00060593          	addi	x11,x12,0
    c0f8:	00050413          	addi	x8,x10,0
    c0fc:	00070513          	addi	x10,x14,0
    c100:	f001aa23          	sw	x0,-236(x3) # 12bc4 <errno>
    c104:	00112623          	sw	x1,12(x2)
    c108:	a76f40ef          	jal	x1,37e <_kill>
    c10c:	fff00793          	addi	x15,x0,-1
    c110:	00f50a63          	beq	x10,x15,c124 <_kill_r+0x3c>
    c114:	00c12083          	lw	x1,12(x2)
    c118:	00812403          	lw	x8,8(x2)
    c11c:	01010113          	addi	x2,x2,16
    c120:	00008067          	jalr	x0,0(x1)
    c124:	f141a783          	lw	x15,-236(x3) # 12bc4 <errno>
    c128:	fe0786e3          	beq	x15,x0,c114 <_kill_r+0x2c>
    c12c:	00c12083          	lw	x1,12(x2)
    c130:	00f42023          	sw	x15,0(x8)
    c134:	00812403          	lw	x8,8(x2)
    c138:	01010113          	addi	x2,x2,16
    c13c:	00008067          	jalr	x0,0(x1)

0000c140 <_getpid_r>:
    c140:	a26f406f          	jal	x0,366 <_getpid>

0000c144 <__adddf3>:
    c144:	00100337          	lui	x6,0x100
    c148:	fe010113          	addi	x2,x2,-32
    c14c:	fff30313          	addi	x6,x6,-1 # fffff <__heap_start+0xed12f>
    c150:	00b37833          	and	x16,x6,x11
    c154:	00d377b3          	and	x15,x6,x13
    c158:	0146d893          	srli	x17,x13,0x14
    c15c:	01412423          	sw	x20,8(x2)
    c160:	0145da13          	srli	x20,x11,0x14
    c164:	00379793          	slli	x15,x15,0x3
    c168:	01212823          	sw	x18,16(x2)
    c16c:	7ffa7a13          	andi	x20,x20,2047
    c170:	01f5d913          	srli	x18,x11,0x1f
    c174:	00381813          	slli	x16,x16,0x3
    c178:	01d55713          	srli	x14,x10,0x1d
    c17c:	7ff8fe93          	andi	x29,x17,2047
    c180:	01d65593          	srli	x11,x12,0x1d
    c184:	00112e23          	sw	x1,28(x2)
    c188:	00812c23          	sw	x8,24(x2)
    c18c:	00912a23          	sw	x9,20(x2)
    c190:	01312623          	sw	x19,12(x2)
    c194:	01512223          	sw	x21,4(x2)
    c198:	01f6d693          	srli	x13,x13,0x1f
    c19c:	00f5e5b3          	or	x11,x11,x15
    c1a0:	01076733          	or	x14,x14,x16
    c1a4:	00351e13          	slli	x28,x10,0x3
    c1a8:	00361f13          	slli	x30,x12,0x3
    c1ac:	41da07b3          	sub	x15,x20,x29
    c1b0:	1ed90863          	beq	x18,x13,c3a0 <__adddf3+0x25c>
    c1b4:	16f05663          	bge	x0,x15,c320 <__adddf3+0x1dc>
    c1b8:	280e8a63          	beq	x29,x0,c44c <__adddf3+0x308>
    c1bc:	7ff00693          	addi	x13,x0,2047
    c1c0:	42da0a63          	beq	x20,x13,c5f4 <__adddf3+0x4b0>
    c1c4:	03800693          	addi	x13,x0,56
    c1c8:	00100513          	addi	x10,x0,1
    c1cc:	02f6ce63          	blt	x13,x15,c208 <__adddf3+0xc4>
    c1d0:	008006b7          	lui	x13,0x800
    c1d4:	00d5e5b3          	or	x11,x11,x13
    c1d8:	01f00693          	addi	x13,x0,31
    c1dc:	54f6c263          	blt	x13,x15,c720 <__adddf3+0x5dc>
    c1e0:	02000693          	addi	x13,x0,32
    c1e4:	40f686b3          	sub	x13,x13,x15
    c1e8:	00d59533          	sll	x10,x11,x13
    c1ec:	00ff5633          	srl	x12,x30,x15
    c1f0:	00df16b3          	sll	x13,x30,x13
    c1f4:	00c56533          	or	x10,x10,x12
    c1f8:	00d036b3          	sltu	x13,x0,x13
    c1fc:	00f5d5b3          	srl	x11,x11,x15
    c200:	00d56533          	or	x10,x10,x13
    c204:	40b70733          	sub	x14,x14,x11
    c208:	40ae0533          	sub	x10,x28,x10
    c20c:	00ae3633          	sltu	x12,x28,x10
    c210:	00050993          	addi	x19,x10,0
    c214:	40c70ab3          	sub	x21,x14,x12
    c218:	008a9793          	slli	x15,x21,0x8
    c21c:	3207de63          	bge	x15,x0,c558 <__adddf3+0x414>
    c220:	008007b7          	lui	x15,0x800
    c224:	fff78793          	addi	x15,x15,-1 # 7fffff <__heap_end+0x3fffff>
    c228:	00fafab3          	and	x21,x21,x15
    c22c:	2c0a8c63          	beq	x21,x0,c504 <__adddf3+0x3c0>
    c230:	000a8513          	addi	x10,x21,0
    c234:	548050ef          	jal	x1,1177c <__clzsi2>
    c238:	ff850793          	addi	x15,x10,-8
    c23c:	02000693          	addi	x13,x0,32
    c240:	40f68733          	sub	x14,x13,x15
    c244:	00e9d733          	srl	x14,x19,x14
    c248:	00fa9ab3          	sll	x21,x21,x15
    c24c:	01576733          	or	x14,x14,x21
    c250:	00f999b3          	sll	x19,x19,x15
    c254:	4b47cc63          	blt	x15,x20,c70c <__adddf3+0x5c8>
    c258:	414787b3          	sub	x15,x15,x20
    c25c:	00178793          	addi	x15,x15,1
    c260:	40f686b3          	sub	x13,x13,x15
    c264:	00d99633          	sll	x12,x19,x13
    c268:	00f9dab3          	srl	x21,x19,x15
    c26c:	00c03633          	sltu	x12,x0,x12
    c270:	01566633          	or	x12,x12,x21
    c274:	00d716b3          	sll	x13,x14,x13
    c278:	00c6e9b3          	or	x19,x13,x12
    c27c:	00f75ab3          	srl	x21,x14,x15
    c280:	00000a13          	addi	x20,x0,0
    c284:	0079f793          	andi	x15,x19,7
    c288:	02078063          	beq	x15,x0,c2a8 <__adddf3+0x164>
    c28c:	00f9f793          	andi	x15,x19,15
    c290:	00400713          	addi	x14,x0,4
    c294:	00e78a63          	beq	x15,x14,c2a8 <__adddf3+0x164>
    c298:	00498793          	addi	x15,x19,4
    c29c:	0137b533          	sltu	x10,x15,x19
    c2a0:	00aa8ab3          	add	x21,x21,x10
    c2a4:	00078993          	addi	x19,x15,0
    c2a8:	008a9793          	slli	x15,x21,0x8
    c2ac:	6c07d863          	bge	x15,x0,c97c <__adddf3+0x838>
    c2b0:	001a0793          	addi	x15,x20,1
    c2b4:	7ff00713          	addi	x14,x0,2047
    c2b8:	00090893          	addi	x17,x18,0
    c2bc:	2ae78a63          	beq	x15,x14,c570 <__adddf3+0x42c>
    c2c0:	ff800737          	lui	x14,0xff800
    c2c4:	fff70713          	addi	x14,x14,-1 # ff7fffff <__heap_end+0xff3fffff>
    c2c8:	00eaf733          	and	x14,x21,x14
    c2cc:	7ff7f793          	andi	x15,x15,2047
    c2d0:	01d71813          	slli	x16,x14,0x1d
    c2d4:	0039d513          	srli	x10,x19,0x3
    c2d8:	00971713          	slli	x14,x14,0x9
    c2dc:	00a86833          	or	x16,x16,x10
    c2e0:	00c75713          	srli	x14,x14,0xc
    c2e4:	01c12083          	lw	x1,28(x2)
    c2e8:	01812403          	lw	x8,24(x2)
    c2ec:	01479793          	slli	x15,x15,0x14
    c2f0:	00e7e7b3          	or	x15,x15,x14
    c2f4:	01f89713          	slli	x14,x17,0x1f
    c2f8:	00e7e7b3          	or	x15,x15,x14
    c2fc:	01412483          	lw	x9,20(x2)
    c300:	01012903          	lw	x18,16(x2)
    c304:	00c12983          	lw	x19,12(x2)
    c308:	00812a03          	lw	x20,8(x2)
    c30c:	00412a83          	lw	x21,4(x2)
    c310:	00080513          	addi	x10,x16,0
    c314:	00078593          	addi	x11,x15,0
    c318:	02010113          	addi	x2,x2,32
    c31c:	00008067          	jalr	x0,0(x1)
    c320:	14078c63          	beq	x15,x0,c478 <__adddf3+0x334>
    c324:	414e87b3          	sub	x15,x29,x20
    c328:	3c0a1263          	bne	x20,x0,c6ec <__adddf3+0x5a8>
    c32c:	01c76533          	or	x10,x14,x28
    c330:	4c050463          	beq	x10,x0,c7f8 <__adddf3+0x6b4>
    c334:	fff78813          	addi	x16,x15,-1
    c338:	60080263          	beq	x16,x0,c93c <__adddf3+0x7f8>
    c33c:	7ff00513          	addi	x10,x0,2047
    c340:	56a78663          	beq	x15,x10,c8ac <__adddf3+0x768>
    c344:	03800793          	addi	x15,x0,56
    c348:	00100513          	addi	x10,x0,1
    c34c:	0307cc63          	blt	x15,x16,c384 <__adddf3+0x240>
    c350:	00080793          	addi	x15,x16,0
    c354:	01f00613          	addi	x12,x0,31
    c358:	56f64c63          	blt	x12,x15,c8d0 <__adddf3+0x78c>
    c35c:	02000613          	addi	x12,x0,32
    c360:	40f60633          	sub	x12,x12,x15
    c364:	00c71533          	sll	x10,x14,x12
    c368:	00fe5833          	srl	x16,x28,x15
    c36c:	00ce1633          	sll	x12,x28,x12
    c370:	01056533          	or	x10,x10,x16
    c374:	00c03633          	sltu	x12,x0,x12
    c378:	00f75733          	srl	x14,x14,x15
    c37c:	00c56533          	or	x10,x10,x12
    c380:	40e585b3          	sub	x11,x11,x14
    c384:	40af0533          	sub	x10,x30,x10
    c388:	00af3733          	sltu	x14,x30,x10
    c38c:	00050993          	addi	x19,x10,0
    c390:	40e58ab3          	sub	x21,x11,x14
    c394:	000e8a13          	addi	x20,x29,0
    c398:	00068913          	addi	x18,x13,0 # 800000 <__heap_end+0x400000>
    c39c:	e7dff06f          	jal	x0,c218 <__adddf3+0xd4>
    c3a0:	1ef05063          	bge	x0,x15,c580 <__adddf3+0x43c>
    c3a4:	140e9063          	bne	x29,x0,c4e4 <__adddf3+0x3a0>
    c3a8:	01e5e6b3          	or	x13,x11,x30
    c3ac:	26068c63          	beq	x13,x0,c624 <__adddf3+0x4e0>
    c3b0:	fff78693          	addi	x13,x15,-1
    c3b4:	48068063          	beq	x13,x0,c834 <__adddf3+0x6f0>
    c3b8:	7ff00613          	addi	x12,x0,2047
    c3bc:	22c78c63          	beq	x15,x12,c5f4 <__adddf3+0x4b0>
    c3c0:	03800793          	addi	x15,x0,56
    c3c4:	00100a93          	addi	x21,x0,1
    c3c8:	02d7cc63          	blt	x15,x13,c400 <__adddf3+0x2bc>
    c3cc:	00068793          	addi	x15,x13,0
    c3d0:	01f00693          	addi	x13,x0,31
    c3d4:	4af6c063          	blt	x13,x15,c874 <__adddf3+0x730>
    c3d8:	02000693          	addi	x13,x0,32
    c3dc:	40f686b3          	sub	x13,x13,x15
    c3e0:	00d59ab3          	sll	x21,x11,x13
    c3e4:	00ff5633          	srl	x12,x30,x15
    c3e8:	00df16b3          	sll	x13,x30,x13
    c3ec:	00caeab3          	or	x21,x21,x12
    c3f0:	00d036b3          	sltu	x13,x0,x13
    c3f4:	00f5d5b3          	srl	x11,x11,x15
    c3f8:	00daeab3          	or	x21,x21,x13
    c3fc:	00b70733          	add	x14,x14,x11
    c400:	01ca8633          	add	x12,x21,x28
    c404:	01563ab3          	sltu	x21,x12,x21
    c408:	00060993          	addi	x19,x12,0
    c40c:	00ea8ab3          	add	x21,x21,x14
    c410:	008a9793          	slli	x15,x21,0x8
    c414:	1407d263          	bge	x15,x0,c558 <__adddf3+0x414>
    c418:	001a0a13          	addi	x20,x20,1
    c41c:	7ff00793          	addi	x15,x0,2047
    c420:	36fa0c63          	beq	x20,x15,c798 <__adddf3+0x654>
    c424:	ff8007b7          	lui	x15,0xff800
    c428:	fff78793          	addi	x15,x15,-1 # ff7fffff <__heap_end+0xff3fffff>
    c42c:	0019f513          	andi	x10,x19,1
    c430:	00faf7b3          	and	x15,x21,x15
    c434:	0019d713          	srli	x14,x19,0x1
    c438:	00a76733          	or	x14,x14,x10
    c43c:	01f79513          	slli	x10,x15,0x1f
    c440:	00e569b3          	or	x19,x10,x14
    c444:	0017da93          	srli	x21,x15,0x1
    c448:	e3dff06f          	jal	x0,c284 <__adddf3+0x140>
    c44c:	01e5e6b3          	or	x13,x11,x30
    c450:	1c068a63          	beq	x13,x0,c624 <__adddf3+0x4e0>
    c454:	fff78693          	addi	x13,x15,-1
    c458:	40068063          	beq	x13,x0,c858 <__adddf3+0x714>
    c45c:	7ff00613          	addi	x12,x0,2047
    c460:	18c78a63          	beq	x15,x12,c5f4 <__adddf3+0x4b0>
    c464:	03800793          	addi	x15,x0,56
    c468:	00100513          	addi	x10,x0,1
    c46c:	d8d7cee3          	blt	x15,x13,c208 <__adddf3+0xc4>
    c470:	00068793          	addi	x15,x13,0
    c474:	d65ff06f          	jal	x0,c1d8 <__adddf3+0x94>
    c478:	001a0813          	addi	x16,x20,1
    c47c:	7fe87813          	andi	x16,x16,2046
    c480:	22081c63          	bne	x16,x0,c6b8 <__adddf3+0x574>
    c484:	01c768b3          	or	x17,x14,x28
    c488:	01e5e833          	or	x16,x11,x30
    c48c:	380a1063          	bne	x20,x0,c80c <__adddf3+0x6c8>
    c490:	46088e63          	beq	x17,x0,c90c <__adddf3+0x7c8>
    c494:	40080663          	beq	x16,x0,c8a0 <__adddf3+0x75c>
    c498:	41ee0ab3          	sub	x21,x28,x30
    c49c:	015e3533          	sltu	x10,x28,x21
    c4a0:	40b70633          	sub	x12,x14,x11
    c4a4:	40a60633          	sub	x12,x12,x10
    c4a8:	00861513          	slli	x10,x12,0x8
    c4ac:	50055e63          	bge	x10,x0,c9c8 <__adddf3+0x884>
    c4b0:	41cf0633          	sub	x12,x30,x28
    c4b4:	40e58733          	sub	x14,x11,x14
    c4b8:	00cf3f33          	sltu	x30,x30,x12
    c4bc:	41e70733          	sub	x14,x14,x30
    c4c0:	00871593          	slli	x11,x14,0x8
    c4c4:	00060993          	addi	x19,x12,0
    c4c8:	5205de63          	bge	x11,x0,ca04 <__adddf3+0x8c0>
    c4cc:	ff8007b7          	lui	x15,0xff800
    c4d0:	fff78793          	addi	x15,x15,-1 # ff7fffff <__heap_end+0xff3fffff>
    c4d4:	00f77733          	and	x14,x14,x15
    c4d8:	00068893          	addi	x17,x13,0
    c4dc:	00100793          	addi	x15,x0,1
    c4e0:	df1ff06f          	jal	x0,c2d0 <__adddf3+0x18c>
    c4e4:	7ff00693          	addi	x13,x0,2047
    c4e8:	10da0663          	beq	x20,x13,c5f4 <__adddf3+0x4b0>
    c4ec:	03800693          	addi	x13,x0,56
    c4f0:	00100a93          	addi	x21,x0,1
    c4f4:	f0f6c6e3          	blt	x13,x15,c400 <__adddf3+0x2bc>
    c4f8:	008006b7          	lui	x13,0x800
    c4fc:	00d5e5b3          	or	x11,x11,x13
    c500:	ed1ff06f          	jal	x0,c3d0 <__adddf3+0x28c>
    c504:	00098513          	addi	x10,x19,0
    c508:	274050ef          	jal	x1,1177c <__clzsi2>
    c50c:	01850793          	addi	x15,x10,24
    c510:	01f00693          	addi	x13,x0,31
    c514:	d2f6d4e3          	bge	x13,x15,c23c <__adddf3+0xf8>
    c518:	ff850713          	addi	x14,x10,-8
    c51c:	00e99733          	sll	x14,x19,x14
    c520:	2347c663          	blt	x15,x20,c74c <__adddf3+0x608>
    c524:	41478533          	sub	x10,x15,x20
    c528:	00150793          	addi	x15,x10,1
    c52c:	48f6d663          	bge	x13,x15,c9b8 <__adddf3+0x874>
    c530:	fe150513          	addi	x10,x10,-31
    c534:	02000693          	addi	x13,x0,32
    c538:	00a759b3          	srl	x19,x14,x10
    c53c:	00d78c63          	beq	x15,x13,c554 <__adddf3+0x410>
    c540:	04000693          	addi	x13,x0,64
    c544:	40f687b3          	sub	x15,x13,x15
    c548:	00f71733          	sll	x14,x14,x15
    c54c:	00e03733          	sltu	x14,x0,x14
    c550:	00e9e9b3          	or	x19,x19,x14
    c554:	00000a13          	addi	x20,x0,0
    c558:	0079f793          	andi	x15,x19,7
    c55c:	d20798e3          	bne	x15,x0,c28c <__adddf3+0x148>
    c560:	000a0793          	addi	x15,x20,0
    c564:	0039d513          	srli	x10,x19,0x3
    c568:	000a8713          	addi	x14,x21,0
    c56c:	0c00006f          	jal	x0,c62c <__adddf3+0x4e8>
    c570:	7ff00793          	addi	x15,x0,2047
    c574:	00000713          	addi	x14,x0,0
    c578:	00000813          	addi	x16,x0,0
    c57c:	d69ff06f          	jal	x0,c2e4 <__adddf3+0x1a0>
    c580:	0c078a63          	beq	x15,x0,c654 <__adddf3+0x510>
    c584:	414e87b3          	sub	x15,x29,x20
    c588:	1e0a0263          	beq	x20,x0,c76c <__adddf3+0x628>
    c58c:	7ff00693          	addi	x13,x0,2047
    c590:	32de8863          	beq	x29,x13,c8c0 <__adddf3+0x77c>
    c594:	03800693          	addi	x13,x0,56
    c598:	00100a93          	addi	x21,x0,1
    c59c:	02f6ce63          	blt	x13,x15,c5d8 <__adddf3+0x494>
    c5a0:	008006b7          	lui	x13,0x800
    c5a4:	00d76733          	or	x14,x14,x13
    c5a8:	01f00693          	addi	x13,x0,31
    c5ac:	3ef6c063          	blt	x13,x15,c98c <__adddf3+0x848>
    c5b0:	02000693          	addi	x13,x0,32
    c5b4:	40f686b3          	sub	x13,x13,x15
    c5b8:	00d71ab3          	sll	x21,x14,x13
    c5bc:	00fe5633          	srl	x12,x28,x15
    c5c0:	00de16b3          	sll	x13,x28,x13
    c5c4:	00caeab3          	or	x21,x21,x12
    c5c8:	00d036b3          	sltu	x13,x0,x13
    c5cc:	00f75733          	srl	x14,x14,x15
    c5d0:	00daeab3          	or	x21,x21,x13
    c5d4:	00e585b3          	add	x11,x11,x14
    c5d8:	01ea8733          	add	x14,x21,x30
    c5dc:	01573ab3          	sltu	x21,x14,x21
    c5e0:	00070993          	addi	x19,x14,0
    c5e4:	00ba8ab3          	add	x21,x21,x11
    c5e8:	000e8a13          	addi	x20,x29,0
    c5ec:	e25ff06f          	jal	x0,c410 <__adddf3+0x2cc>
    c5f0:	02081063          	bne	x16,x0,c610 <__adddf3+0x4cc>
    c5f4:	00351513          	slli	x10,x10,0x3
    c5f8:	00355513          	srli	x10,x10,0x3
    c5fc:	01d71813          	slli	x16,x14,0x1d
    c600:	00a86833          	or	x16,x16,x10
    c604:	00375713          	srli	x14,x14,0x3
    c608:	01076733          	or	x14,x14,x16
    c60c:	18070663          	beq	x14,x0,c798 <__adddf3+0x654>
    c610:	00000893          	addi	x17,x0,0
    c614:	7ff00793          	addi	x15,x0,2047
    c618:	00080737          	lui	x14,0x80
    c61c:	00000813          	addi	x16,x0,0
    c620:	cc5ff06f          	jal	x0,c2e4 <__adddf3+0x1a0>
    c624:	00351513          	slli	x10,x10,0x3
    c628:	00355513          	srli	x10,x10,0x3
    c62c:	01d71813          	slli	x16,x14,0x1d
    c630:	7ff00693          	addi	x13,x0,2047
    c634:	00a86833          	or	x16,x16,x10
    c638:	00375713          	srli	x14,x14,0x3
    c63c:	fcd786e3          	beq	x15,x13,c608 <__adddf3+0x4c4>
    c640:	00c71713          	slli	x14,x14,0xc
    c644:	00c75713          	srli	x14,x14,0xc
    c648:	7ff7f793          	andi	x15,x15,2047
    c64c:	00090893          	addi	x17,x18,0
    c650:	c95ff06f          	jal	x0,c2e4 <__adddf3+0x1a0>
    c654:	001a0693          	addi	x13,x20,1
    c658:	7fe6f813          	andi	x16,x13,2046
    c65c:	14081863          	bne	x16,x0,c7ac <__adddf3+0x668>
    c660:	01c766b3          	or	x13,x14,x28
    c664:	280a1c63          	bne	x20,x0,c8fc <__adddf3+0x7b8>
    c668:	30068263          	beq	x13,x0,c96c <__adddf3+0x828>
    c66c:	01e5e6b3          	or	x13,x11,x30
    c670:	22068863          	beq	x13,x0,c8a0 <__adddf3+0x75c>
    c674:	01ee07b3          	add	x15,x28,x30
    c678:	01c7b633          	sltu	x12,x15,x28
    c67c:	00b70733          	add	x14,x14,x11
    c680:	00c70733          	add	x14,x14,x12
    c684:	0037d813          	srli	x16,x15,0x3
    c688:	00871793          	slli	x15,x14,0x8
    c68c:	00090893          	addi	x17,x18,0
    c690:	3407de63          	bge	x15,x0,c9ec <__adddf3+0x8a8>
    c694:	ff8007b7          	lui	x15,0xff800
    c698:	fff78793          	addi	x15,x15,-1 # ff7fffff <__heap_end+0xff3fffff>
    c69c:	00f77733          	and	x14,x14,x15
    c6a0:	01d71793          	slli	x15,x14,0x1d
    c6a4:	00375713          	srli	x14,x14,0x3
    c6a8:	0107e833          	or	x16,x15,x16
    c6ac:	00677733          	and	x14,x14,x6
    c6b0:	00100793          	addi	x15,x0,1
    c6b4:	c31ff06f          	jal	x0,c2e4 <__adddf3+0x1a0>
    c6b8:	41ee0833          	sub	x16,x28,x30
    c6bc:	010e37b3          	sltu	x15,x28,x16
    c6c0:	40b70ab3          	sub	x21,x14,x11
    c6c4:	40fa8ab3          	sub	x21,x21,x15
    c6c8:	008a9793          	slli	x15,x21,0x8
    c6cc:	00080993          	addi	x19,x16,0
    c6d0:	1007c663          	blt	x15,x0,c7dc <__adddf3+0x698>
    c6d4:	01586833          	or	x16,x16,x21
    c6d8:	b4081ae3          	bne	x16,x0,c22c <__adddf3+0xe8>
    c6dc:	00000893          	addi	x17,x0,0
    c6e0:	00000793          	addi	x15,x0,0
    c6e4:	00000713          	addi	x14,x0,0
    c6e8:	bfdff06f          	jal	x0,c2e4 <__adddf3+0x1a0>
    c6ec:	7ff00513          	addi	x10,x0,2047
    c6f0:	1aae8e63          	beq	x29,x10,c8ac <__adddf3+0x768>
    c6f4:	03800613          	addi	x12,x0,56
    c6f8:	00100513          	addi	x10,x0,1
    c6fc:	c8f644e3          	blt	x12,x15,c384 <__adddf3+0x240>
    c700:	00800637          	lui	x12,0x800
    c704:	00c76733          	or	x14,x14,x12
    c708:	c4dff06f          	jal	x0,c354 <__adddf3+0x210>
    c70c:	ff800ab7          	lui	x21,0xff800
    c710:	fffa8a93          	addi	x21,x21,-1 # ff7fffff <__heap_end+0xff3fffff>
    c714:	40fa0a33          	sub	x20,x20,x15
    c718:	01577ab3          	and	x21,x14,x21
    c71c:	b69ff06f          	jal	x0,c284 <__adddf3+0x140>
    c720:	fe078693          	addi	x13,x15,-32
    c724:	02000613          	addi	x12,x0,32
    c728:	00d5d6b3          	srl	x13,x11,x13
    c72c:	00c78a63          	beq	x15,x12,c740 <__adddf3+0x5fc>
    c730:	04000613          	addi	x12,x0,64
    c734:	40f607b3          	sub	x15,x12,x15
    c738:	00f597b3          	sll	x15,x11,x15
    c73c:	00ff6f33          	or	x30,x30,x15
    c740:	01e03533          	sltu	x10,x0,x30
    c744:	00d56533          	or	x10,x10,x13
    c748:	ac1ff06f          	jal	x0,c208 <__adddf3+0xc4>
    c74c:	ff8006b7          	lui	x13,0xff800
    c750:	fff68693          	addi	x13,x13,-1 # ff7fffff <__heap_end+0xff3fffff>
    c754:	40fa07b3          	sub	x15,x20,x15
    c758:	00d77733          	and	x14,x14,x13
    c75c:	01d71813          	slli	x16,x14,0x1d
    c760:	01586833          	or	x16,x16,x21
    c764:	00375713          	srli	x14,x14,0x3
    c768:	ed9ff06f          	jal	x0,c640 <__adddf3+0x4fc>
    c76c:	01c766b3          	or	x13,x14,x28
    c770:	1e068663          	beq	x13,x0,c95c <__adddf3+0x818>
    c774:	fff78693          	addi	x13,x15,-1
    c778:	0a068e63          	beq	x13,x0,c834 <__adddf3+0x6f0>
    c77c:	7ff00513          	addi	x10,x0,2047
    c780:	14a78063          	beq	x15,x10,c8c0 <__adddf3+0x77c>
    c784:	03800793          	addi	x15,x0,56
    c788:	00100a93          	addi	x21,x0,1
    c78c:	e4d7c6e3          	blt	x15,x13,c5d8 <__adddf3+0x494>
    c790:	00068793          	addi	x15,x13,0
    c794:	e15ff06f          	jal	x0,c5a8 <__adddf3+0x464>
    c798:	00090893          	addi	x17,x18,0
    c79c:	7ff00793          	addi	x15,x0,2047
    c7a0:	00000713          	addi	x14,x0,0
    c7a4:	00000813          	addi	x16,x0,0
    c7a8:	b3dff06f          	jal	x0,c2e4 <__adddf3+0x1a0>
    c7ac:	7ff00793          	addi	x15,x0,2047
    c7b0:	fef684e3          	beq	x13,x15,c798 <__adddf3+0x654>
    c7b4:	01ee0f33          	add	x30,x28,x30
    c7b8:	01cf3633          	sltu	x12,x30,x28
    c7bc:	00b707b3          	add	x15,x14,x11
    c7c0:	00c787b3          	add	x15,x15,x12
    c7c4:	01f79513          	slli	x10,x15,0x1f
    c7c8:	001f5f13          	srli	x30,x30,0x1
    c7cc:	01e569b3          	or	x19,x10,x30
    c7d0:	0017da93          	srli	x21,x15,0x1
    c7d4:	00068a13          	addi	x20,x13,0
    c7d8:	aadff06f          	jal	x0,c284 <__adddf3+0x140>
    c7dc:	41cf0633          	sub	x12,x30,x28
    c7e0:	40e587b3          	sub	x15,x11,x14
    c7e4:	00cf3733          	sltu	x14,x30,x12
    c7e8:	00060993          	addi	x19,x12,0 # 800000 <__heap_end+0x400000>
    c7ec:	40e78ab3          	sub	x21,x15,x14
    c7f0:	00068913          	addi	x18,x13,0
    c7f4:	a39ff06f          	jal	x0,c22c <__adddf3+0xe8>
    c7f8:	00361613          	slli	x12,x12,0x3
    c7fc:	00365513          	srli	x10,x12,0x3
    c800:	00068913          	addi	x18,x13,0
    c804:	00058713          	addi	x14,x11,0
    c808:	e25ff06f          	jal	x0,c62c <__adddf3+0x4e8>
    c80c:	de0892e3          	bne	x17,x0,c5f0 <__adddf3+0x4ac>
    c810:	1c080663          	beq	x16,x0,c9dc <__adddf3+0x898>
    c814:	0035d713          	srli	x14,x11,0x3
    c818:	00361613          	slli	x12,x12,0x3
    c81c:	01d59593          	slli	x11,x11,0x1d
    c820:	00b76733          	or	x14,x14,x11
    c824:	00365613          	srli	x12,x12,0x3
    c828:	00c76733          	or	x14,x14,x12
    c82c:	00068913          	addi	x18,x13,0
    c830:	dddff06f          	jal	x0,c60c <__adddf3+0x4c8>
    c834:	01ee0f33          	add	x30,x28,x30
    c838:	00b705b3          	add	x11,x14,x11
    c83c:	01cf3633          	sltu	x12,x30,x28
    c840:	00c58ab3          	add	x21,x11,x12
    c844:	008a9793          	slli	x15,x21,0x8
    c848:	000f0993          	addi	x19,x30,0
    c84c:	0e07d463          	bge	x15,x0,c934 <__adddf3+0x7f0>
    c850:	00200a13          	addi	x20,x0,2
    c854:	bd1ff06f          	jal	x0,c424 <__adddf3+0x2e0>
    c858:	41ee0f33          	sub	x30,x28,x30
    c85c:	40b705b3          	sub	x11,x14,x11
    c860:	01ee3633          	sltu	x12,x28,x30
    c864:	000f0993          	addi	x19,x30,0
    c868:	40c58ab3          	sub	x21,x11,x12
    c86c:	00100a13          	addi	x20,x0,1
    c870:	9a9ff06f          	jal	x0,c218 <__adddf3+0xd4>
    c874:	fe078693          	addi	x13,x15,-32
    c878:	02000613          	addi	x12,x0,32
    c87c:	00d5d6b3          	srl	x13,x11,x13
    c880:	00c78a63          	beq	x15,x12,c894 <__adddf3+0x750>
    c884:	04000613          	addi	x12,x0,64
    c888:	40f607b3          	sub	x15,x12,x15
    c88c:	00f597b3          	sll	x15,x11,x15
    c890:	00ff6f33          	or	x30,x30,x15
    c894:	01e03ab3          	sltu	x21,x0,x30
    c898:	00daeab3          	or	x21,x21,x13
    c89c:	b65ff06f          	jal	x0,c400 <__adddf3+0x2bc>
    c8a0:	00351513          	slli	x10,x10,0x3
    c8a4:	00355a93          	srli	x21,x10,0x3
    c8a8:	eb5ff06f          	jal	x0,c75c <__adddf3+0x618>
    c8ac:	00361513          	slli	x10,x12,0x3
    c8b0:	00355513          	srli	x10,x10,0x3
    c8b4:	00068913          	addi	x18,x13,0
    c8b8:	00058713          	addi	x14,x11,0
    c8bc:	d41ff06f          	jal	x0,c5fc <__adddf3+0x4b8>
    c8c0:	00361513          	slli	x10,x12,0x3
    c8c4:	00355513          	srli	x10,x10,0x3
    c8c8:	00058713          	addi	x14,x11,0
    c8cc:	d31ff06f          	jal	x0,c5fc <__adddf3+0x4b8>
    c8d0:	fe078613          	addi	x12,x15,-32
    c8d4:	02000513          	addi	x10,x0,32
    c8d8:	00c75633          	srl	x12,x14,x12
    c8dc:	00a78a63          	beq	x15,x10,c8f0 <__adddf3+0x7ac>
    c8e0:	04000513          	addi	x10,x0,64
    c8e4:	40f507b3          	sub	x15,x10,x15
    c8e8:	00f717b3          	sll	x15,x14,x15
    c8ec:	00fe6e33          	or	x28,x28,x15
    c8f0:	01c03533          	sltu	x10,x0,x28
    c8f4:	00c56533          	or	x10,x10,x12
    c8f8:	a8dff06f          	jal	x0,c384 <__adddf3+0x240>
    c8fc:	fc0682e3          	beq	x13,x0,c8c0 <__adddf3+0x77c>
    c900:	01e5ef33          	or	x30,x11,x30
    c904:	d00f16e3          	bne	x30,x0,c610 <__adddf3+0x4cc>
    c908:	cedff06f          	jal	x0,c5f4 <__adddf3+0x4b0>
    c90c:	dc0808e3          	beq	x16,x0,c6dc <__adddf3+0x598>
    c910:	00361813          	slli	x16,x12,0x3
    c914:	01d59793          	slli	x15,x11,0x1d
    c918:	00385813          	srli	x16,x16,0x3
    c91c:	0035d713          	srli	x14,x11,0x3
    c920:	00f86833          	or	x16,x16,x15
    c924:	00677733          	and	x14,x14,x6
    c928:	00068893          	addi	x17,x13,0
    c92c:	00000793          	addi	x15,x0,0
    c930:	9b5ff06f          	jal	x0,c2e4 <__adddf3+0x1a0>
    c934:	00100793          	addi	x15,x0,1
    c938:	c2dff06f          	jal	x0,c564 <__adddf3+0x420>
    c93c:	41cf0633          	sub	x12,x30,x28
    c940:	40e585b3          	sub	x11,x11,x14
    c944:	00cf3733          	sltu	x14,x30,x12
    c948:	00060993          	addi	x19,x12,0
    c94c:	40e58ab3          	sub	x21,x11,x14
    c950:	00068913          	addi	x18,x13,0
    c954:	00100a13          	addi	x20,x0,1
    c958:	8c1ff06f          	jal	x0,c218 <__adddf3+0xd4>
    c95c:	00361613          	slli	x12,x12,0x3
    c960:	00365513          	srli	x10,x12,0x3
    c964:	00058713          	addi	x14,x11,0
    c968:	cc5ff06f          	jal	x0,c62c <__adddf3+0x4e8>
    c96c:	00361613          	slli	x12,x12,0x3
    c970:	00365a93          	srli	x21,x12,0x3
    c974:	00058713          	addi	x14,x11,0
    c978:	de5ff06f          	jal	x0,c75c <__adddf3+0x618>
    c97c:	0039d513          	srli	x10,x19,0x3
    c980:	000a0793          	addi	x15,x20,0
    c984:	000a8713          	addi	x14,x21,0
    c988:	ca5ff06f          	jal	x0,c62c <__adddf3+0x4e8>
    c98c:	fe078693          	addi	x13,x15,-32
    c990:	02000613          	addi	x12,x0,32
    c994:	00d756b3          	srl	x13,x14,x13
    c998:	00c78a63          	beq	x15,x12,c9ac <__adddf3+0x868>
    c99c:	04000613          	addi	x12,x0,64
    c9a0:	40f607b3          	sub	x15,x12,x15
    c9a4:	00f717b3          	sll	x15,x14,x15
    c9a8:	00fe6e33          	or	x28,x28,x15
    c9ac:	01c03ab3          	sltu	x21,x0,x28
    c9b0:	00daeab3          	or	x21,x21,x13
    c9b4:	c25ff06f          	jal	x0,c5d8 <__adddf3+0x494>
    c9b8:	02000693          	addi	x13,x0,32
    c9bc:	40f686b3          	sub	x13,x13,x15
    c9c0:	00000613          	addi	x12,x0,0
    c9c4:	8adff06f          	jal	x0,c270 <__adddf3+0x12c>
    c9c8:	00cae833          	or	x16,x21,x12
    c9cc:	d00808e3          	beq	x16,x0,c6dc <__adddf3+0x598>
    c9d0:	003ada93          	srli	x21,x21,0x3
    c9d4:	00060713          	addi	x14,x12,0
    c9d8:	d85ff06f          	jal	x0,c75c <__adddf3+0x618>
    c9dc:	00000893          	addi	x17,x0,0
    c9e0:	7ff00793          	addi	x15,x0,2047
    c9e4:	00080737          	lui	x14,0x80
    c9e8:	8fdff06f          	jal	x0,c2e4 <__adddf3+0x1a0>
    c9ec:	01d71793          	slli	x15,x14,0x1d
    c9f0:	00375713          	srli	x14,x14,0x3
    c9f4:	0107e833          	or	x16,x15,x16
    c9f8:	00677733          	and	x14,x14,x6
    c9fc:	00000793          	addi	x15,x0,0
    ca00:	8e5ff06f          	jal	x0,c2e4 <__adddf3+0x1a0>
    ca04:	01d71813          	slli	x16,x14,0x1d
    ca08:	00365613          	srli	x12,x12,0x3
    ca0c:	00c86833          	or	x16,x16,x12
    ca10:	00375713          	srli	x14,x14,0x3
    ca14:	00068913          	addi	x18,x13,0
    ca18:	c29ff06f          	jal	x0,c640 <__adddf3+0x4fc>

0000ca1c <__divdf3>:
    ca1c:	fd010113          	addi	x2,x2,-48
    ca20:	01312e23          	sw	x19,28(x2)
    ca24:	0145d993          	srli	x19,x11,0x14
    ca28:	02812423          	sw	x8,40(x2)
    ca2c:	02912223          	sw	x9,36(x2)
    ca30:	03212023          	sw	x18,32(x2)
    ca34:	01712623          	sw	x23,12(x2)
    ca38:	01912223          	sw	x25,4(x2)
    ca3c:	00c59493          	slli	x9,x11,0xc
    ca40:	02112623          	sw	x1,44(x2)
    ca44:	01412c23          	sw	x20,24(x2)
    ca48:	01512a23          	sw	x21,20(x2)
    ca4c:	01612823          	sw	x22,16(x2)
    ca50:	01812423          	sw	x24,8(x2)
    ca54:	01a12023          	sw	x26,0(x2)
    ca58:	7ff9f993          	andi	x19,x19,2047
    ca5c:	00050413          	addi	x8,x10,0
    ca60:	00060c93          	addi	x25,x12,0
    ca64:	00068913          	addi	x18,x13,0
    ca68:	00c4d493          	srli	x9,x9,0xc
    ca6c:	01f5db93          	srli	x23,x11,0x1f
    ca70:	18098e63          	beq	x19,x0,cc0c <__divdf3+0x1f0>
    ca74:	7ff00793          	addi	x15,x0,2047
    ca78:	08f98863          	beq	x19,x15,cb08 <__divdf3+0xec>
    ca7c:	00349493          	slli	x9,x9,0x3
    ca80:	01d55713          	srli	x14,x10,0x1d
    ca84:	00976733          	or	x14,x14,x9
    ca88:	008007b7          	lui	x15,0x800
    ca8c:	00f76c33          	or	x24,x14,x15
    ca90:	00351b13          	slli	x22,x10,0x3
    ca94:	c0198993          	addi	x19,x19,-1023
    ca98:	00000493          	addi	x9,x0,0
    ca9c:	00000d13          	addi	x26,x0,0
    caa0:	01495793          	srli	x15,x18,0x14
    caa4:	00c91413          	slli	x8,x18,0xc
    caa8:	7ff7f793          	andi	x15,x15,2047
    caac:	00c45413          	srli	x8,x8,0xc
    cab0:	01f95913          	srli	x18,x18,0x1f
    cab4:	08078263          	beq	x15,x0,cb38 <__divdf3+0x11c>
    cab8:	7ff00713          	addi	x14,x0,2047
    cabc:	18e78e63          	beq	x15,x14,cc58 <__divdf3+0x23c>
    cac0:	00341413          	slli	x8,x8,0x3
    cac4:	01dcd713          	srli	x14,x25,0x1d
    cac8:	00876733          	or	x14,x14,x8
    cacc:	c0178793          	addi	x15,x15,-1023 # 7ffc01 <__heap_end+0x3ffc01>
    cad0:	00800437          	lui	x8,0x800
    cad4:	00876433          	or	x8,x14,x8
    cad8:	003c9593          	slli	x11,x25,0x3
    cadc:	40f989b3          	sub	x19,x19,x15
    cae0:	00000713          	addi	x14,x0,0
    cae4:	00f00793          	addi	x15,x0,15
    cae8:	012bc6b3          	xor	x13,x23,x18
    caec:	2497e863          	bltu	x15,x9,cd3c <__divdf3+0x320>
    caf0:	000127b7          	lui	x15,0x12
    caf4:	36c78793          	addi	x15,x15,876 # 1236c <_ctype_+0x104>
    caf8:	00249493          	slli	x9,x9,0x2
    cafc:	00f484b3          	add	x9,x9,x15
    cb00:	0004a783          	lw	x15,0(x9)
    cb04:	00078067          	jalr	x0,0(x15)
    cb08:	00a4ec33          	or	x24,x9,x10
    cb0c:	1e0c1263          	bne	x24,x0,ccf0 <__divdf3+0x2d4>
    cb10:	01495793          	srli	x15,x18,0x14
    cb14:	00c91413          	slli	x8,x18,0xc
    cb18:	7ff7f793          	andi	x15,x15,2047
    cb1c:	00000b13          	addi	x22,x0,0
    cb20:	00800493          	addi	x9,x0,8
    cb24:	7ff00993          	addi	x19,x0,2047
    cb28:	00200d13          	addi	x26,x0,2
    cb2c:	00c45413          	srli	x8,x8,0xc
    cb30:	01f95913          	srli	x18,x18,0x1f
    cb34:	f80792e3          	bne	x15,x0,cab8 <__divdf3+0x9c>
    cb38:	019465b3          	or	x11,x8,x25
    cb3c:	1c058663          	beq	x11,x0,cd08 <__divdf3+0x2ec>
    cb40:	4a040863          	beq	x8,x0,cff0 <__divdf3+0x5d4>
    cb44:	00040513          	addi	x10,x8,0 # 800000 <__heap_end+0x400000>
    cb48:	435040ef          	jal	x1,1177c <__clzsi2>
    cb4c:	00050793          	addi	x15,x10,0
    cb50:	ff550693          	addi	x13,x10,-11
    cb54:	01d00713          	addi	x14,x0,29
    cb58:	ff878593          	addi	x11,x15,-8
    cb5c:	40d70733          	sub	x14,x14,x13
    cb60:	00b41433          	sll	x8,x8,x11
    cb64:	00ecd733          	srl	x14,x25,x14
    cb68:	00876433          	or	x8,x14,x8
    cb6c:	00bc95b3          	sll	x11,x25,x11
    cb70:	013787b3          	add	x15,x15,x19
    cb74:	3f378993          	addi	x19,x15,1011
    cb78:	00000713          	addi	x14,x0,0
    cb7c:	f69ff06f          	jal	x0,cae4 <__divdf3+0xc8>
    cb80:	40f60633          	sub	x12,x12,x15
    cb84:	03800713          	addi	x14,x0,56
    cb88:	4ec75863          	bge	x14,x12,d078 <__divdf3+0x65c>
    cb8c:	00000793          	addi	x15,x0,0
    cb90:	00000613          	addi	x12,x0,0
    cb94:	00000713          	addi	x14,x0,0
    cb98:	02c12083          	lw	x1,44(x2)
    cb9c:	02812403          	lw	x8,40(x2)
    cba0:	01479793          	slli	x15,x15,0x14
    cba4:	00c7e7b3          	or	x15,x15,x12
    cba8:	01f69693          	slli	x13,x13,0x1f
    cbac:	00d7e7b3          	or	x15,x15,x13
    cbb0:	02412483          	lw	x9,36(x2)
    cbb4:	02012903          	lw	x18,32(x2)
    cbb8:	01c12983          	lw	x19,28(x2)
    cbbc:	01812a03          	lw	x20,24(x2)
    cbc0:	01412a83          	lw	x21,20(x2)
    cbc4:	01012b03          	lw	x22,16(x2)
    cbc8:	00c12b83          	lw	x23,12(x2)
    cbcc:	00812c03          	lw	x24,8(x2)
    cbd0:	00412c83          	lw	x25,4(x2)
    cbd4:	00012d03          	lw	x26,0(x2)
    cbd8:	00070513          	addi	x10,x14,0 # 80000 <__heap_start+0x6d130>
    cbdc:	00078593          	addi	x11,x15,0
    cbe0:	03010113          	addi	x2,x2,48
    cbe4:	00008067          	jalr	x0,0(x1)
    cbe8:	7ff00793          	addi	x15,x0,2047
    cbec:	00000613          	addi	x12,x0,0
    cbf0:	00000713          	addi	x14,x0,0
    cbf4:	fa5ff06f          	jal	x0,cb98 <__divdf3+0x17c>
    cbf8:	00000693          	addi	x13,x0,0
    cbfc:	7ff00793          	addi	x15,x0,2047
    cc00:	00080637          	lui	x12,0x80
    cc04:	00000713          	addi	x14,x0,0
    cc08:	f91ff06f          	jal	x0,cb98 <__divdf3+0x17c>
    cc0c:	00a4ec33          	or	x24,x9,x10
    cc10:	100c0c63          	beq	x24,x0,cd28 <__divdf3+0x30c>
    cc14:	40048263          	beq	x9,x0,d018 <__divdf3+0x5fc>
    cc18:	00048513          	addi	x10,x9,0
    cc1c:	361040ef          	jal	x1,1177c <__clzsi2>
    cc20:	00050793          	addi	x15,x10,0
    cc24:	ff550693          	addi	x13,x10,-11
    cc28:	01d00713          	addi	x14,x0,29
    cc2c:	ff878b13          	addi	x22,x15,-8
    cc30:	40d70733          	sub	x14,x14,x13
    cc34:	016494b3          	sll	x9,x9,x22
    cc38:	00e45733          	srl	x14,x8,x14
    cc3c:	00976c33          	or	x24,x14,x9
    cc40:	01641b33          	sll	x22,x8,x22
    cc44:	c0d00993          	addi	x19,x0,-1011
    cc48:	40f989b3          	sub	x19,x19,x15
    cc4c:	00000493          	addi	x9,x0,0
    cc50:	00000d13          	addi	x26,x0,0
    cc54:	e4dff06f          	jal	x0,caa0 <__divdf3+0x84>
    cc58:	019465b3          	or	x11,x8,x25
    cc5c:	80198993          	addi	x19,x19,-2047
    cc60:	0a059c63          	bne	x11,x0,cd18 <__divdf3+0x2fc>
    cc64:	0024e493          	ori	x9,x9,2
    cc68:	00000413          	addi	x8,x0,0
    cc6c:	00200713          	addi	x14,x0,2
    cc70:	e75ff06f          	jal	x0,cae4 <__divdf3+0xc8>
    cc74:	000b8913          	addi	x18,x23,0
    cc78:	000c0413          	addi	x8,x24,0
    cc7c:	000b0593          	addi	x11,x22,0
    cc80:	00200793          	addi	x15,x0,2
    cc84:	4efd0263          	beq	x26,x15,d168 <__divdf3+0x74c>
    cc88:	00300793          	addi	x15,x0,3
    cc8c:	f6fd06e3          	beq	x26,x15,cbf8 <__divdf3+0x1dc>
    cc90:	00100793          	addi	x15,x0,1
    cc94:	00090693          	addi	x13,x18,0
    cc98:	eefd0ae3          	beq	x26,x15,cb8c <__divdf3+0x170>
    cc9c:	3ff98793          	addi	x15,x19,1023
    cca0:	2af05063          	bge	x0,x15,cf40 <__divdf3+0x524>
    cca4:	0075f713          	andi	x14,x11,7
    cca8:	4a071063          	bne	x14,x0,d148 <__divdf3+0x72c>
    ccac:	00741713          	slli	x14,x8,0x7
    ccb0:	00075a63          	bge	x14,x0,ccc4 <__divdf3+0x2a8>
    ccb4:	ff0007b7          	lui	x15,0xff000
    ccb8:	fff78793          	addi	x15,x15,-1 # feffffff <__heap_end+0xfebfffff>
    ccbc:	00f47433          	and	x8,x8,x15
    ccc0:	40098793          	addi	x15,x19,1024
    ccc4:	7fe00713          	addi	x14,x0,2046
    ccc8:	f2f740e3          	blt	x14,x15,cbe8 <__divdf3+0x1cc>
    cccc:	0035d593          	srli	x11,x11,0x3
    ccd0:	01d41713          	slli	x14,x8,0x1d
    ccd4:	00941613          	slli	x12,x8,0x9
    ccd8:	00b76733          	or	x14,x14,x11
    ccdc:	00c65613          	srli	x12,x12,0xc
    cce0:	7ff7f793          	andi	x15,x15,2047
    cce4:	eb5ff06f          	jal	x0,cb98 <__divdf3+0x17c>
    cce8:	00070d13          	addi	x26,x14,0
    ccec:	f95ff06f          	jal	x0,cc80 <__divdf3+0x264>
    ccf0:	00048c13          	addi	x24,x9,0
    ccf4:	00050b13          	addi	x22,x10,0
    ccf8:	00c00493          	addi	x9,x0,12
    ccfc:	7ff00993          	addi	x19,x0,2047
    cd00:	00300d13          	addi	x26,x0,3
    cd04:	d9dff06f          	jal	x0,caa0 <__divdf3+0x84>
    cd08:	0014e493          	ori	x9,x9,1
    cd0c:	00000413          	addi	x8,x0,0
    cd10:	00100713          	addi	x14,x0,1
    cd14:	dd1ff06f          	jal	x0,cae4 <__divdf3+0xc8>
    cd18:	0034e493          	ori	x9,x9,3
    cd1c:	000c8593          	addi	x11,x25,0
    cd20:	00300713          	addi	x14,x0,3
    cd24:	dc1ff06f          	jal	x0,cae4 <__divdf3+0xc8>
    cd28:	00000b13          	addi	x22,x0,0
    cd2c:	00400493          	addi	x9,x0,4
    cd30:	00000993          	addi	x19,x0,0
    cd34:	00100d13          	addi	x26,x0,1
    cd38:	d69ff06f          	jal	x0,caa0 <__divdf3+0x84>
    cd3c:	29846e63          	bltu	x8,x24,cfd8 <__divdf3+0x5bc>
    cd40:	288c0a63          	beq	x24,x8,cfd4 <__divdf3+0x5b8>
    cd44:	000b0793          	addi	x15,x22,0
    cd48:	fff98993          	addi	x19,x19,-1
    cd4c:	000c0713          	addi	x14,x24,0
    cd50:	00000b13          	addi	x22,x0,0
    cd54:	00841613          	slli	x12,x8,0x8
    cd58:	01065893          	srli	x17,x12,0x10
    cd5c:	03175433          	divu	x8,x14,x17
    cd60:	0185d513          	srli	x10,x11,0x18
    cd64:	00c56533          	or	x10,x10,x12
    cd68:	01051313          	slli	x6,x10,0x10
    cd6c:	01035313          	srli	x6,x6,0x10
    cd70:	00859813          	slli	x16,x11,0x8
    cd74:	0107d613          	srli	x12,x15,0x10
    cd78:	03177733          	remu	x14,x14,x17
    cd7c:	028305b3          	mul	x11,x6,x8
    cd80:	01071713          	slli	x14,x14,0x10
    cd84:	00e66733          	or	x14,x12,x14
    cd88:	00b77a63          	bgeu	x14,x11,cd9c <__divdf3+0x380>
    cd8c:	00e50733          	add	x14,x10,x14
    cd90:	fff40613          	addi	x12,x8,-1
    cd94:	2ca77a63          	bgeu	x14,x10,d068 <__divdf3+0x64c>
    cd98:	00060413          	addi	x8,x12,0 # 80000 <__heap_start+0x6d130>
    cd9c:	40b70733          	sub	x14,x14,x11
    cda0:	03175633          	divu	x12,x14,x17
    cda4:	01079793          	slli	x15,x15,0x10
    cda8:	0107d793          	srli	x15,x15,0x10
    cdac:	03177733          	remu	x14,x14,x17
    cdb0:	02c30eb3          	mul	x29,x6,x12
    cdb4:	01071713          	slli	x14,x14,0x10
    cdb8:	00e7e7b3          	or	x15,x15,x14
    cdbc:	01d7fa63          	bgeu	x15,x29,cdd0 <__divdf3+0x3b4>
    cdc0:	00f507b3          	add	x15,x10,x15
    cdc4:	fff60713          	addi	x14,x12,-1
    cdc8:	28a7f863          	bgeu	x15,x10,d058 <__divdf3+0x63c>
    cdcc:	00070613          	addi	x12,x14,0
    cdd0:	01041413          	slli	x8,x8,0x10
    cdd4:	00c46433          	or	x8,x8,x12
    cdd8:	01041593          	slli	x11,x8,0x10
    cddc:	01081e13          	slli	x28,x16,0x10
    cde0:	01045f13          	srli	x30,x8,0x10
    cde4:	01085613          	srli	x12,x16,0x10
    cde8:	0105d593          	srli	x11,x11,0x10
    cdec:	010e5e13          	srli	x28,x28,0x10
    cdf0:	03c58fb3          	mul	x31,x11,x28
    cdf4:	41d787b3          	sub	x15,x15,x29
    cdf8:	02b605b3          	mul	x11,x12,x11
    cdfc:	010fd713          	srli	x14,x31,0x10
    ce00:	03cf0eb3          	mul	x29,x30,x28
    ce04:	01d585b3          	add	x11,x11,x29
    ce08:	00b70733          	add	x14,x14,x11
    ce0c:	02cf0f33          	mul	x30,x30,x12
    ce10:	01d77663          	bgeu	x14,x29,ce1c <__divdf3+0x400>
    ce14:	000105b7          	lui	x11,0x10
    ce18:	00bf0f33          	add	x30,x30,x11
    ce1c:	01075593          	srli	x11,x14,0x10
    ce20:	010f9f93          	slli	x31,x31,0x10
    ce24:	01071e93          	slli	x29,x14,0x10
    ce28:	010fdf93          	srli	x31,x31,0x10
    ce2c:	01e58733          	add	x14,x11,x30
    ce30:	01fe8eb3          	add	x29,x29,x31
    ce34:	16e7ea63          	bltu	x15,x14,cfa8 <__divdf3+0x58c>
    ce38:	16e78663          	beq	x15,x14,cfa4 <__divdf3+0x588>
    ce3c:	41db0eb3          	sub	x29,x22,x29
    ce40:	40e787b3          	sub	x15,x15,x14
    ce44:	01db3b33          	sltu	x22,x22,x29
    ce48:	416787b3          	sub	x15,x15,x22
    ce4c:	2cf50c63          	beq	x10,x15,d124 <__divdf3+0x708>
    ce50:	0317d5b3          	divu	x11,x15,x17
    ce54:	010ed713          	srli	x14,x29,0x10
    ce58:	0317f7b3          	remu	x15,x15,x17
    ce5c:	02b30f33          	mul	x30,x6,x11
    ce60:	01079793          	slli	x15,x15,0x10
    ce64:	00f76733          	or	x14,x14,x15
    ce68:	01e77e63          	bgeu	x14,x30,ce84 <__divdf3+0x468>
    ce6c:	00e50733          	add	x14,x10,x14
    ce70:	fff58793          	addi	x15,x11,-1 # ffff <__subtf3+0x56f>
    ce74:	2ea76663          	bltu	x14,x10,d160 <__divdf3+0x744>
    ce78:	2fe77463          	bgeu	x14,x30,d160 <__divdf3+0x744>
    ce7c:	ffe58593          	addi	x11,x11,-2
    ce80:	00a70733          	add	x14,x14,x10
    ce84:	41e70733          	sub	x14,x14,x30
    ce88:	03175f33          	divu	x30,x14,x17
    ce8c:	010e9793          	slli	x15,x29,0x10
    ce90:	0107d793          	srli	x15,x15,0x10
    ce94:	03177733          	remu	x14,x14,x17
    ce98:	03e30333          	mul	x6,x6,x30
    ce9c:	01071713          	slli	x14,x14,0x10
    cea0:	00e7e7b3          	or	x15,x15,x14
    cea4:	0067fe63          	bgeu	x15,x6,cec0 <__divdf3+0x4a4>
    cea8:	00f507b3          	add	x15,x10,x15
    ceac:	ffff0713          	addi	x14,x30,-1
    ceb0:	2aa7e463          	bltu	x15,x10,d158 <__divdf3+0x73c>
    ceb4:	2a67f263          	bgeu	x15,x6,d158 <__divdf3+0x73c>
    ceb8:	ffef0f13          	addi	x30,x30,-2
    cebc:	00a787b3          	add	x15,x15,x10
    cec0:	01059593          	slli	x11,x11,0x10
    cec4:	01e5e5b3          	or	x11,x11,x30
    cec8:	01059893          	slli	x17,x11,0x10
    cecc:	0105df13          	srli	x30,x11,0x10
    ced0:	0108d893          	srli	x17,x17,0x10
    ced4:	031e0eb3          	mul	x29,x28,x17
    ced8:	406787b3          	sub	x15,x15,x6
    cedc:	031608b3          	mul	x17,x12,x17
    cee0:	010ed713          	srli	x14,x29,0x10
    cee4:	03cf0e33          	mul	x28,x30,x28
    cee8:	01c888b3          	add	x17,x17,x28
    ceec:	01170733          	add	x14,x14,x17
    cef0:	03e60633          	mul	x12,x12,x30
    cef4:	01c77663          	bgeu	x14,x28,cf00 <__divdf3+0x4e4>
    cef8:	000108b7          	lui	x17,0x10
    cefc:	01160633          	add	x12,x12,x17
    cf00:	01075893          	srli	x17,x14,0x10
    cf04:	010e9e93          	slli	x29,x29,0x10
    cf08:	01071713          	slli	x14,x14,0x10
    cf0c:	010ede93          	srli	x29,x29,0x10
    cf10:	00c88633          	add	x12,x17,x12
    cf14:	01d70733          	add	x14,x14,x29
    cf18:	12c7f263          	bgeu	x15,x12,d03c <__divdf3+0x620>
    cf1c:	00f507b3          	add	x15,x10,x15
    cf20:	fff58313          	addi	x6,x11,-1
    cf24:	00078893          	addi	x17,x15,0
    cf28:	1ca7e463          	bltu	x15,x10,d0f0 <__divdf3+0x6d4>
    cf2c:	24c7e863          	bltu	x15,x12,d17c <__divdf3+0x760>
    cf30:	26c78663          	beq	x15,x12,d19c <__divdf3+0x780>
    cf34:	00030593          	addi	x11,x6,0
    cf38:	0015e593          	ori	x11,x11,1
    cf3c:	d61ff06f          	jal	x0,cc9c <__divdf3+0x280>
    cf40:	00100613          	addi	x12,x0,1
    cf44:	c2079ee3          	bne	x15,x0,cb80 <__divdf3+0x164>
    cf48:	41e98993          	addi	x19,x19,1054
    cf4c:	013597b3          	sll	x15,x11,x19
    cf50:	00f037b3          	sltu	x15,x0,x15
    cf54:	013419b3          	sll	x19,x8,x19
    cf58:	0137e7b3          	or	x15,x15,x19
    cf5c:	00c5d733          	srl	x14,x11,x12
    cf60:	00f76733          	or	x14,x14,x15
    cf64:	00777793          	andi	x15,x14,7
    cf68:	00c45433          	srl	x8,x8,x12
    cf6c:	02078063          	beq	x15,x0,cf8c <__divdf3+0x570>
    cf70:	00f77793          	andi	x15,x14,15
    cf74:	00400613          	addi	x12,x0,4
    cf78:	00c78a63          	beq	x15,x12,cf8c <__divdf3+0x570>
    cf7c:	00470793          	addi	x15,x14,4
    cf80:	00e7b733          	sltu	x14,x15,x14
    cf84:	00e40433          	add	x8,x8,x14
    cf88:	00078713          	addi	x14,x15,0
    cf8c:	00841793          	slli	x15,x8,0x8
    cf90:	1407d263          	bge	x15,x0,d0d4 <__divdf3+0x6b8>
    cf94:	00100793          	addi	x15,x0,1
    cf98:	00000613          	addi	x12,x0,0
    cf9c:	00000713          	addi	x14,x0,0
    cfa0:	bf9ff06f          	jal	x0,cb98 <__divdf3+0x17c>
    cfa4:	e9db7ce3          	bgeu	x22,x29,ce3c <__divdf3+0x420>
    cfa8:	010b05b3          	add	x11,x22,x16
    cfac:	0165bf33          	sltu	x30,x11,x22
    cfb0:	00af0fb3          	add	x31,x30,x10
    cfb4:	01f787b3          	add	x15,x15,x31
    cfb8:	00058b13          	addi	x22,x11,0
    cfbc:	fff40f93          	addi	x31,x8,-1
    cfc0:	08f57463          	bgeu	x10,x15,d048 <__divdf3+0x62c>
    cfc4:	14e7e263          	bltu	x15,x14,d108 <__divdf3+0x6ec>
    cfc8:	12f70e63          	beq	x14,x15,d104 <__divdf3+0x6e8>
    cfcc:	000f8413          	addi	x8,x31,0
    cfd0:	e6dff06f          	jal	x0,ce3c <__divdf3+0x420>
    cfd4:	d6bb68e3          	bltu	x22,x11,cd44 <__divdf3+0x328>
    cfd8:	001b5613          	srli	x12,x22,0x1
    cfdc:	01fc1793          	slli	x15,x24,0x1f
    cfe0:	001c5713          	srli	x14,x24,0x1
    cfe4:	00c7e7b3          	or	x15,x15,x12
    cfe8:	01fb1b13          	slli	x22,x22,0x1f
    cfec:	d69ff06f          	jal	x0,cd54 <__divdf3+0x338>
    cff0:	000c8513          	addi	x10,x25,0
    cff4:	788040ef          	jal	x1,1177c <__clzsi2>
    cff8:	01550693          	addi	x13,x10,21
    cffc:	01c00713          	addi	x14,x0,28
    d000:	02050793          	addi	x15,x10,32
    d004:	b4d758e3          	bge	x14,x13,cb54 <__divdf3+0x138>
    d008:	ff850513          	addi	x10,x10,-8
    d00c:	00000593          	addi	x11,x0,0
    d010:	00ac9433          	sll	x8,x25,x10
    d014:	b5dff06f          	jal	x0,cb70 <__divdf3+0x154>
    d018:	764040ef          	jal	x1,1177c <__clzsi2>
    d01c:	01550693          	addi	x13,x10,21
    d020:	01c00713          	addi	x14,x0,28
    d024:	02050793          	addi	x15,x10,32
    d028:	c0d750e3          	bge	x14,x13,cc28 <__divdf3+0x20c>
    d02c:	ff850713          	addi	x14,x10,-8
    d030:	00e41c33          	sll	x24,x8,x14
    d034:	00000b13          	addi	x22,x0,0
    d038:	c0dff06f          	jal	x0,cc44 <__divdf3+0x228>
    d03c:	eec79ee3          	bne	x15,x12,cf38 <__divdf3+0x51c>
    d040:	c4070ee3          	beq	x14,x0,cc9c <__divdf3+0x280>
    d044:	ed9ff06f          	jal	x0,cf1c <__divdf3+0x500>
    d048:	f8f512e3          	bne	x10,x15,cfcc <__divdf3+0x5b0>
    d04c:	f60f0ce3          	beq	x30,x0,cfc4 <__divdf3+0x5a8>
    d050:	000f8413          	addi	x8,x31,0
    d054:	de9ff06f          	jal	x0,ce3c <__divdf3+0x420>
    d058:	d7d7fae3          	bgeu	x15,x29,cdcc <__divdf3+0x3b0>
    d05c:	ffe60613          	addi	x12,x12,-2
    d060:	00a787b3          	add	x15,x15,x10
    d064:	d6dff06f          	jal	x0,cdd0 <__divdf3+0x3b4>
    d068:	d2b778e3          	bgeu	x14,x11,cd98 <__divdf3+0x37c>
    d06c:	ffe40413          	addi	x8,x8,-2
    d070:	00a70733          	add	x14,x14,x10
    d074:	d29ff06f          	jal	x0,cd9c <__divdf3+0x380>
    d078:	01f00713          	addi	x14,x0,31
    d07c:	ecc756e3          	bge	x14,x12,cf48 <__divdf3+0x52c>
    d080:	fe100713          	addi	x14,x0,-31
    d084:	40f707b3          	sub	x15,x14,x15
    d088:	02000713          	addi	x14,x0,32
    d08c:	00f457b3          	srl	x15,x8,x15
    d090:	00e60863          	beq	x12,x14,d0a0 <__divdf3+0x684>
    d094:	43e98993          	addi	x19,x19,1086
    d098:	013419b3          	sll	x19,x8,x19
    d09c:	0135e5b3          	or	x11,x11,x19
    d0a0:	00b03733          	sltu	x14,x0,x11
    d0a4:	00f76733          	or	x14,x14,x15
    d0a8:	00777413          	andi	x8,x14,7
    d0ac:	00000613          	addi	x12,x0,0
    d0b0:	02040863          	beq	x8,x0,d0e0 <__divdf3+0x6c4>
    d0b4:	00f77793          	andi	x15,x14,15
    d0b8:	00400613          	addi	x12,x0,4
    d0bc:	00000413          	addi	x8,x0,0
    d0c0:	00c78a63          	beq	x15,x12,d0d4 <__divdf3+0x6b8>
    d0c4:	00470793          	addi	x15,x14,4
    d0c8:	00e7b733          	sltu	x14,x15,x14
    d0cc:	00e03433          	sltu	x8,x0,x14
    d0d0:	00078713          	addi	x14,x15,0
    d0d4:	00941613          	slli	x12,x8,0x9
    d0d8:	00c65613          	srli	x12,x12,0xc
    d0dc:	01d41413          	slli	x8,x8,0x1d
    d0e0:	00375713          	srli	x14,x14,0x3
    d0e4:	00876733          	or	x14,x14,x8
    d0e8:	00000793          	addi	x15,x0,0
    d0ec:	aadff06f          	jal	x0,cb98 <__divdf3+0x17c>
    d0f0:	00030593          	addi	x11,x6,0
    d0f4:	e4c892e3          	bne	x17,x12,cf38 <__divdf3+0x51c>
    d0f8:	bb0702e3          	beq	x14,x16,cc9c <__divdf3+0x280>
    d0fc:	0015e593          	ori	x11,x11,1
    d100:	b9dff06f          	jal	x0,cc9c <__divdf3+0x280>
    d104:	edd5f4e3          	bgeu	x11,x29,cfcc <__divdf3+0x5b0>
    d108:	00b805b3          	add	x11,x16,x11
    d10c:	0105bf33          	sltu	x30,x11,x16
    d110:	00af0f33          	add	x30,x30,x10
    d114:	ffe40413          	addi	x8,x8,-2
    d118:	00058b13          	addi	x22,x11,0
    d11c:	01e787b3          	add	x15,x15,x30
    d120:	d1dff06f          	jal	x0,ce3c <__divdf3+0x420>
    d124:	c0200713          	addi	x14,x0,-1022
    d128:	3ff98793          	addi	x15,x19,1023
    d12c:	fff00593          	addi	x11,x0,-1
    d130:	e0e9c8e3          	blt	x19,x14,cf40 <__divdf3+0x524>
    d134:	00458713          	addi	x14,x11,4
    d138:	00b735b3          	sltu	x11,x14,x11
    d13c:	00b40433          	add	x8,x8,x11
    d140:	00070593          	addi	x11,x14,0
    d144:	b69ff06f          	jal	x0,ccac <__divdf3+0x290>
    d148:	00f5f713          	andi	x14,x11,15
    d14c:	00400613          	addi	x12,x0,4
    d150:	b4c70ee3          	beq	x14,x12,ccac <__divdf3+0x290>
    d154:	fe1ff06f          	jal	x0,d134 <__divdf3+0x718>
    d158:	00070f13          	addi	x30,x14,0
    d15c:	d65ff06f          	jal	x0,cec0 <__divdf3+0x4a4>
    d160:	00078593          	addi	x11,x15,0
    d164:	d21ff06f          	jal	x0,ce84 <__divdf3+0x468>
    d168:	00090693          	addi	x13,x18,0
    d16c:	7ff00793          	addi	x15,x0,2047
    d170:	00000613          	addi	x12,x0,0
    d174:	00000713          	addi	x14,x0,0
    d178:	a21ff06f          	jal	x0,cb98 <__divdf3+0x17c>
    d17c:	00181313          	slli	x6,x16,0x1
    d180:	010338b3          	sltu	x17,x6,x16
    d184:	00a888b3          	add	x17,x17,x10
    d188:	011788b3          	add	x17,x15,x17
    d18c:	ffe58593          	addi	x11,x11,-2
    d190:	00030813          	addi	x16,x6,0
    d194:	f6c882e3          	beq	x17,x12,d0f8 <__divdf3+0x6dc>
    d198:	da1ff06f          	jal	x0,cf38 <__divdf3+0x51c>
    d19c:	fee860e3          	bltu	x16,x14,d17c <__divdf3+0x760>
    d1a0:	00030593          	addi	x11,x6,0
    d1a4:	f5071ce3          	bne	x14,x16,d0fc <__divdf3+0x6e0>
    d1a8:	af5ff06f          	jal	x0,cc9c <__divdf3+0x280>

0000d1ac <__eqdf2>:
    d1ac:	0145d713          	srli	x14,x11,0x14
    d1b0:	001007b7          	lui	x15,0x100
    d1b4:	fff78793          	addi	x15,x15,-1 # fffff <__heap_start+0xed12f>
    d1b8:	0146d813          	srli	x16,x13,0x14
    d1bc:	7ff77713          	andi	x14,x14,2047
    d1c0:	7ff00313          	addi	x6,x0,2047
    d1c4:	00b7fe33          	and	x28,x15,x11
    d1c8:	00050893          	addi	x17,x10,0
    d1cc:	00d7f7b3          	and	x15,x15,x13
    d1d0:	01f5d593          	srli	x11,x11,0x1f
    d1d4:	7ff87813          	andi	x16,x16,2047
    d1d8:	01f6d693          	srli	x13,x13,0x1f
    d1dc:	00100513          	addi	x10,x0,1
    d1e0:	00670c63          	beq	x14,x6,d1f8 <__eqdf2+0x4c>
    d1e4:	00680863          	beq	x16,x6,d1f4 <__eqdf2+0x48>
    d1e8:	01071463          	bne	x14,x16,d1f0 <__eqdf2+0x44>
    d1ec:	02fe0663          	beq	x28,x15,d218 <__eqdf2+0x6c>
    d1f0:	00008067          	jalr	x0,0(x1)
    d1f4:	00008067          	jalr	x0,0(x1)
    d1f8:	fee81ce3          	bne	x16,x14,d1f0 <__eqdf2+0x44>
    d1fc:	00fe67b3          	or	x15,x28,x15
    d200:	00c7e7b3          	or	x15,x15,x12
    d204:	0117e7b3          	or	x15,x15,x17
    d208:	fe0794e3          	bne	x15,x0,d1f0 <__eqdf2+0x44>
    d20c:	40d585b3          	sub	x11,x11,x13
    d210:	00b03533          	sltu	x10,x0,x11
    d214:	00008067          	jalr	x0,0(x1)
    d218:	fd161ce3          	bne	x12,x17,d1f0 <__eqdf2+0x44>
    d21c:	00d58a63          	beq	x11,x13,d230 <__eqdf2+0x84>
    d220:	fc0718e3          	bne	x14,x0,d1f0 <__eqdf2+0x44>
    d224:	00ce6e33          	or	x28,x28,x12
    d228:	01c03533          	sltu	x10,x0,x28
    d22c:	00008067          	jalr	x0,0(x1)
    d230:	00000513          	addi	x10,x0,0
    d234:	00008067          	jalr	x0,0(x1)

0000d238 <__gedf2>:
    d238:	0145d893          	srli	x17,x11,0x14
    d23c:	001007b7          	lui	x15,0x100
    d240:	fff78793          	addi	x15,x15,-1 # fffff <__heap_start+0xed12f>
    d244:	0146d713          	srli	x14,x13,0x14
    d248:	7ff8f893          	andi	x17,x17,2047
    d24c:	7ff00e13          	addi	x28,x0,2047
    d250:	00b7f333          	and	x6,x15,x11
    d254:	00050813          	addi	x16,x10,0
    d258:	00050e93          	addi	x29,x10,0
    d25c:	00d7f7b3          	and	x15,x15,x13
    d260:	01f5d593          	srli	x11,x11,0x1f
    d264:	00060f13          	addi	x30,x12,0
    d268:	7ff77513          	andi	x10,x14,2047
    d26c:	01f6d693          	srli	x13,x13,0x1f
    d270:	05c88863          	beq	x17,x28,d2c0 <__gedf2+0x88>
    d274:	03c50463          	beq	x10,x28,d29c <__gedf2+0x64>
    d278:	06089a63          	bne	x17,x0,d2ec <__gedf2+0xb4>
    d27c:	01036833          	or	x16,x6,x16
    d280:	06051063          	bne	x10,x0,d2e0 <__gedf2+0xa8>
    d284:	00c7e633          	or	x12,x15,x12
    d288:	08060c63          	beq	x12,x0,d320 <__gedf2+0xe8>
    d28c:	0a081263          	bne	x16,x0,d330 <__gedf2+0xf8>
    d290:	00100513          	addi	x10,x0,1
    d294:	08068263          	beq	x13,x0,d318 <__gedf2+0xe0>
    d298:	00008067          	jalr	x0,0(x1)
    d29c:	00c7e633          	or	x12,x15,x12
    d2a0:	08061463          	bne	x12,x0,d328 <__gedf2+0xf0>
    d2a4:	00089663          	bne	x17,x0,d2b0 <__gedf2+0x78>
    d2a8:	01036333          	or	x6,x6,x16
    d2ac:	fe0302e3          	beq	x6,x0,d290 <__gedf2+0x58>
    d2b0:	06d58063          	beq	x11,x13,d310 <__gedf2+0xd8>
    d2b4:	06059263          	bne	x11,x0,d318 <__gedf2+0xe0>
    d2b8:	00100513          	addi	x10,x0,1
    d2bc:	00008067          	jalr	x0,0(x1)
    d2c0:	01036333          	or	x6,x6,x16
    d2c4:	06031263          	bne	x6,x0,d328 <__gedf2+0xf0>
    d2c8:	ff1516e3          	bne	x10,x17,d2b4 <__gedf2+0x7c>
    d2cc:	00c7e7b3          	or	x15,x15,x12
    d2d0:	04079c63          	bne	x15,x0,d328 <__gedf2+0xf0>
    d2d4:	fed590e3          	bne	x11,x13,d2b4 <__gedf2+0x7c>
    d2d8:	00000513          	addi	x10,x0,0
    d2dc:	00008067          	jalr	x0,0(x1)
    d2e0:	fa0808e3          	beq	x16,x0,d290 <__gedf2+0x58>
    d2e4:	fcd598e3          	bne	x11,x13,d2b4 <__gedf2+0x7c>
    d2e8:	0280006f          	jal	x0,d310 <__gedf2+0xd8>
    d2ec:	fc0504e3          	beq	x10,x0,d2b4 <__gedf2+0x7c>
    d2f0:	fcd592e3          	bne	x11,x13,d2b4 <__gedf2+0x7c>
    d2f4:	fd1540e3          	blt	x10,x17,d2b4 <__gedf2+0x7c>
    d2f8:	00a8cc63          	blt	x17,x10,d310 <__gedf2+0xd8>
    d2fc:	fa67ece3          	bltu	x15,x6,d2b4 <__gedf2+0x7c>
    d300:	00f31863          	bne	x6,x15,d310 <__gedf2+0xd8>
    d304:	fbdf68e3          	bltu	x30,x29,d2b4 <__gedf2+0x7c>
    d308:	00000513          	addi	x10,x0,0
    d30c:	f9eef6e3          	bgeu	x29,x30,d298 <__gedf2+0x60>
    d310:	00100513          	addi	x10,x0,1
    d314:	f80592e3          	bne	x11,x0,d298 <__gedf2+0x60>
    d318:	fff00513          	addi	x10,x0,-1
    d31c:	00008067          	jalr	x0,0(x1)
    d320:	f8081ae3          	bne	x16,x0,d2b4 <__gedf2+0x7c>
    d324:	00008067          	jalr	x0,0(x1)
    d328:	ffe00513          	addi	x10,x0,-2
    d32c:	00008067          	jalr	x0,0(x1)
    d330:	fcd586e3          	beq	x11,x13,d2fc <__gedf2+0xc4>
    d334:	f81ff06f          	jal	x0,d2b4 <__gedf2+0x7c>

0000d338 <__ledf2>:
    d338:	0145d893          	srli	x17,x11,0x14
    d33c:	001007b7          	lui	x15,0x100
    d340:	fff78793          	addi	x15,x15,-1 # fffff <__heap_start+0xed12f>
    d344:	0146d713          	srli	x14,x13,0x14
    d348:	7ff8f893          	andi	x17,x17,2047
    d34c:	7ff00313          	addi	x6,x0,2047
    d350:	00b7fe33          	and	x28,x15,x11
    d354:	00050813          	addi	x16,x10,0
    d358:	00050e93          	addi	x29,x10,0
    d35c:	00d7f7b3          	and	x15,x15,x13
    d360:	01f5d593          	srli	x11,x11,0x1f
    d364:	00060f13          	addi	x30,x12,0
    d368:	7ff77513          	andi	x10,x14,2047
    d36c:	01f6d693          	srli	x13,x13,0x1f
    d370:	04688a63          	beq	x17,x6,d3c4 <__ledf2+0x8c>
    d374:	02650463          	beq	x10,x6,d39c <__ledf2+0x64>
    d378:	06089863          	bne	x17,x0,d3e8 <__ledf2+0xb0>
    d37c:	010e6833          	or	x16,x28,x16
    d380:	08051e63          	bne	x10,x0,d41c <__ledf2+0xe4>
    d384:	00c7e633          	or	x12,x15,x12
    d388:	0a060463          	beq	x12,x0,d430 <__ledf2+0xf8>
    d38c:	0a081663          	bne	x16,x0,d438 <__ledf2+0x100>
    d390:	00100513          	addi	x10,x0,1
    d394:	08068063          	beq	x13,x0,d414 <__ledf2+0xdc>
    d398:	00008067          	jalr	x0,0(x1)
    d39c:	00c7e633          	or	x12,x15,x12
    d3a0:	00200513          	addi	x10,x0,2
    d3a4:	fe061ae3          	bne	x12,x0,d398 <__ledf2+0x60>
    d3a8:	00089663          	bne	x17,x0,d3b4 <__ledf2+0x7c>
    d3ac:	010e6e33          	or	x28,x28,x16
    d3b0:	fe0e00e3          	beq	x28,x0,d390 <__ledf2+0x58>
    d3b4:	04d58c63          	beq	x11,x13,d40c <__ledf2+0xd4>
    d3b8:	04059e63          	bne	x11,x0,d414 <__ledf2+0xdc>
    d3bc:	00100513          	addi	x10,x0,1
    d3c0:	00008067          	jalr	x0,0(x1)
    d3c4:	010e6e33          	or	x28,x28,x16
    d3c8:	060e1063          	bne	x28,x0,d428 <__ledf2+0xf0>
    d3cc:	ff1516e3          	bne	x10,x17,d3b8 <__ledf2+0x80>
    d3d0:	00c7e7b3          	or	x15,x15,x12
    d3d4:	00200513          	addi	x10,x0,2
    d3d8:	fc0790e3          	bne	x15,x0,d398 <__ledf2+0x60>
    d3dc:	fcd59ee3          	bne	x11,x13,d3b8 <__ledf2+0x80>
    d3e0:	00000513          	addi	x10,x0,0
    d3e4:	00008067          	jalr	x0,0(x1)
    d3e8:	fc0508e3          	beq	x10,x0,d3b8 <__ledf2+0x80>
    d3ec:	fcd596e3          	bne	x11,x13,d3b8 <__ledf2+0x80>
    d3f0:	fd1544e3          	blt	x10,x17,d3b8 <__ledf2+0x80>
    d3f4:	00a8cc63          	blt	x17,x10,d40c <__ledf2+0xd4>
    d3f8:	fdc7e0e3          	bltu	x15,x28,d3b8 <__ledf2+0x80>
    d3fc:	00fe1863          	bne	x28,x15,d40c <__ledf2+0xd4>
    d400:	fbdf6ce3          	bltu	x30,x29,d3b8 <__ledf2+0x80>
    d404:	00000513          	addi	x10,x0,0
    d408:	f9eef8e3          	bgeu	x29,x30,d398 <__ledf2+0x60>
    d40c:	00100513          	addi	x10,x0,1
    d410:	f80594e3          	bne	x11,x0,d398 <__ledf2+0x60>
    d414:	fff00513          	addi	x10,x0,-1
    d418:	00008067          	jalr	x0,0(x1)
    d41c:	f6080ae3          	beq	x16,x0,d390 <__ledf2+0x58>
    d420:	f8d59ce3          	bne	x11,x13,d3b8 <__ledf2+0x80>
    d424:	fe9ff06f          	jal	x0,d40c <__ledf2+0xd4>
    d428:	00200513          	addi	x10,x0,2
    d42c:	00008067          	jalr	x0,0(x1)
    d430:	f80814e3          	bne	x16,x0,d3b8 <__ledf2+0x80>
    d434:	00008067          	jalr	x0,0(x1)
    d438:	fcd580e3          	beq	x11,x13,d3f8 <__ledf2+0xc0>
    d43c:	f7dff06f          	jal	x0,d3b8 <__ledf2+0x80>

0000d440 <__muldf3>:
    d440:	fd010113          	addi	x2,x2,-48
    d444:	0145d793          	srli	x15,x11,0x14
    d448:	03212023          	sw	x18,32(x2)
    d44c:	01312e23          	sw	x19,28(x2)
    d450:	01412c23          	sw	x20,24(x2)
    d454:	01612823          	sw	x22,16(x2)
    d458:	01812423          	sw	x24,8(x2)
    d45c:	00c59913          	slli	x18,x11,0xc
    d460:	02112623          	sw	x1,44(x2)
    d464:	02812423          	sw	x8,40(x2)
    d468:	02912223          	sw	x9,36(x2)
    d46c:	01512a23          	sw	x21,20(x2)
    d470:	01712623          	sw	x23,12(x2)
    d474:	01912223          	sw	x25,4(x2)
    d478:	01a12023          	sw	x26,0(x2)
    d47c:	7ff7f793          	andi	x15,x15,2047
    d480:	00050a13          	addi	x20,x10,0
    d484:	00060b13          	addi	x22,x12,0
    d488:	00068c13          	addi	x24,x13,0
    d48c:	00c95913          	srli	x18,x18,0xc
    d490:	01f5d993          	srli	x19,x11,0x1f
    d494:	42078263          	beq	x15,x0,d8b8 <__muldf3+0x478>
    d498:	7ff00713          	addi	x14,x0,2047
    d49c:	0ae78663          	beq	x15,x14,d548 <__muldf3+0x108>
    d4a0:	00391693          	slli	x13,x18,0x3
    d4a4:	01d55713          	srli	x14,x10,0x1d
    d4a8:	00d76733          	or	x14,x14,x13
    d4ac:	008006b7          	lui	x13,0x800
    d4b0:	00d76933          	or	x18,x14,x13
    d4b4:	00351a93          	slli	x21,x10,0x3
    d4b8:	c0178d13          	addi	x26,x15,-1023
    d4bc:	00000c93          	addi	x25,x0,0
    d4c0:	00000b93          	addi	x23,x0,0
    d4c4:	014c5793          	srli	x15,x24,0x14
    d4c8:	00cc1713          	slli	x14,x24,0xc
    d4cc:	7ff7f793          	andi	x15,x15,2047
    d4d0:	000b0313          	addi	x6,x22,0
    d4d4:	00c75a13          	srli	x20,x14,0xc
    d4d8:	01fc5c13          	srli	x24,x24,0x1f
    d4dc:	0a078063          	beq	x15,x0,d57c <__muldf3+0x13c>
    d4e0:	7ff00713          	addi	x14,x0,2047
    d4e4:	16e78063          	beq	x15,x14,d644 <__muldf3+0x204>
    d4e8:	003a1713          	slli	x14,x20,0x3
    d4ec:	01db5613          	srli	x12,x22,0x1d
    d4f0:	00e66633          	or	x12,x12,x14
    d4f4:	c0178793          	addi	x15,x15,-1023
    d4f8:	00800737          	lui	x14,0x800
    d4fc:	00e66a33          	or	x20,x12,x14
    d500:	003b1313          	slli	x6,x22,0x3
    d504:	01a78533          	add	x10,x15,x26
    d508:	00000e13          	addi	x28,x0,0
    d50c:	00a00793          	addi	x15,x0,10
    d510:	00150893          	addi	x17,x10,1
    d514:	0b97ca63          	blt	x15,x25,d5c8 <__muldf3+0x188>
    d518:	0189c5b3          	xor	x11,x19,x24
    d51c:	00200793          	addi	x15,x0,2
    d520:	00058813          	addi	x16,x11,0
    d524:	1597c863          	blt	x15,x25,d674 <__muldf3+0x234>
    d528:	fffc8c93          	addi	x25,x25,-1
    d52c:	00100713          	addi	x14,x0,1
    d530:	17976263          	bltu	x14,x25,d694 <__muldf3+0x254>
    d534:	3cfe0863          	beq	x28,x15,d904 <__muldf3+0x4c4>
    d538:	000a0913          	addi	x18,x20,0
    d53c:	00030a93          	addi	x21,x6,0
    d540:	000e0b93          	addi	x23,x28,0
    d544:	0980006f          	jal	x0,d5dc <__muldf3+0x19c>
    d548:	00a96ab3          	or	x21,x18,x10
    d54c:	3c0a9663          	bne	x21,x0,d918 <__muldf3+0x4d8>
    d550:	014c5793          	srli	x15,x24,0x14
    d554:	00cc1713          	slli	x14,x24,0xc
    d558:	7ff7f793          	andi	x15,x15,2047
    d55c:	00000913          	addi	x18,x0,0
    d560:	00800c93          	addi	x25,x0,8
    d564:	7ff00d13          	addi	x26,x0,2047
    d568:	00200b93          	addi	x23,x0,2
    d56c:	000b0313          	addi	x6,x22,0
    d570:	00c75a13          	srli	x20,x14,0xc
    d574:	01fc5c13          	srli	x24,x24,0x1f
    d578:	f60794e3          	bne	x15,x0,d4e0 <__muldf3+0xa0>
    d57c:	016a67b3          	or	x15,x20,x22
    d580:	3c078063          	beq	x15,x0,d940 <__muldf3+0x500>
    d584:	4a0a0263          	beq	x20,x0,da28 <__muldf3+0x5e8>
    d588:	000a0513          	addi	x10,x20,0
    d58c:	1f0040ef          	jal	x1,1177c <__clzsi2>
    d590:	ff550713          	addi	x14,x10,-11
    d594:	01d00793          	addi	x15,x0,29
    d598:	ff850313          	addi	x6,x10,-8
    d59c:	40e787b3          	sub	x15,x15,x14
    d5a0:	00fb57b3          	srl	x15,x22,x15
    d5a4:	006a1733          	sll	x14,x20,x6
    d5a8:	00e7ea33          	or	x20,x15,x14
    d5ac:	006b1333          	sll	x6,x22,x6
    d5b0:	40ad0533          	sub	x10,x26,x10
    d5b4:	c0d50513          	addi	x10,x10,-1011
    d5b8:	00a00793          	addi	x15,x0,10
    d5bc:	00000e13          	addi	x28,x0,0
    d5c0:	00150893          	addi	x17,x10,1
    d5c4:	f597dae3          	bge	x15,x25,d518 <__muldf3+0xd8>
    d5c8:	00098593          	addi	x11,x19,0
    d5cc:	00200793          	addi	x15,x0,2
    d5d0:	32fb8a63          	beq	x23,x15,d904 <__muldf3+0x4c4>
    d5d4:	00300793          	addi	x15,x0,3
    d5d8:	46fb8e63          	beq	x23,x15,da54 <__muldf3+0x614>
    d5dc:	00100793          	addi	x15,x0,1
    d5e0:	00058813          	addi	x16,x11,0
    d5e4:	42fb9e63          	bne	x23,x15,da20 <__muldf3+0x5e0>
    d5e8:	00000793          	addi	x15,x0,0
    d5ec:	00000693          	addi	x13,x0,0
    d5f0:	00000713          	addi	x14,x0,0
    d5f4:	02c12083          	lw	x1,44(x2)
    d5f8:	02812403          	lw	x8,40(x2)
    d5fc:	01479793          	slli	x15,x15,0x14
    d600:	00d7e7b3          	or	x15,x15,x13
    d604:	01f81813          	slli	x16,x16,0x1f
    d608:	0107e7b3          	or	x15,x15,x16
    d60c:	02412483          	lw	x9,36(x2)
    d610:	02012903          	lw	x18,32(x2)
    d614:	01c12983          	lw	x19,28(x2)
    d618:	01812a03          	lw	x20,24(x2)
    d61c:	01412a83          	lw	x21,20(x2)
    d620:	01012b03          	lw	x22,16(x2)
    d624:	00c12b83          	lw	x23,12(x2)
    d628:	00812c03          	lw	x24,8(x2)
    d62c:	00412c83          	lw	x25,4(x2)
    d630:	00012d03          	lw	x26,0(x2)
    d634:	00070513          	addi	x10,x14,0 # 800000 <__heap_end+0x400000>
    d638:	00078593          	addi	x11,x15,0
    d63c:	03010113          	addi	x2,x2,48
    d640:	00008067          	jalr	x0,0(x1)
    d644:	016a6733          	or	x14,x20,x22
    d648:	7ffd0513          	addi	x10,x26,2047
    d64c:	30070663          	beq	x14,x0,d958 <__muldf3+0x518>
    d650:	000016b7          	lui	x13,0x1
    d654:	0189c833          	xor	x16,x19,x24
    d658:	80068693          	addi	x13,x13,-2048 # 800 <memset+0x94>
    d65c:	003cec93          	ori	x25,x25,3
    d660:	00a00713          	addi	x14,x0,10
    d664:	00080593          	addi	x11,x16,0
    d668:	00dd08b3          	add	x17,x26,x13
    d66c:	37974c63          	blt	x14,x25,d9e4 <__muldf3+0x5a4>
    d670:	00300e13          	addi	x28,x0,3
    d674:	00100613          	addi	x12,x0,1
    d678:	01961633          	sll	x12,x12,x25
    d67c:	53067713          	andi	x14,x12,1328
    d680:	f40716e3          	bne	x14,x0,d5cc <__muldf3+0x18c>
    d684:	24067793          	andi	x15,x12,576
    d688:	3e079063          	bne	x15,x0,da68 <__muldf3+0x628>
    d68c:	08867613          	andi	x12,x12,136
    d690:	2c061e63          	bne	x12,x0,d96c <__muldf3+0x52c>
    d694:	010ad793          	srli	x15,x21,0x10
    d698:	01035f13          	srli	x30,x6,0x10
    d69c:	010a9a93          	slli	x21,x21,0x10
    d6a0:	01031313          	slli	x6,x6,0x10
    d6a4:	010ada93          	srli	x21,x21,0x10
    d6a8:	01035313          	srli	x6,x6,0x10
    d6ac:	026a8733          	mul	x14,x21,x6
    d6b0:	026785b3          	mul	x11,x15,x6
    d6b4:	01075613          	srli	x12,x14,0x10
    d6b8:	035f06b3          	mul	x13,x30,x21
    d6bc:	00b686b3          	add	x13,x13,x11
    d6c0:	00d60633          	add	x12,x12,x13
    d6c4:	03e782b3          	mul	x5,x15,x30
    d6c8:	00b67663          	bgeu	x12,x11,d6d4 <__muldf3+0x294>
    d6cc:	000106b7          	lui	x13,0x10
    d6d0:	00d282b3          	add	x5,x5,x13
    d6d4:	010a5e93          	srli	x29,x20,0x10
    d6d8:	01071713          	slli	x14,x14,0x10
    d6dc:	010a1a13          	slli	x20,x20,0x10
    d6e0:	010a5a13          	srli	x20,x20,0x10
    d6e4:	01061e13          	slli	x28,x12,0x10
    d6e8:	01075713          	srli	x14,x14,0x10
    d6ec:	034a85b3          	mul	x11,x21,x20
    d6f0:	00ee0e33          	add	x28,x28,x14
    d6f4:	01065613          	srli	x12,x12,0x10
    d6f8:	03478733          	mul	x14,x15,x20
    d6fc:	0105df93          	srli	x31,x11,0x10
    d700:	035e8ab3          	mul	x21,x29,x21
    d704:	00ea8ab3          	add	x21,x21,x14
    d708:	015f8fb3          	add	x31,x31,x21
    d70c:	03d787b3          	mul	x15,x15,x29
    d710:	00eff663          	bgeu	x31,x14,d71c <__muldf3+0x2dc>
    d714:	00010737          	lui	x14,0x10
    d718:	00e787b3          	add	x15,x15,x14
    d71c:	01091693          	slli	x13,x18,0x10
    d720:	01059593          	slli	x11,x11,0x10
    d724:	01095393          	srli	x7,x18,0x10
    d728:	0106d693          	srli	x13,x13,0x10
    d72c:	010f9713          	slli	x14,x31,0x10
    d730:	0105d593          	srli	x11,x11,0x10
    d734:	02668933          	mul	x18,x13,x6
    d738:	00b70733          	add	x14,x14,x11
    d73c:	010fdf93          	srli	x31,x31,0x10
    d740:	00ff8fb3          	add	x31,x31,x15
    d744:	00e60633          	add	x12,x12,x14
    d748:	026385b3          	mul	x11,x7,x6
    d74c:	01095793          	srli	x15,x18,0x10
    d750:	02df0333          	mul	x6,x30,x13
    d754:	00b30333          	add	x6,x6,x11
    d758:	006787b3          	add	x15,x15,x6
    d75c:	027f0f33          	mul	x30,x30,x7
    d760:	00b7f663          	bgeu	x15,x11,d76c <__muldf3+0x32c>
    d764:	000105b7          	lui	x11,0x10
    d768:	00bf0f33          	add	x30,x30,x11
    d76c:	01091313          	slli	x6,x18,0x10
    d770:	0107d593          	srli	x11,x15,0x10
    d774:	01035313          	srli	x6,x6,0x10
    d778:	01079793          	slli	x15,x15,0x10
    d77c:	006787b3          	add	x15,x15,x6
    d780:	01e585b3          	add	x11,x11,x30
    d784:	03468933          	mul	x18,x13,x20
    d788:	02de86b3          	mul	x13,x29,x13
    d78c:	01095313          	srli	x6,x18,0x10
    d790:	03438a33          	mul	x20,x7,x20
    d794:	014686b3          	add	x13,x13,x20
    d798:	00d30f33          	add	x30,x6,x13
    d79c:	027e8eb3          	mul	x29,x29,x7
    d7a0:	014f7663          	bgeu	x30,x20,d7ac <__muldf3+0x36c>
    d7a4:	000106b7          	lui	x13,0x10
    d7a8:	00de8eb3          	add	x29,x29,x13
    d7ac:	01091913          	slli	x18,x18,0x10
    d7b0:	01095913          	srli	x18,x18,0x10
    d7b4:	010f1693          	slli	x13,x30,0x10
    d7b8:	00560633          	add	x12,x12,x5
    d7bc:	012686b3          	add	x13,x13,x18
    d7c0:	01f68333          	add	x6,x13,x31
    d7c4:	00e63733          	sltu	x14,x12,x14
    d7c8:	00e30733          	add	x14,x6,x14
    d7cc:	00f607b3          	add	x15,x12,x15
    d7d0:	00b705b3          	add	x11,x14,x11
    d7d4:	00c7b633          	sltu	x12,x15,x12
    d7d8:	00c58633          	add	x12,x11,x12
    d7dc:	00d336b3          	sltu	x13,x6,x13
    d7e0:	00673333          	sltu	x6,x14,x6
    d7e4:	0066e6b3          	or	x13,x13,x6
    d7e8:	00e5b733          	sltu	x14,x11,x14
    d7ec:	010f5313          	srli	x6,x30,0x10
    d7f0:	00b635b3          	sltu	x11,x12,x11
    d7f4:	006686b3          	add	x13,x13,x6
    d7f8:	00b76733          	or	x14,x14,x11
    d7fc:	00979a93          	slli	x21,x15,0x9
    d800:	00d70733          	add	x14,x14,x13
    d804:	01caeab3          	or	x21,x21,x28
    d808:	01d70733          	add	x14,x14,x29
    d80c:	0177d793          	srli	x15,x15,0x17
    d810:	00971713          	slli	x14,x14,0x9
    d814:	01503ab3          	sltu	x21,x0,x21
    d818:	01765693          	srli	x13,x12,0x17
    d81c:	00faeab3          	or	x21,x21,x15
    d820:	00961613          	slli	x12,x12,0x9
    d824:	00771793          	slli	x15,x14,0x7
    d828:	00d76933          	or	x18,x14,x13
    d82c:	00caeab3          	or	x21,x21,x12
    d830:	0207d063          	bge	x15,x0,d850 <__muldf3+0x410>
    d834:	001ad793          	srli	x15,x21,0x1
    d838:	001afa93          	andi	x21,x21,1
    d83c:	01f91713          	slli	x14,x18,0x1f
    d840:	0157e7b3          	or	x15,x15,x21
    d844:	00e7eab3          	or	x21,x15,x14
    d848:	00195913          	srli	x18,x18,0x1
    d84c:	00088513          	addi	x10,x17,0 # 10000 <__subtf3+0x570>
    d850:	3ff50793          	addi	x15,x10,1023
    d854:	12f05663          	bge	x0,x15,d980 <__muldf3+0x540>
    d858:	007af713          	andi	x14,x21,7
    d85c:	02070063          	beq	x14,x0,d87c <__muldf3+0x43c>
    d860:	00faf713          	andi	x14,x21,15
    d864:	00400693          	addi	x13,x0,4
    d868:	00d70a63          	beq	x14,x13,d87c <__muldf3+0x43c>
    d86c:	004a8713          	addi	x14,x21,4
    d870:	01573ab3          	sltu	x21,x14,x21
    d874:	01590933          	add	x18,x18,x21
    d878:	00070a93          	addi	x21,x14,0 # 10000 <__subtf3+0x570>
    d87c:	00791713          	slli	x14,x18,0x7
    d880:	00075a63          	bge	x14,x0,d894 <__muldf3+0x454>
    d884:	ff0007b7          	lui	x15,0xff000
    d888:	fff78793          	addi	x15,x15,-1 # feffffff <__heap_end+0xfebfffff>
    d88c:	00f97933          	and	x18,x18,x15
    d890:	40050793          	addi	x15,x10,1024
    d894:	7fe00713          	addi	x14,x0,2046
    d898:	1ef74063          	blt	x14,x15,da78 <__muldf3+0x638>
    d89c:	003ada93          	srli	x21,x21,0x3
    d8a0:	01d91713          	slli	x14,x18,0x1d
    d8a4:	00991693          	slli	x13,x18,0x9
    d8a8:	01576733          	or	x14,x14,x21
    d8ac:	00c6d693          	srli	x13,x13,0xc
    d8b0:	7ff7f793          	andi	x15,x15,2047
    d8b4:	d41ff06f          	jal	x0,d5f4 <__muldf3+0x1b4>
    d8b8:	00a96ab3          	or	x21,x18,x10
    d8bc:	060a8863          	beq	x21,x0,d92c <__muldf3+0x4ec>
    d8c0:	12090e63          	beq	x18,x0,d9fc <__muldf3+0x5bc>
    d8c4:	00090513          	addi	x10,x18,0
    d8c8:	6b5030ef          	jal	x1,1177c <__clzsi2>
    d8cc:	00050713          	addi	x14,x10,0
    d8d0:	ff550693          	addi	x13,x10,-11
    d8d4:	01d00793          	addi	x15,x0,29
    d8d8:	ff870a93          	addi	x21,x14,-8
    d8dc:	40d787b3          	sub	x15,x15,x13
    d8e0:	00fa57b3          	srl	x15,x20,x15
    d8e4:	015916b3          	sll	x13,x18,x21
    d8e8:	00d7e933          	or	x18,x15,x13
    d8ec:	015a1ab3          	sll	x21,x20,x21
    d8f0:	c0d00793          	addi	x15,x0,-1011
    d8f4:	40e78d33          	sub	x26,x15,x14
    d8f8:	00000c93          	addi	x25,x0,0
    d8fc:	00000b93          	addi	x23,x0,0
    d900:	bc5ff06f          	jal	x0,d4c4 <__muldf3+0x84>
    d904:	00058813          	addi	x16,x11,0 # 10000 <__subtf3+0x570>
    d908:	7ff00793          	addi	x15,x0,2047
    d90c:	00000693          	addi	x13,x0,0
    d910:	00000713          	addi	x14,x0,0
    d914:	ce1ff06f          	jal	x0,d5f4 <__muldf3+0x1b4>
    d918:	00050a93          	addi	x21,x10,0
    d91c:	00c00c93          	addi	x25,x0,12
    d920:	7ff00d13          	addi	x26,x0,2047
    d924:	00300b93          	addi	x23,x0,3
    d928:	b9dff06f          	jal	x0,d4c4 <__muldf3+0x84>
    d92c:	00000913          	addi	x18,x0,0
    d930:	00400c93          	addi	x25,x0,4
    d934:	00000d13          	addi	x26,x0,0
    d938:	00100b93          	addi	x23,x0,1
    d93c:	b89ff06f          	jal	x0,d4c4 <__muldf3+0x84>
    d940:	001cec93          	ori	x25,x25,1
    d944:	000d0513          	addi	x10,x26,0
    d948:	00000a13          	addi	x20,x0,0
    d94c:	00000313          	addi	x6,x0,0
    d950:	00100e13          	addi	x28,x0,1
    d954:	bb9ff06f          	jal	x0,d50c <__muldf3+0xcc>
    d958:	002cec93          	ori	x25,x25,2
    d95c:	00000a13          	addi	x20,x0,0
    d960:	00000313          	addi	x6,x0,0
    d964:	00200e13          	addi	x28,x0,2
    d968:	ba5ff06f          	jal	x0,d50c <__muldf3+0xcc>
    d96c:	000a0913          	addi	x18,x20,0
    d970:	00030a93          	addi	x21,x6,0
    d974:	000e0b93          	addi	x23,x28,0
    d978:	000c0593          	addi	x11,x24,0
    d97c:	c51ff06f          	jal	x0,d5cc <__muldf3+0x18c>
    d980:	00100693          	addi	x13,x0,1
    d984:	10079263          	bne	x15,x0,da88 <__muldf3+0x648>
    d988:	41e50513          	addi	x10,x10,1054
    d98c:	00aa97b3          	sll	x15,x21,x10
    d990:	00f037b3          	sltu	x15,x0,x15
    d994:	00a91533          	sll	x10,x18,x10
    d998:	00a7e7b3          	or	x15,x15,x10
    d99c:	00dad733          	srl	x14,x21,x13
    d9a0:	00f76733          	or	x14,x14,x15
    d9a4:	00777613          	andi	x12,x14,7
    d9a8:	00d957b3          	srl	x15,x18,x13
    d9ac:	02060063          	beq	x12,x0,d9cc <__muldf3+0x58c>
    d9b0:	00f77693          	andi	x13,x14,15
    d9b4:	00400613          	addi	x12,x0,4
    d9b8:	00c68a63          	beq	x13,x12,d9cc <__muldf3+0x58c>
    d9bc:	00470693          	addi	x13,x14,4
    d9c0:	00e6b733          	sltu	x14,x13,x14
    d9c4:	00e787b3          	add	x15,x15,x14
    d9c8:	00068713          	addi	x14,x13,0 # 10000 <__subtf3+0x570>
    d9cc:	00879693          	slli	x13,x15,0x8
    d9d0:	1206d063          	bge	x13,x0,daf0 <__muldf3+0x6b0>
    d9d4:	00100793          	addi	x15,x0,1
    d9d8:	00000693          	addi	x13,x0,0
    d9dc:	00000713          	addi	x14,x0,0
    d9e0:	c15ff06f          	jal	x0,d5f4 <__muldf3+0x1b4>
    d9e4:	00f00713          	addi	x14,x0,15
    d9e8:	12ec9263          	bne	x25,x14,db0c <__muldf3+0x6cc>
    d9ec:	00000813          	addi	x16,x0,0
    d9f0:	000806b7          	lui	x13,0x80
    d9f4:	00000713          	addi	x14,x0,0
    d9f8:	bfdff06f          	jal	x0,d5f4 <__muldf3+0x1b4>
    d9fc:	581030ef          	jal	x1,1177c <__clzsi2>
    da00:	01550693          	addi	x13,x10,21
    da04:	01c00793          	addi	x15,x0,28
    da08:	02050713          	addi	x14,x10,32
    da0c:	ecd7d4e3          	bge	x15,x13,d8d4 <__muldf3+0x494>
    da10:	ff850513          	addi	x10,x10,-8
    da14:	00000a93          	addi	x21,x0,0
    da18:	00aa1933          	sll	x18,x20,x10
    da1c:	ed5ff06f          	jal	x0,d8f0 <__muldf3+0x4b0>
    da20:	00088513          	addi	x10,x17,0
    da24:	e2dff06f          	jal	x0,d850 <__muldf3+0x410>
    da28:	000b0513          	addi	x10,x22,0
    da2c:	551030ef          	jal	x1,1177c <__clzsi2>
    da30:	01550713          	addi	x14,x10,21
    da34:	01c00693          	addi	x13,x0,28
    da38:	00050793          	addi	x15,x10,0
    da3c:	02050513          	addi	x10,x10,32
    da40:	b4e6dae3          	bge	x13,x14,d594 <__muldf3+0x154>
    da44:	ff878793          	addi	x15,x15,-8
    da48:	00000313          	addi	x6,x0,0
    da4c:	00fb1a33          	sll	x20,x22,x15
    da50:	b61ff06f          	jal	x0,d5b0 <__muldf3+0x170>
    da54:	00000813          	addi	x16,x0,0
    da58:	7ff00793          	addi	x15,x0,2047
    da5c:	000806b7          	lui	x13,0x80
    da60:	00000713          	addi	x14,x0,0
    da64:	b91ff06f          	jal	x0,d5f4 <__muldf3+0x1b4>
    da68:	00000813          	addi	x16,x0,0
    da6c:	7ff00793          	addi	x15,x0,2047
    da70:	000806b7          	lui	x13,0x80
    da74:	b81ff06f          	jal	x0,d5f4 <__muldf3+0x1b4>
    da78:	7ff00793          	addi	x15,x0,2047
    da7c:	00000693          	addi	x13,x0,0
    da80:	00000713          	addi	x14,x0,0
    da84:	b71ff06f          	jal	x0,d5f4 <__muldf3+0x1b4>
    da88:	40f686b3          	sub	x13,x13,x15
    da8c:	03800713          	addi	x14,x0,56
    da90:	b4d74ce3          	blt	x14,x13,d5e8 <__muldf3+0x1a8>
    da94:	01f00713          	addi	x14,x0,31
    da98:	eed758e3          	bge	x14,x13,d988 <__muldf3+0x548>
    da9c:	fe100713          	addi	x14,x0,-31
    daa0:	40f707b3          	sub	x15,x14,x15
    daa4:	02000713          	addi	x14,x0,32
    daa8:	00f957b3          	srl	x15,x18,x15
    daac:	00e68863          	beq	x13,x14,dabc <__muldf3+0x67c>
    dab0:	43e50513          	addi	x10,x10,1086
    dab4:	00a91533          	sll	x10,x18,x10
    dab8:	00aaeab3          	or	x21,x21,x10
    dabc:	01503733          	sltu	x14,x0,x21
    dac0:	00f76733          	or	x14,x14,x15
    dac4:	00777793          	andi	x15,x14,7
    dac8:	00000693          	addi	x13,x0,0
    dacc:	02078863          	beq	x15,x0,dafc <__muldf3+0x6bc>
    dad0:	00f77693          	andi	x13,x14,15
    dad4:	00400613          	addi	x12,x0,4
    dad8:	00000793          	addi	x15,x0,0
    dadc:	00c68a63          	beq	x13,x12,daf0 <__muldf3+0x6b0>
    dae0:	00470693          	addi	x13,x14,4
    dae4:	00e6b733          	sltu	x14,x13,x14
    dae8:	00e037b3          	sltu	x15,x0,x14
    daec:	00068713          	addi	x14,x13,0 # 80000 <__heap_start+0x6d130>
    daf0:	00979693          	slli	x13,x15,0x9
    daf4:	00c6d693          	srli	x13,x13,0xc
    daf8:	01d79793          	slli	x15,x15,0x1d
    dafc:	00375713          	srli	x14,x14,0x3
    db00:	00f76733          	or	x14,x14,x15
    db04:	00000793          	addi	x15,x0,0
    db08:	aedff06f          	jal	x0,d5f4 <__muldf3+0x1b4>
    db0c:	000a0913          	addi	x18,x20,0
    db10:	000b0a93          	addi	x21,x22,0
    db14:	00300b93          	addi	x23,x0,3
    db18:	000c0593          	addi	x11,x24,0
    db1c:	ab1ff06f          	jal	x0,d5cc <__muldf3+0x18c>

0000db20 <__subdf3>:
    db20:	001007b7          	lui	x15,0x100
    db24:	fff78793          	addi	x15,x15,-1 # fffff <__heap_start+0xed12f>
    db28:	fe010113          	addi	x2,x2,-32
    db2c:	00b7f333          	and	x6,x15,x11
    db30:	00d7f833          	and	x16,x15,x13
    db34:	0146d893          	srli	x17,x13,0x14
    db38:	00331313          	slli	x6,x6,0x3
    db3c:	00381813          	slli	x16,x16,0x3
    db40:	01212823          	sw	x18,16(x2)
    db44:	01412423          	sw	x20,8(x2)
    db48:	01f5d913          	srli	x18,x11,0x1f
    db4c:	0145da13          	srli	x20,x11,0x14
    db50:	01d55713          	srli	x14,x10,0x1d
    db54:	01d65593          	srli	x11,x12,0x1d
    db58:	00112e23          	sw	x1,28(x2)
    db5c:	00812c23          	sw	x8,24(x2)
    db60:	00912a23          	sw	x9,20(x2)
    db64:	01312623          	sw	x19,12(x2)
    db68:	01512223          	sw	x21,4(x2)
    db6c:	7ff8f893          	andi	x17,x17,2047
    db70:	7ff00e13          	addi	x28,x0,2047
    db74:	00676733          	or	x14,x14,x6
    db78:	0105e5b3          	or	x11,x11,x16
    db7c:	00060f13          	addi	x30,x12,0
    db80:	7ffa7a13          	andi	x20,x20,2047
    db84:	00090e93          	addi	x29,x18,0
    db88:	00351313          	slli	x6,x10,0x3
    db8c:	01f6d693          	srli	x13,x13,0x1f
    db90:	00361813          	slli	x16,x12,0x3
    db94:	23c88063          	beq	x17,x28,ddb4 <__subdf3+0x294>
    db98:	0016c693          	xori	x13,x13,1
    db9c:	411a07b3          	sub	x15,x20,x17
    dba0:	16d90663          	beq	x18,x13,dd0c <__subdf3+0x1ec>
    dba4:	60f05c63          	bge	x0,x15,e1bc <__subdf3+0x69c>
    dba8:	24088e63          	beq	x17,x0,de04 <__subdf3+0x2e4>
    dbac:	3dca0a63          	beq	x20,x28,df80 <__subdf3+0x460>
    dbb0:	03800693          	addi	x13,x0,56
    dbb4:	00100513          	addi	x10,x0,1
    dbb8:	02f6ce63          	blt	x13,x15,dbf4 <__subdf3+0xd4>
    dbbc:	008006b7          	lui	x13,0x800
    dbc0:	00d5e5b3          	or	x11,x11,x13
    dbc4:	01f00693          	addi	x13,x0,31
    dbc8:	4ef6cc63          	blt	x13,x15,e0c0 <__subdf3+0x5a0>
    dbcc:	02000693          	addi	x13,x0,32
    dbd0:	40f686b3          	sub	x13,x13,x15
    dbd4:	00d59533          	sll	x10,x11,x13
    dbd8:	00f85633          	srl	x12,x16,x15
    dbdc:	00d816b3          	sll	x13,x16,x13
    dbe0:	00c56533          	or	x10,x10,x12
    dbe4:	00d036b3          	sltu	x13,x0,x13
    dbe8:	00f5d5b3          	srl	x11,x11,x15
    dbec:	00d56533          	or	x10,x10,x13
    dbf0:	40b70733          	sub	x14,x14,x11
    dbf4:	40a30533          	sub	x10,x6,x10
    dbf8:	00a33633          	sltu	x12,x6,x10
    dbfc:	00050993          	addi	x19,x10,0
    dc00:	40c70ab3          	sub	x21,x14,x12
    dc04:	008a9793          	slli	x15,x21,0x8
    dc08:	3407de63          	bge	x15,x0,df64 <__subdf3+0x444>
    dc0c:	008007b7          	lui	x15,0x800
    dc10:	fff78793          	addi	x15,x15,-1 # 7fffff <__heap_end+0x3fffff>
    dc14:	00fafab3          	and	x21,x21,x15
    dc18:	2e0a8c63          	beq	x21,x0,df10 <__subdf3+0x3f0>
    dc1c:	000a8513          	addi	x10,x21,0
    dc20:	35d030ef          	jal	x1,1177c <__clzsi2>
    dc24:	ff850793          	addi	x15,x10,-8
    dc28:	02000693          	addi	x13,x0,32
    dc2c:	40f68733          	sub	x14,x13,x15
    dc30:	00e9d733          	srl	x14,x19,x14
    dc34:	00fa9ab3          	sll	x21,x21,x15
    dc38:	01576733          	or	x14,x14,x21
    dc3c:	00f999b3          	sll	x19,x19,x15
    dc40:	3f47ca63          	blt	x15,x20,e034 <__subdf3+0x514>
    dc44:	414787b3          	sub	x15,x15,x20
    dc48:	00178793          	addi	x15,x15,1
    dc4c:	40f686b3          	sub	x13,x13,x15
    dc50:	00d99633          	sll	x12,x19,x13
    dc54:	00f9dab3          	srl	x21,x19,x15
    dc58:	00c03633          	sltu	x12,x0,x12
    dc5c:	00cae633          	or	x12,x21,x12
    dc60:	00d716b3          	sll	x13,x14,x13
    dc64:	00c6e9b3          	or	x19,x13,x12
    dc68:	00f75ab3          	srl	x21,x14,x15
    dc6c:	00000a13          	addi	x20,x0,0
    dc70:	0079f793          	andi	x15,x19,7
    dc74:	02078063          	beq	x15,x0,dc94 <__subdf3+0x174>
    dc78:	00f9f793          	andi	x15,x19,15
    dc7c:	00400713          	addi	x14,x0,4
    dc80:	00e78a63          	beq	x15,x14,dc94 <__subdf3+0x174>
    dc84:	00498793          	addi	x15,x19,4
    dc88:	0137b533          	sltu	x10,x15,x19
    dc8c:	00aa8ab3          	add	x21,x21,x10
    dc90:	00078993          	addi	x19,x15,0
    dc94:	008a9793          	slli	x15,x21,0x8
    dc98:	6a07dc63          	bge	x15,x0,e350 <__subdf3+0x830>
    dc9c:	001a0793          	addi	x15,x20,1
    dca0:	7ff00713          	addi	x14,x0,2047
    dca4:	24e78c63          	beq	x15,x14,defc <__subdf3+0x3dc>
    dca8:	ff800737          	lui	x14,0xff800
    dcac:	fff70713          	addi	x14,x14,-1 # ff7fffff <__heap_end+0xff3fffff>
    dcb0:	00eaf733          	and	x14,x21,x14
    dcb4:	7ff7f793          	andi	x15,x15,2047
    dcb8:	01d71613          	slli	x12,x14,0x1d
    dcbc:	0039d513          	srli	x10,x19,0x3
    dcc0:	00971713          	slli	x14,x14,0x9
    dcc4:	00a66633          	or	x12,x12,x10
    dcc8:	00c75713          	srli	x14,x14,0xc
    dccc:	00197e93          	andi	x29,x18,1
    dcd0:	01c12083          	lw	x1,28(x2)
    dcd4:	01812403          	lw	x8,24(x2)
    dcd8:	01479793          	slli	x15,x15,0x14
    dcdc:	00e7e7b3          	or	x15,x15,x14
    dce0:	01fe9713          	slli	x14,x29,0x1f
    dce4:	00e7e7b3          	or	x15,x15,x14
    dce8:	01412483          	lw	x9,20(x2)
    dcec:	01012903          	lw	x18,16(x2)
    dcf0:	00c12983          	lw	x19,12(x2)
    dcf4:	00812a03          	lw	x20,8(x2)
    dcf8:	00412a83          	lw	x21,4(x2)
    dcfc:	00060513          	addi	x10,x12,0
    dd00:	00078593          	addi	x11,x15,0
    dd04:	02010113          	addi	x2,x2,32
    dd08:	00008067          	jalr	x0,0(x1)
    dd0c:	52f05463          	bge	x0,x15,e234 <__subdf3+0x714>
    dd10:	1c089863          	bne	x17,x0,dee0 <__subdf3+0x3c0>
    dd14:	0105e6b3          	or	x13,x11,x16
    dd18:	28068063          	beq	x13,x0,df98 <__subdf3+0x478>
    dd1c:	fff78693          	addi	x13,x15,-1
    dd20:	46068c63          	beq	x13,x0,e198 <__subdf3+0x678>
    dd24:	25c78e63          	beq	x15,x28,df80 <__subdf3+0x460>
    dd28:	03800793          	addi	x15,x0,56
    dd2c:	00100a93          	addi	x21,x0,1
    dd30:	02d7cc63          	blt	x15,x13,dd68 <__subdf3+0x248>
    dd34:	00068793          	addi	x15,x13,0 # 800000 <__heap_end+0x400000>
    dd38:	01f00693          	addi	x13,x0,31
    dd3c:	4cf6c063          	blt	x13,x15,e1fc <__subdf3+0x6dc>
    dd40:	02000693          	addi	x13,x0,32
    dd44:	40f686b3          	sub	x13,x13,x15
    dd48:	00d59ab3          	sll	x21,x11,x13
    dd4c:	00f85633          	srl	x12,x16,x15
    dd50:	00d816b3          	sll	x13,x16,x13
    dd54:	00caeab3          	or	x21,x21,x12
    dd58:	00d036b3          	sltu	x13,x0,x13
    dd5c:	00f5d5b3          	srl	x11,x11,x15
    dd60:	00daeab3          	or	x21,x21,x13
    dd64:	00b70733          	add	x14,x14,x11
    dd68:	006a8633          	add	x12,x21,x6
    dd6c:	01563ab3          	sltu	x21,x12,x21
    dd70:	00060993          	addi	x19,x12,0
    dd74:	00ea8ab3          	add	x21,x21,x14
    dd78:	008a9793          	slli	x15,x21,0x8
    dd7c:	1e07d463          	bge	x15,x0,df64 <__subdf3+0x444>
    dd80:	001a0a13          	addi	x20,x20,1
    dd84:	7ff00793          	addi	x15,x0,2047
    dd88:	16fa0a63          	beq	x20,x15,defc <__subdf3+0x3dc>
    dd8c:	ff8007b7          	lui	x15,0xff800
    dd90:	fff78793          	addi	x15,x15,-1 # ff7fffff <__heap_end+0xff3fffff>
    dd94:	0019f513          	andi	x10,x19,1
    dd98:	00faf7b3          	and	x15,x21,x15
    dd9c:	0019d713          	srli	x14,x19,0x1
    dda0:	00a76733          	or	x14,x14,x10
    dda4:	01f79513          	slli	x10,x15,0x1f
    dda8:	00e569b3          	or	x19,x10,x14
    ddac:	0017da93          	srli	x21,x15,0x1
    ddb0:	ec1ff06f          	jal	x0,dc70 <__subdf3+0x150>
    ddb4:	0105e7b3          	or	x15,x11,x16
    ddb8:	801a0613          	addi	x12,x20,-2047
    ddbc:	06078863          	beq	x15,x0,de2c <__subdf3+0x30c>
    ddc0:	06d90a63          	beq	x18,x13,de34 <__subdf3+0x314>
    ddc4:	0e060663          	beq	x12,x0,deb0 <__subdf3+0x390>
    ddc8:	280a0063          	beq	x20,x0,e048 <__subdf3+0x528>
    ddcc:	003f1513          	slli	x10,x30,0x3
    ddd0:	00355513          	srli	x10,x10,0x3
    ddd4:	00068913          	addi	x18,x13,0
    ddd8:	00058713          	addi	x14,x11,0
    dddc:	01d71613          	slli	x12,x14,0x1d
    dde0:	00a66633          	or	x12,x12,x10
    dde4:	00375713          	srli	x14,x14,0x3
    dde8:	00c76733          	or	x14,x14,x12
    ddec:	10070863          	beq	x14,x0,defc <__subdf3+0x3dc>
    ddf0:	00000e93          	addi	x29,x0,0
    ddf4:	7ff00793          	addi	x15,x0,2047
    ddf8:	00080737          	lui	x14,0x80
    ddfc:	00000613          	addi	x12,x0,0
    de00:	ed1ff06f          	jal	x0,dcd0 <__subdf3+0x1b0>
    de04:	0105e6b3          	or	x13,x11,x16
    de08:	18068863          	beq	x13,x0,df98 <__subdf3+0x478>
    de0c:	fff78693          	addi	x13,x15,-1
    de10:	3c068863          	beq	x13,x0,e1e0 <__subdf3+0x6c0>
    de14:	17c78663          	beq	x15,x28,df80 <__subdf3+0x460>
    de18:	03800793          	addi	x15,x0,56
    de1c:	00100513          	addi	x10,x0,1
    de20:	dcd7cae3          	blt	x15,x13,dbf4 <__subdf3+0xd4>
    de24:	00068793          	addi	x15,x13,0
    de28:	d9dff06f          	jal	x0,dbc4 <__subdf3+0xa4>
    de2c:	0016c693          	xori	x13,x13,1
    de30:	f8d91ae3          	bne	x18,x13,ddc4 <__subdf3+0x2a4>
    de34:	18060a63          	beq	x12,x0,dfc8 <__subdf3+0x4a8>
    de38:	2c0a1463          	bne	x20,x0,e100 <__subdf3+0x5e0>
    de3c:	7ff00793          	addi	x15,x0,2047
    de40:	006766b3          	or	x13,x14,x6
    de44:	4e068663          	beq	x13,x0,e330 <__subdf3+0x810>
    de48:	fff78693          	addi	x13,x15,-1
    de4c:	34068663          	beq	x13,x0,e198 <__subdf3+0x678>
    de50:	7ff00613          	addi	x12,x0,2047
    de54:	2ac78663          	beq	x15,x12,e100 <__subdf3+0x5e0>
    de58:	03800793          	addi	x15,x0,56
    de5c:	00100a93          	addi	x21,x0,1
    de60:	02d7cc63          	blt	x15,x13,de98 <__subdf3+0x378>
    de64:	00068793          	addi	x15,x13,0
    de68:	01f00693          	addi	x13,x0,31
    de6c:	52f6ca63          	blt	x13,x15,e3a0 <__subdf3+0x880>
    de70:	02000693          	addi	x13,x0,32
    de74:	40f686b3          	sub	x13,x13,x15
    de78:	00d71ab3          	sll	x21,x14,x13
    de7c:	00f35633          	srl	x12,x6,x15
    de80:	00d316b3          	sll	x13,x6,x13
    de84:	00caeab3          	or	x21,x21,x12
    de88:	00d036b3          	sltu	x13,x0,x13
    de8c:	00f757b3          	srl	x15,x14,x15
    de90:	00daeab3          	or	x21,x21,x13
    de94:	00f585b3          	add	x11,x11,x15
    de98:	010a8733          	add	x14,x21,x16
    de9c:	01573ab3          	sltu	x21,x14,x21
    dea0:	00070993          	addi	x19,x14,0 # 80000 <__heap_start+0x6d130>
    dea4:	00ba8ab3          	add	x21,x21,x11
    dea8:	00088a13          	addi	x20,x17,0
    deac:	ecdff06f          	jal	x0,dd78 <__subdf3+0x258>
    deb0:	001a0793          	addi	x15,x20,1
    deb4:	7fe7f793          	andi	x15,x15,2046
    deb8:	14079463          	bne	x15,x0,e000 <__subdf3+0x4e0>
    debc:	0105e633          	or	x12,x11,x16
    dec0:	006767b3          	or	x15,x14,x6
    dec4:	2a0a1663          	bne	x20,x0,e170 <__subdf3+0x650>
    dec8:	3e078a63          	beq	x15,x0,e2bc <__subdf3+0x79c>
    decc:	40061c63          	bne	x12,x0,e2e4 <__subdf3+0x7c4>
    ded0:	00351513          	slli	x10,x10,0x3
    ded4:	00355a93          	srli	x21,x10,0x3
    ded8:	00000793          	addi	x15,x0,0
    dedc:	1140006f          	jal	x0,dff0 <__subdf3+0x4d0>
    dee0:	0bca0063          	beq	x20,x28,df80 <__subdf3+0x460>
    dee4:	03800693          	addi	x13,x0,56
    dee8:	00100a93          	addi	x21,x0,1
    deec:	e6f6cee3          	blt	x13,x15,dd68 <__subdf3+0x248>
    def0:	008006b7          	lui	x13,0x800
    def4:	00d5e5b3          	or	x11,x11,x13
    def8:	e41ff06f          	jal	x0,dd38 <__subdf3+0x218>
    defc:	00197e93          	andi	x29,x18,1
    df00:	7ff00793          	addi	x15,x0,2047
    df04:	00000713          	addi	x14,x0,0
    df08:	00000613          	addi	x12,x0,0
    df0c:	dc5ff06f          	jal	x0,dcd0 <__subdf3+0x1b0>
    df10:	00098513          	addi	x10,x19,0
    df14:	069030ef          	jal	x1,1177c <__clzsi2>
    df18:	01850793          	addi	x15,x10,24
    df1c:	01f00693          	addi	x13,x0,31
    df20:	d0f6d4e3          	bge	x13,x15,dc28 <__subdf3+0x108>
    df24:	ff850713          	addi	x14,x10,-8
    df28:	00e99733          	sll	x14,x19,x14
    df2c:	1d47c063          	blt	x15,x20,e0ec <__subdf3+0x5cc>
    df30:	41478a33          	sub	x20,x15,x20
    df34:	001a0793          	addi	x15,x20,1
    df38:	48f6da63          	bge	x13,x15,e3cc <__subdf3+0x8ac>
    df3c:	fe1a0a13          	addi	x20,x20,-31
    df40:	02000693          	addi	x13,x0,32
    df44:	014759b3          	srl	x19,x14,x20
    df48:	00d78c63          	beq	x15,x13,df60 <__subdf3+0x440>
    df4c:	04000693          	addi	x13,x0,64
    df50:	40f687b3          	sub	x15,x13,x15
    df54:	00f71733          	sll	x14,x14,x15
    df58:	00e03733          	sltu	x14,x0,x14
    df5c:	00e9e9b3          	or	x19,x19,x14
    df60:	00000a13          	addi	x20,x0,0
    df64:	0079f793          	andi	x15,x19,7
    df68:	d00798e3          	bne	x15,x0,dc78 <__subdf3+0x158>
    df6c:	000a0793          	addi	x15,x20,0
    df70:	0039d513          	srli	x10,x19,0x3
    df74:	000a8713          	addi	x14,x21,0
    df78:	0280006f          	jal	x0,dfa0 <__subdf3+0x480>
    df7c:	e6061ae3          	bne	x12,x0,ddf0 <__subdf3+0x2d0>
    df80:	00351513          	slli	x10,x10,0x3
    df84:	01d71613          	slli	x12,x14,0x1d
    df88:	00355513          	srli	x10,x10,0x3
    df8c:	00a66633          	or	x12,x12,x10
    df90:	00375713          	srli	x14,x14,0x3
    df94:	e55ff06f          	jal	x0,dde8 <__subdf3+0x2c8>
    df98:	00351513          	slli	x10,x10,0x3
    df9c:	00355513          	srli	x10,x10,0x3
    dfa0:	01d71613          	slli	x12,x14,0x1d
    dfa4:	7ff00693          	addi	x13,x0,2047
    dfa8:	00a66633          	or	x12,x12,x10
    dfac:	00375713          	srli	x14,x14,0x3
    dfb0:	e2d78ce3          	beq	x15,x13,dde8 <__subdf3+0x2c8>
    dfb4:	00c71713          	slli	x14,x14,0xc
    dfb8:	00c75713          	srli	x14,x14,0xc
    dfbc:	7ff7f793          	andi	x15,x15,2047
    dfc0:	00197e93          	andi	x29,x18,1
    dfc4:	d0dff06f          	jal	x0,dcd0 <__subdf3+0x1b0>
    dfc8:	001a0693          	addi	x13,x20,1
    dfcc:	7fe6f793          	andi	x15,x13,2046
    dfd0:	14079063          	bne	x15,x0,e110 <__subdf3+0x5f0>
    dfd4:	006767b3          	or	x15,x14,x6
    dfd8:	2a0a1663          	bne	x20,x0,e284 <__subdf3+0x764>
    dfdc:	36078263          	beq	x15,x0,e340 <__subdf3+0x820>
    dfe0:	0105e7b3          	or	x15,x11,x16
    dfe4:	36079e63          	bne	x15,x0,e360 <__subdf3+0x840>
    dfe8:	00351513          	slli	x10,x10,0x3
    dfec:	00355a93          	srli	x21,x10,0x3
    dff0:	01d71613          	slli	x12,x14,0x1d
    dff4:	01566633          	or	x12,x12,x21
    dff8:	00375713          	srli	x14,x14,0x3
    dffc:	fb9ff06f          	jal	x0,dfb4 <__subdf3+0x494>
    e000:	41030633          	sub	x12,x6,x16
    e004:	00c337b3          	sltu	x15,x6,x12
    e008:	40b70ab3          	sub	x21,x14,x11
    e00c:	40fa8ab3          	sub	x21,x21,x15
    e010:	008a9793          	slli	x15,x21,0x8
    e014:	00060993          	addi	x19,x12,0
    e018:	1207c463          	blt	x15,x0,e140 <__subdf3+0x620>
    e01c:	01566633          	or	x12,x12,x21
    e020:	be061ce3          	bne	x12,x0,dc18 <__subdf3+0xf8>
    e024:	00000e93          	addi	x29,x0,0
    e028:	00000793          	addi	x15,x0,0
    e02c:	00000713          	addi	x14,x0,0
    e030:	ca1ff06f          	jal	x0,dcd0 <__subdf3+0x1b0>
    e034:	ff800ab7          	lui	x21,0xff800
    e038:	fffa8a93          	addi	x21,x21,-1 # ff7fffff <__heap_end+0xff3fffff>
    e03c:	40fa0a33          	sub	x20,x20,x15
    e040:	01577ab3          	and	x21,x14,x21
    e044:	c2dff06f          	jal	x0,dc70 <__subdf3+0x150>
    e048:	7ff00793          	addi	x15,x0,2047
    e04c:	00676633          	or	x12,x14,x6
    e050:	10060663          	beq	x12,x0,e15c <__subdf3+0x63c>
    e054:	fff78613          	addi	x12,x15,-1
    e058:	22060e63          	beq	x12,x0,e294 <__subdf3+0x774>
    e05c:	7ff00513          	addi	x10,x0,2047
    e060:	d6a786e3          	beq	x15,x10,ddcc <__subdf3+0x2ac>
    e064:	03800793          	addi	x15,x0,56
    e068:	00068913          	addi	x18,x13,0 # 800000 <__heap_end+0x400000>
    e06c:	00100513          	addi	x10,x0,1
    e070:	02c7cc63          	blt	x15,x12,e0a8 <__subdf3+0x588>
    e074:	00060793          	addi	x15,x12,0
    e078:	01f00693          	addi	x13,x0,31
    e07c:	1cf6ce63          	blt	x13,x15,e258 <__subdf3+0x738>
    e080:	02000693          	addi	x13,x0,32
    e084:	40f686b3          	sub	x13,x13,x15
    e088:	00d71533          	sll	x10,x14,x13
    e08c:	00f35633          	srl	x12,x6,x15
    e090:	00d316b3          	sll	x13,x6,x13
    e094:	00c56533          	or	x10,x10,x12
    e098:	00d036b3          	sltu	x13,x0,x13
    e09c:	00f757b3          	srl	x15,x14,x15
    e0a0:	00d56533          	or	x10,x10,x13
    e0a4:	40f585b3          	sub	x11,x11,x15
    e0a8:	40a80533          	sub	x10,x16,x10
    e0ac:	00a83733          	sltu	x14,x16,x10
    e0b0:	00050993          	addi	x19,x10,0
    e0b4:	40e58ab3          	sub	x21,x11,x14
    e0b8:	00088a13          	addi	x20,x17,0
    e0bc:	b49ff06f          	jal	x0,dc04 <__subdf3+0xe4>
    e0c0:	fe078693          	addi	x13,x15,-32
    e0c4:	02000613          	addi	x12,x0,32
    e0c8:	00d5d6b3          	srl	x13,x11,x13
    e0cc:	00c78a63          	beq	x15,x12,e0e0 <__subdf3+0x5c0>
    e0d0:	04000613          	addi	x12,x0,64
    e0d4:	40f607b3          	sub	x15,x12,x15
    e0d8:	00f597b3          	sll	x15,x11,x15
    e0dc:	00f86833          	or	x16,x16,x15
    e0e0:	01003533          	sltu	x10,x0,x16
    e0e4:	00d56533          	or	x10,x10,x13
    e0e8:	b0dff06f          	jal	x0,dbf4 <__subdf3+0xd4>
    e0ec:	ff8006b7          	lui	x13,0xff800
    e0f0:	fff68693          	addi	x13,x13,-1 # ff7fffff <__heap_end+0xff3fffff>
    e0f4:	40fa07b3          	sub	x15,x20,x15
    e0f8:	00d77733          	and	x14,x14,x13
    e0fc:	ef5ff06f          	jal	x0,dff0 <__subdf3+0x4d0>
    e100:	003f1513          	slli	x10,x30,0x3
    e104:	00355513          	srli	x10,x10,0x3
    e108:	00058713          	addi	x14,x11,0
    e10c:	cd1ff06f          	jal	x0,dddc <__subdf3+0x2bc>
    e110:	7ff00793          	addi	x15,x0,2047
    e114:	def684e3          	beq	x13,x15,defc <__subdf3+0x3dc>
    e118:	01030833          	add	x16,x6,x16
    e11c:	00683633          	sltu	x12,x16,x6
    e120:	00b707b3          	add	x15,x14,x11
    e124:	00c787b3          	add	x15,x15,x12
    e128:	01f79513          	slli	x10,x15,0x1f
    e12c:	00185813          	srli	x16,x16,0x1
    e130:	010569b3          	or	x19,x10,x16
    e134:	0017da93          	srli	x21,x15,0x1
    e138:	00068a13          	addi	x20,x13,0
    e13c:	b35ff06f          	jal	x0,dc70 <__subdf3+0x150>
    e140:	40680633          	sub	x12,x16,x6
    e144:	40e587b3          	sub	x15,x11,x14
    e148:	00c83733          	sltu	x14,x16,x12
    e14c:	00060993          	addi	x19,x12,0
    e150:	40e78ab3          	sub	x21,x15,x14
    e154:	00068913          	addi	x18,x13,0
    e158:	ac1ff06f          	jal	x0,dc18 <__subdf3+0xf8>
    e15c:	003f1613          	slli	x12,x30,0x3
    e160:	00365513          	srli	x10,x12,0x3
    e164:	00068913          	addi	x18,x13,0
    e168:	00058713          	addi	x14,x11,0
    e16c:	e35ff06f          	jal	x0,dfa0 <__subdf3+0x480>
    e170:	e00796e3          	bne	x15,x0,df7c <__subdf3+0x45c>
    e174:	28060063          	beq	x12,x0,e3f4 <__subdf3+0x8d4>
    e178:	0035d713          	srli	x14,x11,0x3
    e17c:	003f1613          	slli	x12,x30,0x3
    e180:	01d59593          	slli	x11,x11,0x1d
    e184:	00b76733          	or	x14,x14,x11
    e188:	00365613          	srli	x12,x12,0x3
    e18c:	00c76733          	or	x14,x14,x12
    e190:	00068913          	addi	x18,x13,0
    e194:	c59ff06f          	jal	x0,ddec <__subdf3+0x2cc>
    e198:	01030833          	add	x16,x6,x16
    e19c:	00b705b3          	add	x11,x14,x11
    e1a0:	00683633          	sltu	x12,x16,x6
    e1a4:	00c58ab3          	add	x21,x11,x12
    e1a8:	008a9793          	slli	x15,x21,0x8
    e1ac:	00080993          	addi	x19,x16,0
    e1b0:	1007d263          	bge	x15,x0,e2b4 <__subdf3+0x794>
    e1b4:	00200a13          	addi	x20,x0,2
    e1b8:	bd5ff06f          	jal	x0,dd8c <__subdf3+0x26c>
    e1bc:	ce078ae3          	beq	x15,x0,deb0 <__subdf3+0x390>
    e1c0:	414887b3          	sub	x15,x17,x20
    e1c4:	e80a04e3          	beq	x20,x0,e04c <__subdf3+0x52c>
    e1c8:	03800613          	addi	x12,x0,56
    e1cc:	04f64e63          	blt	x12,x15,e228 <__subdf3+0x708>
    e1d0:	00800637          	lui	x12,0x800
    e1d4:	00c76733          	or	x14,x14,x12
    e1d8:	00068913          	addi	x18,x13,0
    e1dc:	e9dff06f          	jal	x0,e078 <__subdf3+0x558>
    e1e0:	41030833          	sub	x16,x6,x16
    e1e4:	40b705b3          	sub	x11,x14,x11
    e1e8:	01033633          	sltu	x12,x6,x16
    e1ec:	00080993          	addi	x19,x16,0
    e1f0:	40c58ab3          	sub	x21,x11,x12
    e1f4:	00100a13          	addi	x20,x0,1
    e1f8:	a0dff06f          	jal	x0,dc04 <__subdf3+0xe4>
    e1fc:	fe078693          	addi	x13,x15,-32
    e200:	02000613          	addi	x12,x0,32
    e204:	00d5d6b3          	srl	x13,x11,x13
    e208:	00c78a63          	beq	x15,x12,e21c <__subdf3+0x6fc>
    e20c:	04000613          	addi	x12,x0,64
    e210:	40f607b3          	sub	x15,x12,x15
    e214:	00f597b3          	sll	x15,x11,x15
    e218:	00f86833          	or	x16,x16,x15
    e21c:	01003ab3          	sltu	x21,x0,x16
    e220:	00daeab3          	or	x21,x21,x13
    e224:	b45ff06f          	jal	x0,dd68 <__subdf3+0x248>
    e228:	00068913          	addi	x18,x13,0
    e22c:	00100513          	addi	x10,x0,1
    e230:	e79ff06f          	jal	x0,e0a8 <__subdf3+0x588>
    e234:	d8078ae3          	beq	x15,x0,dfc8 <__subdf3+0x4a8>
    e238:	414887b3          	sub	x15,x17,x20
    e23c:	c00a02e3          	beq	x20,x0,de40 <__subdf3+0x320>
    e240:	03800693          	addi	x13,x0,56
    e244:	00100a93          	addi	x21,x0,1
    e248:	c4f6c8e3          	blt	x13,x15,de98 <__subdf3+0x378>
    e24c:	008006b7          	lui	x13,0x800
    e250:	00d76733          	or	x14,x14,x13
    e254:	c15ff06f          	jal	x0,de68 <__subdf3+0x348>
    e258:	fe078693          	addi	x13,x15,-32
    e25c:	02000613          	addi	x12,x0,32
    e260:	00d756b3          	srl	x13,x14,x13
    e264:	00c78a63          	beq	x15,x12,e278 <__subdf3+0x758>
    e268:	04000613          	addi	x12,x0,64
    e26c:	40f607b3          	sub	x15,x12,x15
    e270:	00f717b3          	sll	x15,x14,x15
    e274:	00f36333          	or	x6,x6,x15
    e278:	00603533          	sltu	x10,x0,x6
    e27c:	00d56533          	or	x10,x10,x13
    e280:	e29ff06f          	jal	x0,e0a8 <__subdf3+0x588>
    e284:	e6078ee3          	beq	x15,x0,e100 <__subdf3+0x5e0>
    e288:	0105e833          	or	x16,x11,x16
    e28c:	b60812e3          	bne	x16,x0,ddf0 <__subdf3+0x2d0>
    e290:	cf1ff06f          	jal	x0,df80 <__subdf3+0x460>
    e294:	40680633          	sub	x12,x16,x6
    e298:	40e585b3          	sub	x11,x11,x14
    e29c:	00c83733          	sltu	x14,x16,x12
    e2a0:	00060993          	addi	x19,x12,0 # 800000 <__heap_end+0x400000>
    e2a4:	40e58ab3          	sub	x21,x11,x14
    e2a8:	00068913          	addi	x18,x13,0 # 800000 <__heap_end+0x400000>
    e2ac:	00100a13          	addi	x20,x0,1
    e2b0:	955ff06f          	jal	x0,dc04 <__subdf3+0xe4>
    e2b4:	00100793          	addi	x15,x0,1
    e2b8:	cb9ff06f          	jal	x0,df70 <__subdf3+0x450>
    e2bc:	d60604e3          	beq	x12,x0,e024 <__subdf3+0x504>
    e2c0:	003f1613          	slli	x12,x30,0x3
    e2c4:	01d59793          	slli	x15,x11,0x1d
    e2c8:	00365613          	srli	x12,x12,0x3
    e2cc:	00959713          	slli	x14,x11,0x9
    e2d0:	00f66633          	or	x12,x12,x15
    e2d4:	00c75713          	srli	x14,x14,0xc
    e2d8:	00068e93          	addi	x29,x13,0
    e2dc:	00000793          	addi	x15,x0,0
    e2e0:	9f1ff06f          	jal	x0,dcd0 <__subdf3+0x1b0>
    e2e4:	41030ab3          	sub	x21,x6,x16
    e2e8:	015337b3          	sltu	x15,x6,x21
    e2ec:	40b70533          	sub	x10,x14,x11
    e2f0:	40f50533          	sub	x10,x10,x15
    e2f4:	00851793          	slli	x15,x10,0x8
    e2f8:	0e07d263          	bge	x15,x0,e3dc <__subdf3+0x8bc>
    e2fc:	40680633          	sub	x12,x16,x6
    e300:	40e58733          	sub	x14,x11,x14
    e304:	00c83833          	sltu	x16,x16,x12
    e308:	41070733          	sub	x14,x14,x16
    e30c:	00871793          	slli	x15,x14,0x8
    e310:	00060993          	addi	x19,x12,0
    e314:	1007d463          	bge	x15,x0,e41c <__subdf3+0x8fc>
    e318:	ff8007b7          	lui	x15,0xff800
    e31c:	fff78793          	addi	x15,x15,-1 # ff7fffff <__heap_end+0xff3fffff>
    e320:	00f77733          	and	x14,x14,x15
    e324:	00068913          	addi	x18,x13,0
    e328:	00100793          	addi	x15,x0,1
    e32c:	98dff06f          	jal	x0,dcb8 <__subdf3+0x198>
    e330:	003f1613          	slli	x12,x30,0x3
    e334:	00365513          	srli	x10,x12,0x3
    e338:	00058713          	addi	x14,x11,0
    e33c:	c65ff06f          	jal	x0,dfa0 <__subdf3+0x480>
    e340:	003f1613          	slli	x12,x30,0x3
    e344:	00365a93          	srli	x21,x12,0x3
    e348:	00058713          	addi	x14,x11,0
    e34c:	ca5ff06f          	jal	x0,dff0 <__subdf3+0x4d0>
    e350:	0039d513          	srli	x10,x19,0x3
    e354:	000a0793          	addi	x15,x20,0
    e358:	000a8713          	addi	x14,x21,0
    e35c:	c45ff06f          	jal	x0,dfa0 <__subdf3+0x480>
    e360:	01030833          	add	x16,x6,x16
    e364:	00b707b3          	add	x15,x14,x11
    e368:	00683633          	sltu	x12,x16,x6
    e36c:	00c787b3          	add	x15,x15,x12
    e370:	00879713          	slli	x14,x15,0x8
    e374:	00385813          	srli	x16,x16,0x3
    e378:	08075663          	bge	x14,x0,e404 <__subdf3+0x8e4>
    e37c:	ff800737          	lui	x14,0xff800
    e380:	fff70713          	addi	x14,x14,-1 # ff7fffff <__heap_end+0xff3fffff>
    e384:	00e7f7b3          	and	x15,x15,x14
    e388:	01d79613          	slli	x12,x15,0x1d
    e38c:	00979793          	slli	x15,x15,0x9
    e390:	00c7d713          	srli	x14,x15,0xc
    e394:	01066633          	or	x12,x12,x16
    e398:	00100793          	addi	x15,x0,1
    e39c:	935ff06f          	jal	x0,dcd0 <__subdf3+0x1b0>
    e3a0:	fe078693          	addi	x13,x15,-32
    e3a4:	02000613          	addi	x12,x0,32
    e3a8:	00d756b3          	srl	x13,x14,x13
    e3ac:	00c78a63          	beq	x15,x12,e3c0 <__subdf3+0x8a0>
    e3b0:	04000613          	addi	x12,x0,64
    e3b4:	40f607b3          	sub	x15,x12,x15
    e3b8:	00f717b3          	sll	x15,x14,x15
    e3bc:	00f36333          	or	x6,x6,x15
    e3c0:	00603ab3          	sltu	x21,x0,x6
    e3c4:	00daeab3          	or	x21,x21,x13
    e3c8:	ad1ff06f          	jal	x0,de98 <__subdf3+0x378>
    e3cc:	02000693          	addi	x13,x0,32
    e3d0:	40f686b3          	sub	x13,x13,x15
    e3d4:	00000613          	addi	x12,x0,0
    e3d8:	885ff06f          	jal	x0,dc5c <__subdf3+0x13c>
    e3dc:	00aae633          	or	x12,x21,x10
    e3e0:	c40602e3          	beq	x12,x0,e024 <__subdf3+0x504>
    e3e4:	003ada93          	srli	x21,x21,0x3
    e3e8:	00000793          	addi	x15,x0,0
    e3ec:	00050713          	addi	x14,x10,0
    e3f0:	c01ff06f          	jal	x0,dff0 <__subdf3+0x4d0>
    e3f4:	00000e93          	addi	x29,x0,0
    e3f8:	7ff00793          	addi	x15,x0,2047
    e3fc:	00080737          	lui	x14,0x80
    e400:	8d1ff06f          	jal	x0,dcd0 <__subdf3+0x1b0>
    e404:	01d79613          	slli	x12,x15,0x1d
    e408:	00979793          	slli	x15,x15,0x9
    e40c:	00c7d713          	srli	x14,x15,0xc
    e410:	01066633          	or	x12,x12,x16
    e414:	00000793          	addi	x15,x0,0
    e418:	8b9ff06f          	jal	x0,dcd0 <__subdf3+0x1b0>
    e41c:	01d71793          	slli	x15,x14,0x1d
    e420:	00365613          	srli	x12,x12,0x3
    e424:	00c7e633          	or	x12,x15,x12
    e428:	00375713          	srli	x14,x14,0x3
    e42c:	00068913          	addi	x18,x13,0
    e430:	00000793          	addi	x15,x0,0
    e434:	b81ff06f          	jal	x0,dfb4 <__subdf3+0x494>

0000e438 <__fixdfsi>:
    e438:	0145d793          	srli	x15,x11,0x14
    e43c:	001006b7          	lui	x13,0x100
    e440:	fff68713          	addi	x14,x13,-1 # fffff <__heap_start+0xed12f>
    e444:	7ff7f793          	andi	x15,x15,2047
    e448:	3fe00613          	addi	x12,x0,1022
    e44c:	00b77733          	and	x14,x14,x11
    e450:	01f5d593          	srli	x11,x11,0x1f
    e454:	00f65e63          	bge	x12,x15,e470 <__fixdfsi+0x38>
    e458:	41d00613          	addi	x12,x0,1053
    e45c:	00f65e63          	bge	x12,x15,e478 <__fixdfsi+0x40>
    e460:	80000537          	lui	x10,0x80000
    e464:	fff50513          	addi	x10,x10,-1 # 7fffffff <__heap_end+0x7fbfffff>
    e468:	00a58533          	add	x10,x11,x10
    e46c:	00008067          	jalr	x0,0(x1)
    e470:	00000513          	addi	x10,x0,0
    e474:	00008067          	jalr	x0,0(x1)
    e478:	43300613          	addi	x12,x0,1075
    e47c:	40f60633          	sub	x12,x12,x15
    e480:	01f00813          	addi	x16,x0,31
    e484:	00d76733          	or	x14,x14,x13
    e488:	02c85063          	bge	x16,x12,e4a8 <__fixdfsi+0x70>
    e48c:	41300693          	addi	x13,x0,1043
    e490:	40f687b3          	sub	x15,x13,x15
    e494:	00f75733          	srl	x14,x14,x15
    e498:	40e00533          	sub	x10,x0,x14
    e49c:	fc059ce3          	bne	x11,x0,e474 <__fixdfsi+0x3c>
    e4a0:	00070513          	addi	x10,x14,0 # 80000 <__heap_start+0x6d130>
    e4a4:	00008067          	jalr	x0,0(x1)
    e4a8:	bed78793          	addi	x15,x15,-1043
    e4ac:	00f71733          	sll	x14,x14,x15
    e4b0:	00c55533          	srl	x10,x10,x12
    e4b4:	00a76733          	or	x14,x14,x10
    e4b8:	fe1ff06f          	jal	x0,e498 <__fixdfsi+0x60>

0000e4bc <__floatsidf>:
    e4bc:	fe010113          	addi	x2,x2,-32
    e4c0:	00112e23          	sw	x1,28(x2)
    e4c4:	00812c23          	sw	x8,24(x2)
    e4c8:	00912a23          	sw	x9,20(x2)
    e4cc:	01212823          	sw	x18,16(x2)
    e4d0:	01312623          	sw	x19,12(x2)
    e4d4:	04050a63          	beq	x10,x0,e528 <__floatsidf+0x6c>
    e4d8:	41f55713          	srai	x14,x10,0x1f
    e4dc:	00a744b3          	xor	x9,x14,x10
    e4e0:	40e484b3          	sub	x9,x9,x14
    e4e4:	00050793          	addi	x15,x10,0
    e4e8:	00048513          	addi	x10,x9,0
    e4ec:	01f7d413          	srli	x8,x15,0x1f
    e4f0:	28c030ef          	jal	x1,1177c <__clzsi2>
    e4f4:	41e00793          	addi	x15,x0,1054
    e4f8:	40a787b3          	sub	x15,x15,x10
    e4fc:	00a00713          	addi	x14,x0,10
    e500:	7ff7f793          	andi	x15,x15,2047
    e504:	06a74463          	blt	x14,x10,e56c <__floatsidf+0xb0>
    e508:	00b00713          	addi	x14,x0,11
    e50c:	40a70733          	sub	x14,x14,x10
    e510:	00e4d733          	srl	x14,x9,x14
    e514:	01550513          	addi	x10,x10,21
    e518:	00c71713          	slli	x14,x14,0xc
    e51c:	00a494b3          	sll	x9,x9,x10
    e520:	00c75713          	srli	x14,x14,0xc
    e524:	0140006f          	jal	x0,e538 <__floatsidf+0x7c>
    e528:	00000413          	addi	x8,x0,0
    e52c:	00000793          	addi	x15,x0,0
    e530:	00000713          	addi	x14,x0,0
    e534:	00000493          	addi	x9,x0,0
    e538:	01479793          	slli	x15,x15,0x14
    e53c:	01f41413          	slli	x8,x8,0x1f
    e540:	00e7e7b3          	or	x15,x15,x14
    e544:	01c12083          	lw	x1,28(x2)
    e548:	0087e7b3          	or	x15,x15,x8
    e54c:	01812403          	lw	x8,24(x2)
    e550:	01012903          	lw	x18,16(x2)
    e554:	00c12983          	lw	x19,12(x2)
    e558:	00048513          	addi	x10,x9,0
    e55c:	00078593          	addi	x11,x15,0
    e560:	01412483          	lw	x9,20(x2)
    e564:	02010113          	addi	x2,x2,32
    e568:	00008067          	jalr	x0,0(x1)
    e56c:	ff550513          	addi	x10,x10,-11
    e570:	00a49733          	sll	x14,x9,x10
    e574:	00c71713          	slli	x14,x14,0xc
    e578:	00c75713          	srli	x14,x14,0xc
    e57c:	00000493          	addi	x9,x0,0
    e580:	fb9ff06f          	jal	x0,e538 <__floatsidf+0x7c>

0000e584 <__eqtf2>:
    e584:	00c52703          	lw	x14,12(x10)
    e588:	00c5a683          	lw	x13,12(x11)
    e58c:	000087b7          	lui	x15,0x8
    e590:	fff78793          	addi	x15,x15,-1 # 7fff <__gdtoa+0x20f>
    e594:	01075613          	srli	x12,x14,0x10
    e598:	0106d813          	srli	x16,x13,0x10
    e59c:	01071293          	slli	x5,x14,0x10
    e5a0:	01069393          	slli	x7,x13,0x10
    e5a4:	00f67633          	and	x12,x12,x15
    e5a8:	00052303          	lw	x6,0(x10)
    e5ac:	00452883          	lw	x17,4(x10)
    e5b0:	00852f03          	lw	x30,8(x10)
    e5b4:	0005ae03          	lw	x28,0(x11)
    e5b8:	0045ae83          	lw	x29,4(x11)
    e5bc:	0085af83          	lw	x31,8(x11)
    e5c0:	ff010113          	addi	x2,x2,-16
    e5c4:	0102d293          	srli	x5,x5,0x10
    e5c8:	01f75713          	srli	x14,x14,0x1f
    e5cc:	0103d393          	srli	x7,x7,0x10
    e5d0:	00f875b3          	and	x11,x16,x15
    e5d4:	01f6d693          	srli	x13,x13,0x1f
    e5d8:	00100513          	addi	x10,x0,1
    e5dc:	00f60c63          	beq	x12,x15,e5f4 <__eqtf2+0x70>
    e5e0:	00f58663          	beq	x11,x15,e5ec <__eqtf2+0x68>
    e5e4:	00c59463          	bne	x11,x12,e5ec <__eqtf2+0x68>
    e5e8:	03c30e63          	beq	x6,x28,e624 <__eqtf2+0xa0>
    e5ec:	01010113          	addi	x2,x2,16
    e5f0:	00008067          	jalr	x0,0(x1)
    e5f4:	fec59ce3          	bne	x11,x12,e5ec <__eqtf2+0x68>
    e5f8:	0068e7b3          	or	x15,x17,x6
    e5fc:	01e7e7b3          	or	x15,x15,x30
    e600:	0057e7b3          	or	x15,x15,x5
    e604:	01c7e7b3          	or	x15,x15,x28
    e608:	01d7e7b3          	or	x15,x15,x29
    e60c:	01f7e7b3          	or	x15,x15,x31
    e610:	0077e7b3          	or	x15,x15,x7
    e614:	fc079ce3          	bne	x15,x0,e5ec <__eqtf2+0x68>
    e618:	40d70733          	sub	x14,x14,x13
    e61c:	00e03533          	sltu	x10,x0,x14
    e620:	fcdff06f          	jal	x0,e5ec <__eqtf2+0x68>
    e624:	fdd894e3          	bne	x17,x29,e5ec <__eqtf2+0x68>
    e628:	fdff12e3          	bne	x30,x31,e5ec <__eqtf2+0x68>
    e62c:	fc7290e3          	bne	x5,x7,e5ec <__eqtf2+0x68>
    e630:	00d70e63          	beq	x14,x13,e64c <__eqtf2+0xc8>
    e634:	fa059ce3          	bne	x11,x0,e5ec <__eqtf2+0x68>
    e638:	0068e7b3          	or	x15,x17,x6
    e63c:	01e7e7b3          	or	x15,x15,x30
    e640:	0057e7b3          	or	x15,x15,x5
    e644:	00f03533          	sltu	x10,x0,x15
    e648:	fa5ff06f          	jal	x0,e5ec <__eqtf2+0x68>
    e64c:	00000513          	addi	x10,x0,0
    e650:	f9dff06f          	jal	x0,e5ec <__eqtf2+0x68>

0000e654 <__getf2>:
    e654:	00c52303          	lw	x6,12(x10)
    e658:	00c5a883          	lw	x17,12(x11)
    e65c:	000087b7          	lui	x15,0x8
    e660:	fff78793          	addi	x15,x15,-1 # 7fff <__gdtoa+0x20f>
    e664:	01035613          	srli	x12,x6,0x10
    e668:	0108d713          	srli	x14,x17,0x10
    e66c:	01031f13          	slli	x30,x6,0x10
    e670:	0005ae83          	lw	x29,0(x11)
    e674:	0045a683          	lw	x13,4(x11)
    e678:	0085ae03          	lw	x28,8(x11)
    e67c:	00f67633          	and	x12,x12,x15
    e680:	01089593          	slli	x11,x17,0x10
    e684:	00052803          	lw	x16,0(x10)
    e688:	00452283          	lw	x5,4(x10)
    e68c:	00852f83          	lw	x31,8(x10)
    e690:	ff010113          	addi	x2,x2,-16
    e694:	010f5f13          	srli	x30,x30,0x10
    e698:	01f35313          	srli	x6,x6,0x1f
    e69c:	0105d593          	srli	x11,x11,0x10
    e6a0:	00f77533          	and	x10,x14,x15
    e6a4:	01f8d893          	srli	x17,x17,0x1f
    e6a8:	06f60a63          	beq	x12,x15,e71c <__getf2+0xc8>
    e6ac:	02f50e63          	beq	x10,x15,e6e8 <__getf2+0x94>
    e6b0:	0c061c63          	bne	x12,x0,e788 <__getf2+0x134>
    e6b4:	005867b3          	or	x15,x16,x5
    e6b8:	01f7e7b3          	or	x15,x15,x31
    e6bc:	01e7e7b3          	or	x15,x15,x30
    e6c0:	0e051263          	bne	x10,x0,e7a4 <__getf2+0x150>
    e6c4:	01d6e733          	or	x14,x13,x29
    e6c8:	01c76733          	or	x14,x14,x28
    e6cc:	00b76733          	or	x14,x14,x11
    e6d0:	06071e63          	bne	x14,x0,e74c <__getf2+0xf8>
    e6d4:	00078663          	beq	x15,x0,e6e0 <__getf2+0x8c>
    e6d8:	02031e63          	bne	x6,x0,e714 <__getf2+0xc0>
    e6dc:	00100513          	addi	x10,x0,1
    e6e0:	01010113          	addi	x2,x2,16
    e6e4:	00008067          	jalr	x0,0(x1)
    e6e8:	01d6e6b3          	or	x13,x13,x29
    e6ec:	01c6e6b3          	or	x13,x13,x28
    e6f0:	00b6e6b3          	or	x13,x13,x11
    e6f4:	0a069463          	bne	x13,x0,e79c <__getf2+0x148>
    e6f8:	08061463          	bne	x12,x0,e780 <__getf2+0x12c>
    e6fc:	00586833          	or	x16,x16,x5
    e700:	01f86833          	or	x16,x16,x31
    e704:	01e86833          	or	x16,x16,x30
    e708:	06081c63          	bne	x16,x0,e780 <__getf2+0x12c>
    e70c:	00100513          	addi	x10,x0,1
    e710:	fc0898e3          	bne	x17,x0,e6e0 <__getf2+0x8c>
    e714:	fff00513          	addi	x10,x0,-1
    e718:	fc9ff06f          	jal	x0,e6e0 <__getf2+0x8c>
    e71c:	00586833          	or	x16,x16,x5
    e720:	01f86833          	or	x16,x16,x31
    e724:	01e86833          	or	x16,x16,x30
    e728:	06081a63          	bne	x16,x0,e79c <__getf2+0x148>
    e72c:	fac516e3          	bne	x10,x12,e6d8 <__getf2+0x84>
    e730:	01d6e6b3          	or	x13,x13,x29
    e734:	01c6e6b3          	or	x13,x13,x28
    e738:	00b6e6b3          	or	x13,x13,x11
    e73c:	06069063          	bne	x13,x0,e79c <__getf2+0x148>
    e740:	f8689ce3          	bne	x17,x6,e6d8 <__getf2+0x84>
    e744:	00000513          	addi	x10,x0,0
    e748:	f99ff06f          	jal	x0,e6e0 <__getf2+0x8c>
    e74c:	fc0780e3          	beq	x15,x0,e70c <__getf2+0xb8>
    e750:	f86894e3          	bne	x17,x6,e6d8 <__getf2+0x84>
    e754:	f9e5e2e3          	bltu	x11,x30,e6d8 <__getf2+0x84>
    e758:	00bf1e63          	bne	x30,x11,e774 <__getf2+0x120>
    e75c:	f7fe6ee3          	bltu	x28,x31,e6d8 <__getf2+0x84>
    e760:	01cf9a63          	bne	x31,x28,e774 <__getf2+0x120>
    e764:	f656eae3          	bltu	x13,x5,e6d8 <__getf2+0x84>
    e768:	00569663          	bne	x13,x5,e774 <__getf2+0x120>
    e76c:	f70ee6e3          	bltu	x29,x16,e6d8 <__getf2+0x84>
    e770:	fdd87ae3          	bgeu	x16,x29,e744 <__getf2+0xf0>
    e774:	00100513          	addi	x10,x0,1
    e778:	f60314e3          	bne	x6,x0,e6e0 <__getf2+0x8c>
    e77c:	f99ff06f          	jal	x0,e714 <__getf2+0xc0>
    e780:	f4689ce3          	bne	x17,x6,e6d8 <__getf2+0x84>
    e784:	ff1ff06f          	jal	x0,e774 <__getf2+0x120>
    e788:	f40508e3          	beq	x10,x0,e6d8 <__getf2+0x84>
    e78c:	f46896e3          	bne	x17,x6,e6d8 <__getf2+0x84>
    e790:	f4c544e3          	blt	x10,x12,e6d8 <__getf2+0x84>
    e794:	fca650e3          	bge	x12,x10,e754 <__getf2+0x100>
    e798:	fddff06f          	jal	x0,e774 <__getf2+0x120>
    e79c:	ffe00513          	addi	x10,x0,-2
    e7a0:	f41ff06f          	jal	x0,e6e0 <__getf2+0x8c>
    e7a4:	f60784e3          	beq	x15,x0,e70c <__getf2+0xb8>
    e7a8:	f26898e3          	bne	x17,x6,e6d8 <__getf2+0x84>
    e7ac:	faa654e3          	bge	x12,x10,e754 <__getf2+0x100>
    e7b0:	fc5ff06f          	jal	x0,e774 <__getf2+0x120>

0000e7b4 <__letf2>:
    e7b4:	00c52303          	lw	x6,12(x10)
    e7b8:	00c5a883          	lw	x17,12(x11)
    e7bc:	000087b7          	lui	x15,0x8
    e7c0:	fff78793          	addi	x15,x15,-1 # 7fff <__gdtoa+0x20f>
    e7c4:	01035693          	srli	x13,x6,0x10
    e7c8:	0108d713          	srli	x14,x17,0x10
    e7cc:	01031f13          	slli	x30,x6,0x10
    e7d0:	0005ae83          	lw	x29,0(x11)
    e7d4:	0045a603          	lw	x12,4(x11)
    e7d8:	0085ae03          	lw	x28,8(x11)
    e7dc:	00f6f6b3          	and	x13,x13,x15
    e7e0:	01089593          	slli	x11,x17,0x10
    e7e4:	00052803          	lw	x16,0(x10)
    e7e8:	00452283          	lw	x5,4(x10)
    e7ec:	00852f83          	lw	x31,8(x10)
    e7f0:	ff010113          	addi	x2,x2,-16
    e7f4:	010f5f13          	srli	x30,x30,0x10
    e7f8:	01f35313          	srli	x6,x6,0x1f
    e7fc:	0105d593          	srli	x11,x11,0x10
    e800:	00f77533          	and	x10,x14,x15
    e804:	01f8d893          	srli	x17,x17,0x1f
    e808:	08f68463          	beq	x13,x15,e890 <__letf2+0xdc>
    e80c:	02f50a63          	beq	x10,x15,e840 <__letf2+0x8c>
    e810:	0a069a63          	bne	x13,x0,e8c4 <__letf2+0x110>
    e814:	005867b3          	or	x15,x16,x5
    e818:	01f7e7b3          	or	x15,x15,x31
    e81c:	01e7e7b3          	or	x15,x15,x30
    e820:	04051e63          	bne	x10,x0,e87c <__letf2+0xc8>
    e824:	01d66733          	or	x14,x12,x29
    e828:	01c76733          	or	x14,x14,x28
    e82c:	00b76733          	or	x14,x14,x11
    e830:	04071663          	bne	x14,x0,e87c <__letf2+0xc8>
    e834:	02079c63          	bne	x15,x0,e86c <__letf2+0xb8>
    e838:	01010113          	addi	x2,x2,16
    e83c:	00008067          	jalr	x0,0(x1)
    e840:	01d66633          	or	x12,x12,x29
    e844:	01c66633          	or	x12,x12,x28
    e848:	00b66633          	or	x12,x12,x11
    e84c:	00200513          	addi	x10,x0,2
    e850:	fe0614e3          	bne	x12,x0,e838 <__letf2+0x84>
    e854:	00069a63          	bne	x13,x0,e868 <__letf2+0xb4>
    e858:	00586833          	or	x16,x16,x5
    e85c:	01f86833          	or	x16,x16,x31
    e860:	01e86833          	or	x16,x16,x30
    e864:	00080e63          	beq	x16,x0,e880 <__letf2+0xcc>
    e868:	08688663          	beq	x17,x6,e8f4 <__letf2+0x140>
    e86c:	00031e63          	bne	x6,x0,e888 <__letf2+0xd4>
    e870:	00100513          	addi	x10,x0,1
    e874:	01010113          	addi	x2,x2,16
    e878:	00008067          	jalr	x0,0(x1)
    e87c:	08079863          	bne	x15,x0,e90c <__letf2+0x158>
    e880:	00100513          	addi	x10,x0,1
    e884:	fa089ae3          	bne	x17,x0,e838 <__letf2+0x84>
    e888:	fff00513          	addi	x10,x0,-1
    e88c:	fadff06f          	jal	x0,e838 <__letf2+0x84>
    e890:	00586833          	or	x16,x16,x5
    e894:	01f86833          	or	x16,x16,x31
    e898:	01e86833          	or	x16,x16,x30
    e89c:	06081263          	bne	x16,x0,e900 <__letf2+0x14c>
    e8a0:	fcd516e3          	bne	x10,x13,e86c <__letf2+0xb8>
    e8a4:	01d66633          	or	x12,x12,x29
    e8a8:	01c66633          	or	x12,x12,x28
    e8ac:	00b66633          	or	x12,x12,x11
    e8b0:	00200513          	addi	x10,x0,2
    e8b4:	f80612e3          	bne	x12,x0,e838 <__letf2+0x84>
    e8b8:	fa689ae3          	bne	x17,x6,e86c <__letf2+0xb8>
    e8bc:	00000513          	addi	x10,x0,0
    e8c0:	f79ff06f          	jal	x0,e838 <__letf2+0x84>
    e8c4:	fa0504e3          	beq	x10,x0,e86c <__letf2+0xb8>
    e8c8:	fa6892e3          	bne	x17,x6,e86c <__letf2+0xb8>
    e8cc:	fad540e3          	blt	x10,x13,e86c <__letf2+0xb8>
    e8d0:	02a6c263          	blt	x13,x10,e8f4 <__letf2+0x140>
    e8d4:	f9e5ece3          	bltu	x11,x30,e86c <__letf2+0xb8>
    e8d8:	00bf1e63          	bne	x30,x11,e8f4 <__letf2+0x140>
    e8dc:	f9fe68e3          	bltu	x28,x31,e86c <__letf2+0xb8>
    e8e0:	01cf9a63          	bne	x31,x28,e8f4 <__letf2+0x140>
    e8e4:	f85664e3          	bltu	x12,x5,e86c <__letf2+0xb8>
    e8e8:	00561663          	bne	x12,x5,e8f4 <__letf2+0x140>
    e8ec:	f90ee0e3          	bltu	x29,x16,e86c <__letf2+0xb8>
    e8f0:	fdd876e3          	bgeu	x16,x29,e8bc <__letf2+0x108>
    e8f4:	00100513          	addi	x10,x0,1
    e8f8:	f40310e3          	bne	x6,x0,e838 <__letf2+0x84>
    e8fc:	f8dff06f          	jal	x0,e888 <__letf2+0xd4>
    e900:	00200513          	addi	x10,x0,2
    e904:	01010113          	addi	x2,x2,16
    e908:	00008067          	jalr	x0,0(x1)
    e90c:	f66890e3          	bne	x17,x6,e86c <__letf2+0xb8>
    e910:	fc1ff06f          	jal	x0,e8d0 <__letf2+0x11c>

0000e914 <__multf3>:
    e914:	00c5a803          	lw	x16,12(x11)
    e918:	f5010113          	addi	x2,x2,-176
    e91c:	0045a703          	lw	x14,4(x11)
    e920:	0085a883          	lw	x17,8(x11)
    e924:	0a912223          	sw	x9,164(x2)
    e928:	0005a483          	lw	x9,0(x11)
    e92c:	01081793          	slli	x15,x16,0x10
    e930:	000085b7          	lui	x11,0x8
    e934:	0107d793          	srli	x15,x15,0x10
    e938:	01085693          	srli	x13,x16,0x10
    e93c:	fff58593          	addi	x11,x11,-1 # 7fff <__gdtoa+0x20f>
    e940:	0a812423          	sw	x8,168(x2)
    e944:	0b212023          	sw	x18,160(x2)
    e948:	09312e23          	sw	x19,156(x2)
    e94c:	09412c23          	sw	x20,152(x2)
    e950:	09512a23          	sw	x21,148(x2)
    e954:	09712623          	sw	x23,140(x2)
    e958:	0a112623          	sw	x1,172(x2)
    e95c:	09612823          	sw	x22,144(x2)
    e960:	09812423          	sw	x24,136(x2)
    e964:	07b12e23          	sw	x27,124(x2)
    e968:	04912823          	sw	x9,80(x2)
    e96c:	04e12a23          	sw	x14,84(x2)
    e970:	05112c23          	sw	x17,88(x2)
    e974:	05012e23          	sw	x16,92(x2)
    e978:	02912023          	sw	x9,32(x2)
    e97c:	02e12223          	sw	x14,36(x2)
    e980:	03112423          	sw	x17,40(x2)
    e984:	02f12623          	sw	x15,44(x2)
    e988:	00b6f6b3          	and	x13,x13,x11
    e98c:	00062a83          	lw	x21,0(x12)
    e990:	00462983          	lw	x19,4(x12)
    e994:	00862b83          	lw	x23,8(x12)
    e998:	00c62903          	lw	x18,12(x12)
    e99c:	00050413          	addi	x8,x10,0
    e9a0:	01f85a13          	srli	x20,x16,0x1f
    e9a4:	34068063          	beq	x13,x0,ece4 <__multf3+0x3d0>
    e9a8:	18b68c63          	beq	x13,x11,eb40 <__multf3+0x22c>
    e9ac:	00010737          	lui	x14,0x10
    e9b0:	00e7e7b3          	or	x15,x15,x14
    e9b4:	02f12623          	sw	x15,44(x2)
    e9b8:	02010513          	addi	x10,x2,32
    e9bc:	02c10713          	addi	x14,x2,44
    e9c0:	00379593          	slli	x11,x15,0x3
    e9c4:	ffc72783          	lw	x15,-4(x14) # fffc <__subtf3+0x56c>
    e9c8:	ffc70713          	addi	x14,x14,-4
    e9cc:	01d7d613          	srli	x12,x15,0x1d
    e9d0:	00b66633          	or	x12,x12,x11
    e9d4:	00c72223          	sw	x12,4(x14)
    e9d8:	fee514e3          	bne	x10,x14,e9c0 <__multf3+0xac>
    e9dc:	ffffc7b7          	lui	x15,0xffffc
    e9e0:	00349493          	slli	x9,x9,0x3
    e9e4:	00178793          	addi	x15,x15,1 # ffffc001 <__heap_end+0xffbfc001>
    e9e8:	02912023          	sw	x9,32(x2)
    e9ec:	00f68db3          	add	x27,x13,x15
    e9f0:	00000b13          	addi	x22,x0,0
    e9f4:	00000c13          	addi	x24,x0,0
    e9f8:	01091513          	slli	x10,x18,0x10
    e9fc:	000086b7          	lui	x13,0x8
    ea00:	01095793          	srli	x15,x18,0x10
    ea04:	01055513          	srli	x10,x10,0x10
    ea08:	fff68713          	addi	x14,x13,-1 # 7fff <__gdtoa+0x20f>
    ea0c:	05212e23          	sw	x18,92(x2)
    ea10:	05512823          	sw	x21,80(x2)
    ea14:	05312a23          	sw	x19,84(x2)
    ea18:	05712c23          	sw	x23,88(x2)
    ea1c:	03512823          	sw	x21,48(x2)
    ea20:	03312a23          	sw	x19,52(x2)
    ea24:	03712c23          	sw	x23,56(x2)
    ea28:	02a12e23          	sw	x10,60(x2)
    ea2c:	00e7f7b3          	and	x15,x15,x14
    ea30:	01f95913          	srli	x18,x18,0x1f
    ea34:	1c078463          	beq	x15,x0,ebfc <__multf3+0x2e8>
    ea38:	12e78463          	beq	x15,x14,eb60 <__multf3+0x24c>
    ea3c:	00010737          	lui	x14,0x10
    ea40:	00e56533          	or	x10,x10,x14
    ea44:	02a12e23          	sw	x10,60(x2)
    ea48:	03010593          	addi	x11,x2,48
    ea4c:	03c10713          	addi	x14,x2,60
    ea50:	00351613          	slli	x12,x10,0x3
    ea54:	ffc72503          	lw	x10,-4(x14) # fffc <__subtf3+0x56c>
    ea58:	ffc70713          	addi	x14,x14,-4
    ea5c:	01d55693          	srli	x13,x10,0x1d
    ea60:	00c6e6b3          	or	x13,x13,x12
    ea64:	00d72223          	sw	x13,4(x14)
    ea68:	fee594e3          	bne	x11,x14,ea50 <__multf3+0x13c>
    ea6c:	ffffc737          	lui	x14,0xffffc
    ea70:	00170713          	addi	x14,x14,1 # ffffc001 <__heap_end+0xffbfc001>
    ea74:	003a9a93          	slli	x21,x21,0x3
    ea78:	00e787b3          	add	x15,x15,x14
    ea7c:	03512823          	sw	x21,48(x2)
    ea80:	01b787b3          	add	x15,x15,x27
    ea84:	00000693          	addi	x13,x0,0
    ea88:	00178613          	addi	x12,x15,1
    ea8c:	00a00713          	addi	x14,x0,10
    ea90:	00c12223          	sw	x12,4(x2)
    ea94:	25674463          	blt	x14,x22,ecdc <__multf3+0x3c8>
    ea98:	012a4633          	xor	x12,x20,x18
    ea9c:	00200713          	addi	x14,x0,2
    eaa0:	00060813          	addi	x16,x12,0
    eaa4:	33675c63          	bge	x14,x22,eddc <__multf3+0x4c8>
    eaa8:	00100713          	addi	x14,x0,1
    eaac:	01671733          	sll	x14,x14,x22
    eab0:	53077593          	andi	x11,x14,1328
    eab4:	0e059863          	bne	x11,x0,eba4 <__multf3+0x290>
    eab8:	08877593          	andi	x11,x14,136
    eabc:	3e0596e3          	bne	x11,x0,f6a8 <__multf3+0xd94>
    eac0:	24077713          	andi	x14,x14,576
    eac4:	38070063          	beq	x14,x0,ee44 <__multf3+0x530>
    eac8:	000087b7          	lui	x15,0x8
    eacc:	00000613          	addi	x12,x0,0
    ead0:	fff78793          	addi	x15,x15,-1 # 7fff <__gdtoa+0x20f>
    ead4:	00008737          	lui	x14,0x8
    ead8:	00000693          	addi	x13,x0,0
    eadc:	00000593          	addi	x11,x0,0
    eae0:	00000513          	addi	x10,x0,0
    eae4:	00f61613          	slli	x12,x12,0xf
    eae8:	00c7e7b3          	or	x15,x15,x12
    eaec:	04e11e23          	sh	x14,92(x2)
    eaf0:	04f11f23          	sh	x15,94(x2)
    eaf4:	05c12783          	lw	x15,92(x2)
    eaf8:	00a42023          	sw	x10,0(x8)
    eafc:	0ac12083          	lw	x1,172(x2)
    eb00:	00b42223          	sw	x11,4(x8)
    eb04:	00d42423          	sw	x13,8(x8)
    eb08:	00f42623          	sw	x15,12(x8)
    eb0c:	00040513          	addi	x10,x8,0
    eb10:	0a812403          	lw	x8,168(x2)
    eb14:	0a412483          	lw	x9,164(x2)
    eb18:	0a012903          	lw	x18,160(x2)
    eb1c:	09c12983          	lw	x19,156(x2)
    eb20:	09812a03          	lw	x20,152(x2)
    eb24:	09412a83          	lw	x21,148(x2)
    eb28:	09012b03          	lw	x22,144(x2)
    eb2c:	08c12b83          	lw	x23,140(x2)
    eb30:	08812c03          	lw	x24,136(x2)
    eb34:	07c12d83          	lw	x27,124(x2)
    eb38:	0b010113          	addi	x2,x2,176
    eb3c:	00008067          	jalr	x0,0(x1)
    eb40:	00e4e733          	or	x14,x9,x14
    eb44:	01176733          	or	x14,x14,x17
    eb48:	00f76733          	or	x14,x14,x15
    eb4c:	2c071e63          	bne	x14,x0,ee28 <__multf3+0x514>
    eb50:	00800b13          	addi	x22,x0,8
    eb54:	00068d93          	addi	x27,x13,0
    eb58:	00200c13          	addi	x24,x0,2
    eb5c:	e9dff06f          	jal	x0,e9f8 <__multf3+0xe4>
    eb60:	013ae9b3          	or	x19,x21,x19
    eb64:	0179e9b3          	or	x19,x19,x23
    eb68:	00a9e9b3          	or	x19,x19,x10
    eb6c:	00fd87b3          	add	x15,x27,x15
    eb70:	2c098463          	beq	x19,x0,ee38 <__multf3+0x524>
    eb74:	00dd86b3          	add	x13,x27,x13
    eb78:	012a4633          	xor	x12,x20,x18
    eb7c:	003b6b13          	ori	x22,x22,3
    eb80:	00a00713          	addi	x14,x0,10
    eb84:	00d12223          	sw	x13,4(x2)
    eb88:	00060813          	addi	x16,x12,0
    eb8c:	316748e3          	blt	x14,x22,f69c <__multf3+0xd88>
    eb90:	00100713          	addi	x14,x0,1
    eb94:	01671733          	sll	x14,x14,x22
    eb98:	53077593          	andi	x11,x14,1328
    eb9c:	00300693          	addi	x13,x0,3
    eba0:	f0058ce3          	beq	x11,x0,eab8 <__multf3+0x1a4>
    eba4:	02412703          	lw	x14,36(x2)
    eba8:	02c12783          	lw	x15,44(x2)
    ebac:	000c0693          	addi	x13,x24,0
    ebb0:	04e12223          	sw	x14,68(x2)
    ebb4:	02012703          	lw	x14,32(x2)
    ebb8:	04e12023          	sw	x14,64(x2)
    ebbc:	02812703          	lw	x14,40(x2)
    ebc0:	04e12423          	sw	x14,72(x2)
    ebc4:	04f12623          	sw	x15,76(x2)
    ebc8:	00200793          	addi	x15,x0,2
    ebcc:	1ef68863          	beq	x13,x15,edbc <__multf3+0x4a8>
    ebd0:	00300793          	addi	x15,x0,3
    ebd4:	eef68ae3          	beq	x13,x15,eac8 <__multf3+0x1b4>
    ebd8:	00100793          	addi	x15,x0,1
    ebdc:	00080613          	addi	x12,x16,0
    ebe0:	1cf69ae3          	bne	x13,x15,f5b4 <__multf3+0xca0>
    ebe4:	00000793          	addi	x15,x0,0
    ebe8:	00000713          	addi	x14,x0,0
    ebec:	00000693          	addi	x13,x0,0
    ebf0:	00000593          	addi	x11,x0,0
    ebf4:	00000513          	addi	x10,x0,0
    ebf8:	eedff06f          	jal	x0,eae4 <__multf3+0x1d0>
    ebfc:	013ae7b3          	or	x15,x21,x19
    ec00:	0177e7b3          	or	x15,x15,x23
    ec04:	00a7e7b3          	or	x15,x15,x10
    ec08:	20078863          	beq	x15,x0,ee18 <__multf3+0x504>
    ec0c:	40050ee3          	beq	x10,x0,f828 <__multf3+0xf14>
    ec10:	36d020ef          	jal	x1,1177c <__clzsi2>
    ec14:	ff450813          	addi	x16,x10,-12
    ec18:	02000313          	addi	x6,x0,32
    ec1c:	41030333          	sub	x6,x6,x16
    ec20:	00000693          	addi	x13,x0,0
    ec24:	010a9ab3          	sll	x21,x21,x16
    ec28:	40d008b3          	sub	x17,x0,x13
    ec2c:	00289893          	slli	x17,x17,0x2
    ec30:	03010613          	addi	x12,x2,48
    ec34:	01160733          	add	x14,x12,x17
    ec38:	00300593          	addi	x11,x0,3
    ec3c:	411008b3          	sub	x17,x0,x17
    ec40:	00c72783          	lw	x15,12(x14) # 800c <__gdtoa+0x21c>
    ec44:	00872e03          	lw	x28,8(x14)
    ec48:	01170eb3          	add	x29,x14,x17
    ec4c:	010797b3          	sll	x15,x15,x16
    ec50:	006e5e33          	srl	x28,x28,x6
    ec54:	01c7e7b3          	or	x15,x15,x28
    ec58:	00fea623          	sw	x15,12(x29)
    ec5c:	fff58593          	addi	x11,x11,-1
    ec60:	ffc70713          	addi	x14,x14,-4
    ec64:	fcb6cee3          	blt	x13,x11,ec40 <__multf3+0x32c>
    ec68:	00269713          	slli	x14,x13,0x2
    ec6c:	05070793          	addi	x15,x14,80
    ec70:	02010713          	addi	x14,x2,32
    ec74:	00e78733          	add	x14,x15,x14
    ec78:	fd572023          	sw	x21,-64(x14)
    ec7c:	fff68793          	addi	x15,x13,-1
    ec80:	fff00713          	addi	x14,x0,-1
    ec84:	02e78a63          	beq	x15,x14,ecb8 <__multf3+0x3a4>
    ec88:	00178793          	addi	x15,x15,1
    ec8c:	00279793          	slli	x15,x15,0x2
    ec90:	00800693          	addi	x13,x0,8
    ec94:	00060713          	addi	x14,x12,0
    ec98:	00d7ea63          	bltu	x15,x13,ecac <__multf3+0x398>
    ec9c:	02012823          	sw	x0,48(x2)
    eca0:	00062223          	sw	x0,4(x12)
    eca4:	ff878793          	addi	x15,x15,-8
    eca8:	03810713          	addi	x14,x2,56
    ecac:	00400693          	addi	x13,x0,4
    ecb0:	00d7e463          	bltu	x15,x13,ecb8 <__multf3+0x3a4>
    ecb4:	00072023          	sw	x0,0(x14)
    ecb8:	ffffc7b7          	lui	x15,0xffffc
    ecbc:	01178793          	addi	x15,x15,17 # ffffc011 <__heap_end+0xffbfc011>
    ecc0:	40a787b3          	sub	x15,x15,x10
    ecc4:	01b787b3          	add	x15,x15,x27
    ecc8:	00178613          	addi	x12,x15,1
    eccc:	00a00713          	addi	x14,x0,10
    ecd0:	00c12223          	sw	x12,4(x2)
    ecd4:	00000693          	addi	x13,x0,0
    ecd8:	dd6750e3          	bge	x14,x22,ea98 <__multf3+0x184>
    ecdc:	000a0813          	addi	x16,x20,0
    ece0:	ec5ff06f          	jal	x0,eba4 <__multf3+0x290>
    ece4:	00e4e6b3          	or	x13,x9,x14
    ece8:	0116e6b3          	or	x13,x13,x17
    ecec:	00f6e6b3          	or	x13,x13,x15
    ecf0:	10068c63          	beq	x13,x0,ee08 <__multf3+0x4f4>
    ecf4:	380788e3          	beq	x15,x0,f884 <__multf3+0xf70>
    ecf8:	00078513          	addi	x10,x15,0
    ecfc:	281020ef          	jal	x1,1177c <__clzsi2>
    ed00:	ff450813          	addi	x16,x10,-12
    ed04:	02000313          	addi	x6,x0,32
    ed08:	41030333          	sub	x6,x6,x16
    ed0c:	00000693          	addi	x13,x0,0
    ed10:	010494b3          	sll	x9,x9,x16
    ed14:	40d008b3          	sub	x17,x0,x13
    ed18:	00289893          	slli	x17,x17,0x2
    ed1c:	02010613          	addi	x12,x2,32
    ed20:	01160733          	add	x14,x12,x17
    ed24:	00300593          	addi	x11,x0,3
    ed28:	411008b3          	sub	x17,x0,x17
    ed2c:	00c72783          	lw	x15,12(x14)
    ed30:	00872e03          	lw	x28,8(x14)
    ed34:	01170eb3          	add	x29,x14,x17
    ed38:	010797b3          	sll	x15,x15,x16
    ed3c:	006e5e33          	srl	x28,x28,x6
    ed40:	01c7e7b3          	or	x15,x15,x28
    ed44:	00fea623          	sw	x15,12(x29)
    ed48:	fff58593          	addi	x11,x11,-1
    ed4c:	ffc70713          	addi	x14,x14,-4
    ed50:	fcb6cee3          	blt	x13,x11,ed2c <__multf3+0x418>
    ed54:	00269713          	slli	x14,x13,0x2
    ed58:	05070793          	addi	x15,x14,80
    ed5c:	02010713          	addi	x14,x2,32
    ed60:	00e78733          	add	x14,x15,x14
    ed64:	fa972823          	sw	x9,-80(x14)
    ed68:	fff68793          	addi	x15,x13,-1
    ed6c:	fff00713          	addi	x14,x0,-1
    ed70:	02e78a63          	beq	x15,x14,eda4 <__multf3+0x490>
    ed74:	00178793          	addi	x15,x15,1
    ed78:	00279793          	slli	x15,x15,0x2
    ed7c:	00800693          	addi	x13,x0,8
    ed80:	00060713          	addi	x14,x12,0
    ed84:	00d7ea63          	bltu	x15,x13,ed98 <__multf3+0x484>
    ed88:	02012023          	sw	x0,32(x2)
    ed8c:	00062223          	sw	x0,4(x12)
    ed90:	ff878793          	addi	x15,x15,-8
    ed94:	02810713          	addi	x14,x2,40
    ed98:	00400693          	addi	x13,x0,4
    ed9c:	00d7e463          	bltu	x15,x13,eda4 <__multf3+0x490>
    eda0:	00072023          	sw	x0,0(x14)
    eda4:	ffffc6b7          	lui	x13,0xffffc
    eda8:	01168693          	addi	x13,x13,17 # ffffc011 <__heap_end+0xffbfc011>
    edac:	40a68db3          	sub	x27,x13,x10
    edb0:	00000b13          	addi	x22,x0,0
    edb4:	00000c13          	addi	x24,x0,0
    edb8:	c41ff06f          	jal	x0,e9f8 <__multf3+0xe4>
    edbc:	000087b7          	lui	x15,0x8
    edc0:	00080613          	addi	x12,x16,0
    edc4:	fff78793          	addi	x15,x15,-1 # 7fff <__gdtoa+0x20f>
    edc8:	00000713          	addi	x14,x0,0
    edcc:	00000693          	addi	x13,x0,0
    edd0:	00000593          	addi	x11,x0,0
    edd4:	00000513          	addi	x10,x0,0
    edd8:	d0dff06f          	jal	x0,eae4 <__multf3+0x1d0>
    eddc:	fffb0b13          	addi	x22,x22,-1
    ede0:	00100713          	addi	x14,x0,1
    ede4:	07676063          	bltu	x14,x22,ee44 <__multf3+0x530>
    ede8:	03412703          	lw	x14,52(x2)
    edec:	03c12783          	lw	x15,60(x2)
    edf0:	04e12223          	sw	x14,68(x2)
    edf4:	03012703          	lw	x14,48(x2)
    edf8:	04e12023          	sw	x14,64(x2)
    edfc:	03812703          	lw	x14,56(x2)
    ee00:	04e12423          	sw	x14,72(x2)
    ee04:	dc1ff06f          	jal	x0,ebc4 <__multf3+0x2b0>
    ee08:	00400b13          	addi	x22,x0,4
    ee0c:	00000d93          	addi	x27,x0,0
    ee10:	00100c13          	addi	x24,x0,1
    ee14:	be5ff06f          	jal	x0,e9f8 <__multf3+0xe4>
    ee18:	001b6b13          	ori	x22,x22,1
    ee1c:	000d8793          	addi	x15,x27,0
    ee20:	00100693          	addi	x13,x0,1
    ee24:	c65ff06f          	jal	x0,ea88 <__multf3+0x174>
    ee28:	00c00b13          	addi	x22,x0,12
    ee2c:	00068d93          	addi	x27,x13,0
    ee30:	00300c13          	addi	x24,x0,3
    ee34:	bc5ff06f          	jal	x0,e9f8 <__multf3+0xe4>
    ee38:	002b6b13          	ori	x22,x22,2
    ee3c:	00200693          	addi	x13,x0,2
    ee40:	c49ff06f          	jal	x0,ea88 <__multf3+0x174>
    ee44:	02012883          	lw	x17,32(x2)
    ee48:	03012f03          	lw	x30,48(x2)
    ee4c:	09912223          	sw	x25,132(x2)
    ee50:	0108d993          	srli	x19,x17,0x10
    ee54:	010f5913          	srli	x18,x30,0x10
    ee58:	01089893          	slli	x17,x17,0x10
    ee5c:	010f1f13          	slli	x30,x30,0x10
    ee60:	0108d893          	srli	x17,x17,0x10
    ee64:	010f5f13          	srli	x30,x30,0x10
    ee68:	031f0733          	mul	x14,x30,x17
    ee6c:	09a12023          	sw	x26,128(x2)
    ee70:	03e985b3          	mul	x11,x19,x30
    ee74:	01075e13          	srli	x28,x14,0x10
    ee78:	031906b3          	mul	x13,x18,x17
    ee7c:	00b686b3          	add	x13,x13,x11
    ee80:	00de0e33          	add	x28,x28,x13
    ee84:	03298533          	mul	x10,x19,x18
    ee88:	00be7663          	bgeu	x28,x11,ee94 <__multf3+0x580>
    ee8c:	000106b7          	lui	x13,0x10
    ee90:	00d50533          	add	x10,x10,x13
    ee94:	03412e83          	lw	x29,52(x2)
    ee98:	01071713          	slli	x14,x14,0x10
    ee9c:	010e1693          	slli	x13,x28,0x10
    eea0:	010ed393          	srli	x7,x29,0x10
    eea4:	01075713          	srli	x14,x14,0x10
    eea8:	010e9e93          	slli	x29,x29,0x10
    eeac:	00e68733          	add	x14,x13,x14
    eeb0:	010ede93          	srli	x29,x29,0x10
    eeb4:	031e86b3          	mul	x13,x29,x17
    eeb8:	00e12a23          	sw	x14,20(x2)
    eebc:	04e12823          	sw	x14,80(x2)
    eec0:	010e5e13          	srli	x28,x28,0x10
    eec4:	03d985b3          	mul	x11,x19,x29
    eec8:	0106df93          	srli	x31,x13,0x10
    eecc:	03138733          	mul	x14,x7,x17
    eed0:	00b70733          	add	x14,x14,x11
    eed4:	00ef8fb3          	add	x31,x31,x14
    eed8:	02798ab3          	mul	x21,x19,x7
    eedc:	00bff663          	bgeu	x31,x11,eee8 <__multf3+0x5d4>
    eee0:	00010737          	lui	x14,0x10
    eee4:	00ea8ab3          	add	x21,x21,x14
    eee8:	02412703          	lw	x14,36(x2)
    eeec:	01069693          	slli	x13,x13,0x10
    eef0:	010f9b13          	slli	x22,x31,0x10
    eef4:	01075493          	srli	x9,x14,0x10
    eef8:	01071713          	slli	x14,x14,0x10
    eefc:	0106d693          	srli	x13,x13,0x10
    ef00:	01075713          	srli	x14,x14,0x10
    ef04:	00db0b33          	add	x22,x22,x13
    ef08:	03e48833          	mul	x16,x9,x30
    ef0c:	010fdf93          	srli	x31,x31,0x10
    ef10:	016e0e33          	add	x28,x28,x22
    ef14:	03e706b3          	mul	x13,x14,x30
    ef18:	02e905b3          	mul	x11,x18,x14
    ef1c:	0106da13          	srli	x20,x13,0x10
    ef20:	010585b3          	add	x11,x11,x16
    ef24:	00ba0a33          	add	x20,x20,x11
    ef28:	029905b3          	mul	x11,x18,x9
    ef2c:	010a7663          	bgeu	x20,x16,ef38 <__multf3+0x624>
    ef30:	00010837          	lui	x16,0x10
    ef34:	010585b3          	add	x11,x11,x16
    ef38:	010a5813          	srli	x16,x20,0x10
    ef3c:	00b80833          	add	x16,x16,x11
    ef40:	01069693          	slli	x13,x13,0x10
    ef44:	0106d693          	srli	x13,x13,0x10
    ef48:	010a1a13          	slli	x20,x20,0x10
    ef4c:	00da0a33          	add	x20,x20,x13
    ef50:	02ee85b3          	mul	x11,x29,x14
    ef54:	03d48333          	mul	x6,x9,x29
    ef58:	0105d693          	srli	x13,x11,0x10
    ef5c:	02e382b3          	mul	x5,x7,x14
    ef60:	006282b3          	add	x5,x5,x6
    ef64:	005686b3          	add	x13,x13,x5
    ef68:	029382b3          	mul	x5,x7,x9
    ef6c:	0066f663          	bgeu	x13,x6,ef78 <__multf3+0x664>
    ef70:	00010337          	lui	x6,0x10
    ef74:	006282b3          	add	x5,x5,x6
    ef78:	03812303          	lw	x6,56(x2)
    ef7c:	01059593          	slli	x11,x11,0x10
    ef80:	0106db93          	srli	x23,x13,0x10
    ef84:	01031c13          	slli	x24,x6,0x10
    ef88:	0105d593          	srli	x11,x11,0x10
    ef8c:	01069693          	slli	x13,x13,0x10
    ef90:	010c5c13          	srli	x24,x24,0x10
    ef94:	01035d93          	srli	x27,x6,0x10
    ef98:	00b686b3          	add	x13,x13,x11
    ef9c:	005b82b3          	add	x5,x23,x5
    efa0:	031c0333          	mul	x6,x24,x17
    efa4:	00028d13          	addi	x26,x5,0
    efa8:	00d12c23          	sw	x13,24(x2)
    efac:	01812423          	sw	x24,8(x2)
    efb0:	038986b3          	mul	x13,x19,x24
    efb4:	01035593          	srli	x11,x6,0x10
    efb8:	031d82b3          	mul	x5,x27,x17
    efbc:	00d282b3          	add	x5,x5,x13
    efc0:	005585b3          	add	x11,x11,x5
    efc4:	03b98c33          	mul	x24,x19,x27
    efc8:	00d5f663          	bgeu	x11,x13,efd4 <__multf3+0x6c0>
    efcc:	000106b7          	lui	x13,0x10
    efd0:	00dc0c33          	add	x24,x24,x13
    efd4:	02812683          	lw	x13,40(x2)
    efd8:	0105dc93          	srli	x25,x11,0x10
    efdc:	018c8c33          	add	x24,x25,x24
    efe0:	0106d293          	srli	x5,x13,0x10
    efe4:	01069693          	slli	x13,x13,0x10
    efe8:	0106d693          	srli	x13,x13,0x10
    efec:	03e68bb3          	mul	x23,x13,x30
    eff0:	01812e23          	sw	x24,28(x2)
    eff4:	01031313          	slli	x6,x6,0x10
    eff8:	01035313          	srli	x6,x6,0x10
    effc:	01059593          	slli	x11,x11,0x10
    f000:	006585b3          	add	x11,x11,x6
    f004:	03e28c33          	mul	x24,x5,x30
    f008:	010bd313          	srli	x6,x23,0x10
    f00c:	02d90cb3          	mul	x25,x18,x13
    f010:	018c8cb3          	add	x25,x25,x24
    f014:	01930333          	add	x6,x6,x25
    f018:	02590cb3          	mul	x25,x18,x5
    f01c:	01912623          	sw	x25,12(x2)
    f020:	01837863          	bgeu	x6,x24,f030 <__multf3+0x71c>
    f024:	00010c37          	lui	x24,0x10
    f028:	018c8c33          	add	x24,x25,x24
    f02c:	01812623          	sw	x24,12(x2)
    f030:	01c50533          	add	x10,x10,x28
    f034:	01653b33          	sltu	x22,x10,x22
    f038:	016f8fb3          	add	x31,x31,x22
    f03c:	015f8fb3          	add	x31,x31,x21
    f040:	01450a33          	add	x20,x10,x20
    f044:	010f8833          	add	x16,x31,x16
    f048:	00aa3533          	sltu	x10,x20,x10
    f04c:	00a80533          	add	x10,x16,x10
    f050:	01412823          	sw	x20,16(x2)
    f054:	01f83a33          	sltu	x20,x16,x31
    f058:	01053833          	sltu	x16,x10,x16
    f05c:	010a6833          	or	x16,x20,x16
    f060:	016fba33          	sltu	x20,x31,x22
    f064:	01812f83          	lw	x31,24(x2)
    f068:	01480833          	add	x16,x16,x20
    f06c:	03c12e03          	lw	x28,60(x2)
    f070:	01a80b33          	add	x22,x16,x26
    f074:	01f50fb3          	add	x31,x10,x31
    f078:	01c12d03          	lw	x26,28(x2)
    f07c:	01031a13          	slli	x20,x6,0x10
    f080:	00afb533          	sltu	x10,x31,x10
    f084:	010e5a93          	srli	x21,x28,0x10
    f088:	00ab0533          	add	x10,x22,x10
    f08c:	01412c23          	sw	x20,24(x2)
    f090:	010e1e13          	slli	x28,x28,0x10
    f094:	01a50a33          	add	x20,x10,x26
    f098:	010e5e13          	srli	x28,x28,0x10
    f09c:	01812d03          	lw	x26,24(x2)
    f0a0:	031e0c33          	mul	x24,x28,x17
    f0a4:	010b9b93          	slli	x23,x23,0x10
    f0a8:	010bdb93          	srli	x23,x23,0x10
    f0ac:	017d0bb3          	add	x23,x26,x23
    f0b0:	00c12d03          	lw	x26,12(x2)
    f0b4:	00bf85b3          	add	x11,x31,x11
    f0b8:	01f5bfb3          	sltu	x31,x11,x31
    f0bc:	01035313          	srli	x6,x6,0x10
    f0c0:	01fa0fb3          	add	x31,x20,x31
    f0c4:	01758bb3          	add	x23,x11,x23
    f0c8:	03c98cb3          	mul	x25,x19,x28
    f0cc:	01a30333          	add	x6,x6,x26
    f0d0:	006f8333          	add	x6,x31,x6
    f0d4:	00bbb5b3          	sltu	x11,x23,x11
    f0d8:	010b3833          	sltu	x16,x22,x16
    f0dc:	00b30d33          	add	x26,x6,x11
    f0e0:	01653b33          	sltu	x22,x10,x22
    f0e4:	01012583          	lw	x11,16(x2)
    f0e8:	00aa3533          	sltu	x10,x20,x10
    f0ec:	014fba33          	sltu	x20,x31,x20
    f0f0:	031a88b3          	mul	x17,x21,x17
    f0f4:	01456a33          	or	x20,x10,x20
    f0f8:	01f33fb3          	sltu	x31,x6,x31
    f0fc:	01686b33          	or	x22,x16,x22
    f100:	006d3333          	sltu	x6,x26,x6
    f104:	014b0a33          	add	x20,x22,x20
    f108:	006fefb3          	or	x31,x31,x6
    f10c:	010c5513          	srli	x10,x24,0x10
    f110:	04b12a23          	sw	x11,84(x2)
    f114:	014f85b3          	add	x11,x31,x20
    f118:	019888b3          	add	x17,x17,x25
    f11c:	01712c23          	sw	x23,24(x2)
    f120:	05712c23          	sw	x23,88(x2)
    f124:	01150533          	add	x10,x10,x17
    f128:	00b12623          	sw	x11,12(x2)
    f12c:	035989b3          	mul	x19,x19,x21
    f130:	01957663          	bgeu	x10,x25,f13c <__multf3+0x828>
    f134:	000105b7          	lui	x11,0x10
    f138:	00b989b3          	add	x19,x19,x11
    f13c:	02c12f83          	lw	x31,44(x2)
    f140:	010c1c13          	slli	x24,x24,0x10
    f144:	01055b93          	srli	x23,x10,0x10
    f148:	010fda13          	srli	x20,x31,0x10
    f14c:	010f9f93          	slli	x31,x31,0x10
    f150:	010fdf93          	srli	x31,x31,0x10
    f154:	03ef85b3          	mul	x11,x31,x30
    f158:	01051513          	slli	x10,x10,0x10
    f15c:	010c5c13          	srli	x24,x24,0x10
    f160:	013b8bb3          	add	x23,x23,x19
    f164:	01850533          	add	x10,x10,x24
    f168:	03f90833          	mul	x16,x18,x31
    f16c:	0105d893          	srli	x17,x11,0x10
    f170:	03ea0f33          	mul	x30,x20,x30
    f174:	01e80833          	add	x16,x16,x30
    f178:	010888b3          	add	x17,x17,x16
    f17c:	03490933          	mul	x18,x18,x20
    f180:	01e8f663          	bgeu	x17,x30,f18c <__multf3+0x878>
    f184:	00010837          	lui	x16,0x10
    f188:	01090933          	add	x18,x18,x16
    f18c:	01059593          	slli	x11,x11,0x10
    f190:	0108d993          	srli	x19,x17,0x10
    f194:	0105d593          	srli	x11,x11,0x10
    f198:	01089893          	slli	x17,x17,0x10
    f19c:	00b888b3          	add	x17,x17,x11
    f1a0:	00812583          	lw	x11,8(x2)
    f1a4:	02ed8333          	mul	x6,x27,x14
    f1a8:	012989b3          	add	x19,x19,x18
    f1ac:	02b48f33          	mul	x30,x9,x11
    f1b0:	02b70833          	mul	x16,x14,x11
    f1b4:	01e30333          	add	x6,x6,x30
    f1b8:	01085593          	srli	x11,x16,0x10
    f1bc:	006585b3          	add	x11,x11,x6
    f1c0:	03b48333          	mul	x6,x9,x27
    f1c4:	01e5f663          	bgeu	x11,x30,f1d0 <__multf3+0x8bc>
    f1c8:	00010f37          	lui	x30,0x10
    f1cc:	01e30333          	add	x6,x6,x30
    f1d0:	0105d913          	srli	x18,x11,0x10
    f1d4:	00690933          	add	x18,x18,x6
    f1d8:	01081813          	slli	x16,x16,0x10
    f1dc:	01085813          	srli	x16,x16,0x10
    f1e0:	01059593          	slli	x11,x11,0x10
    f1e4:	010585b3          	add	x11,x11,x16
    f1e8:	02de8c33          	mul	x24,x29,x13
    f1ec:	03d28333          	mul	x6,x5,x29
    f1f0:	010c5813          	srli	x16,x24,0x10
    f1f4:	02d38f33          	mul	x30,x7,x13
    f1f8:	006f0f33          	add	x30,x30,x6
    f1fc:	01e80833          	add	x16,x16,x30
    f200:	02538cb3          	mul	x25,x7,x5
    f204:	00687663          	bgeu	x16,x6,f210 <__multf3+0x8fc>
    f208:	00010337          	lui	x6,0x10
    f20c:	006c8cb3          	add	x25,x25,x6
    f210:	00ad0f33          	add	x30,x26,x10
    f214:	01af3b33          	sltu	x22,x30,x26
    f218:	00c12503          	lw	x10,12(x2)
    f21c:	00812d03          	lw	x26,8(x2)
    f220:	010c1c13          	slli	x24,x24,0x10
    f224:	01081313          	slli	x6,x16,0x10
    f228:	010c5c13          	srli	x24,x24,0x10
    f22c:	01750bb3          	add	x23,x10,x23
    f230:	01830333          	add	x6,x6,x24
    f234:	02dd0533          	mul	x10,x26,x13
    f238:	016b8b33          	add	x22,x23,x22
    f23c:	011f08b3          	add	x17,x30,x17
    f240:	013b09b3          	add	x19,x22,x19
    f244:	01e8bf33          	sltu	x30,x17,x30
    f248:	01085813          	srli	x16,x16,0x10
    f24c:	01e98f33          	add	x30,x19,x30
    f250:	00b885b3          	add	x11,x17,x11
    f254:	01980833          	add	x16,x16,x25
    f258:	00c12c83          	lw	x25,12(x2)
    f25c:	03a28c33          	mul	x24,x5,x26
    f260:	012f0933          	add	x18,x30,x18
    f264:	0115b8b3          	sltu	x17,x11,x17
    f268:	011908b3          	add	x17,x18,x17
    f26c:	00658333          	add	x6,x11,x6
    f270:	01088833          	add	x16,x17,x16
    f274:	019bbcb3          	sltu	x25,x23,x25
    f278:	00b335b3          	sltu	x11,x6,x11
    f27c:	017b3bb3          	sltu	x23,x22,x23
    f280:	0169bb33          	sltu	x22,x19,x22
    f284:	02dd8d33          	mul	x26,x27,x13
    f288:	013f39b3          	sltu	x19,x30,x19
    f28c:	017cecb3          	or	x25,x25,x23
    f290:	01e93f33          	sltu	x30,x18,x30
    f294:	013b69b3          	or	x19,x22,x19
    f298:	0128b933          	sltu	x18,x17,x18
    f29c:	00b805b3          	add	x11,x16,x11
    f2a0:	011838b3          	sltu	x17,x16,x17
    f2a4:	012f6933          	or	x18,x30,x18
    f2a8:	013c89b3          	add	x19,x25,x19
    f2ac:	01055f13          	srli	x30,x10,0x10
    f2b0:	0105b833          	sltu	x16,x11,x16
    f2b4:	018d0d33          	add	x26,x26,x24
    f2b8:	0108e833          	or	x16,x17,x16
    f2bc:	01390933          	add	x18,x18,x19
    f2c0:	01af0d33          	add	x26,x30,x26
    f2c4:	04612e23          	sw	x6,92(x2)
    f2c8:	025d8f33          	mul	x30,x27,x5
    f2cc:	00030893          	addi	x17,x6,0 # 10000 <__subtf3+0x570>
    f2d0:	01280833          	add	x16,x16,x18
    f2d4:	018d7663          	bgeu	x26,x24,f2e0 <__multf3+0x9cc>
    f2d8:	00010937          	lui	x18,0x10
    f2dc:	012f0f33          	add	x30,x30,x18
    f2e0:	010d5913          	srli	x18,x26,0x10
    f2e4:	01e90f33          	add	x30,x18,x30
    f2e8:	01051513          	slli	x10,x10,0x10
    f2ec:	010d1d13          	slli	x26,x26,0x10
    f2f0:	02ee0933          	mul	x18,x28,x14
    f2f4:	01055513          	srli	x10,x10,0x10
    f2f8:	00ad0533          	add	x10,x26,x10
    f2fc:	03c489b3          	mul	x19,x9,x28
    f300:	01095b13          	srli	x22,x18,0x10
    f304:	02ea8733          	mul	x14,x21,x14
    f308:	01370733          	add	x14,x14,x19
    f30c:	00eb0733          	add	x14,x22,x14
    f310:	035484b3          	mul	x9,x9,x21
    f314:	01377663          	bgeu	x14,x19,f320 <__multf3+0xa0c>
    f318:	000109b7          	lui	x19,0x10
    f31c:	013484b3          	add	x9,x9,x19
    f320:	01091913          	slli	x18,x18,0x10
    f324:	01075993          	srli	x19,x14,0x10
    f328:	01095913          	srli	x18,x18,0x10
    f32c:	01071713          	slli	x14,x14,0x10
    f330:	01270733          	add	x14,x14,x18
    f334:	009984b3          	add	x9,x19,x9
    f338:	03df8b33          	mul	x22,x31,x29
    f33c:	03f38933          	mul	x18,x7,x31
    f340:	010b5993          	srli	x19,x22,0x10
    f344:	03da0eb3          	mul	x29,x20,x29
    f348:	01d90933          	add	x18,x18,x29
    f34c:	012989b3          	add	x19,x19,x18
    f350:	034383b3          	mul	x7,x7,x20
    f354:	01d9f663          	bgeu	x19,x29,f360 <__multf3+0xa4c>
    f358:	00010eb7          	lui	x29,0x10
    f35c:	01d383b3          	add	x7,x7,x29
    f360:	010b1b13          	slli	x22,x22,0x10
    f364:	0109d913          	srli	x18,x19,0x10
    f368:	010b5b13          	srli	x22,x22,0x10
    f36c:	01099993          	slli	x19,x19,0x10
    f370:	00790933          	add	x18,x18,x7
    f374:	016983b3          	add	x7,x19,x22
    f378:	02de0eb3          	mul	x29,x28,x13
    f37c:	03c289b3          	mul	x19,x5,x28
    f380:	010edb13          	srli	x22,x29,0x10
    f384:	02da86b3          	mul	x13,x21,x13
    f388:	013686b3          	add	x13,x13,x19
    f38c:	00db06b3          	add	x13,x22,x13
    f390:	035282b3          	mul	x5,x5,x21
    f394:	0136f663          	bgeu	x13,x19,f3a0 <__multf3+0xa8c>
    f398:	000109b7          	lui	x19,0x10
    f39c:	013282b3          	add	x5,x5,x19
    f3a0:	010e9e93          	slli	x29,x29,0x10
    f3a4:	0106d993          	srli	x19,x13,0x10
    f3a8:	010ede93          	srli	x29,x29,0x10
    f3ac:	01069693          	slli	x13,x13,0x10
    f3b0:	01d686b3          	add	x13,x13,x29
    f3b4:	00812e83          	lw	x29,8(x2)
    f3b8:	005982b3          	add	x5,x19,x5
    f3bc:	03da0b33          	mul	x22,x20,x29
    f3c0:	03df89b3          	mul	x19,x31,x29
    f3c4:	03fd8eb3          	mul	x29,x27,x31
    f3c8:	0109db93          	srli	x23,x19,0x10
    f3cc:	016e8eb3          	add	x29,x29,x22
    f3d0:	01db8eb3          	add	x29,x23,x29
    f3d4:	034d8bb3          	mul	x23,x27,x20
    f3d8:	016ef663          	bgeu	x29,x22,f3e4 <__multf3+0xad0>
    f3dc:	00010b37          	lui	x22,0x10
    f3e0:	016b8bb3          	add	x23,x23,x22
    f3e4:	00a58533          	add	x10,x11,x10
    f3e8:	01e80f33          	add	x30,x16,x30
    f3ec:	00b535b3          	sltu	x11,x10,x11
    f3f0:	00bf05b3          	add	x11,x30,x11
    f3f4:	00e50733          	add	x14,x10,x14
    f3f8:	009584b3          	add	x9,x11,x9
    f3fc:	03fe0b33          	mul	x22,x28,x31
    f400:	00a73533          	sltu	x10,x14,x10
    f404:	00a48533          	add	x10,x9,x10
    f408:	007703b3          	add	x7,x14,x7
    f40c:	01250933          	add	x18,x10,x18
    f410:	00e3b733          	sltu	x14,x7,x14
    f414:	00e90733          	add	x14,x18,x14
    f418:	010f3833          	sltu	x16,x30,x16
    f41c:	01e5bf33          	sltu	x30,x11,x30
    f420:	00b4b5b3          	sltu	x11,x9,x11
    f424:	03ca0e33          	mul	x28,x20,x28
    f428:	009534b3          	sltu	x9,x10,x9
    f42c:	01e86f33          	or	x30,x16,x30
    f430:	0095e5b3          	or	x11,x11,x9
    f434:	00a93533          	sltu	x10,x18,x10
    f438:	01273933          	sltu	x18,x14,x18
    f43c:	00bf0f33          	add	x30,x30,x11
    f440:	01256533          	or	x10,x10,x18
    f444:	01099993          	slli	x19,x19,0x10
    f448:	00d705b3          	add	x11,x14,x13
    f44c:	03fa8fb3          	mul	x31,x21,x31
    f450:	01e50533          	add	x10,x10,x30
    f454:	010e9813          	slli	x16,x29,0x10
    f458:	0109d993          	srli	x19,x19,0x10
    f45c:	005502b3          	add	x5,x10,x5
    f460:	00e5b6b3          	sltu	x13,x11,x14
    f464:	010ede93          	srli	x29,x29,0x10
    f468:	01380833          	add	x16,x16,x19
    f46c:	00d286b3          	add	x13,x5,x13
    f470:	01058833          	add	x16,x11,x16
    f474:	017e8eb3          	add	x29,x29,x23
    f478:	01d68eb3          	add	x29,x13,x29
    f47c:	00b83733          	sltu	x14,x16,x11
    f480:	00ee8733          	add	x14,x29,x14
    f484:	01cf8fb3          	add	x31,x31,x28
    f488:	010b5593          	srli	x11,x22,0x10
    f48c:	00a2b533          	sltu	x10,x5,x10
    f490:	06712023          	sw	x7,96(x2)
    f494:	0056b2b3          	sltu	x5,x13,x5
    f498:	07012223          	sw	x16,100(x2)
    f49c:	00deb6b3          	sltu	x13,x29,x13
    f4a0:	01f585b3          	add	x11,x11,x31
    f4a4:	01d73eb3          	sltu	x29,x14,x29
    f4a8:	034a8a33          	mul	x20,x21,x20
    f4ac:	00556533          	or	x10,x10,x5
    f4b0:	01d6e6b3          	or	x13,x13,x29
    f4b4:	01c5f663          	bgeu	x11,x28,f4c0 <__multf3+0xbac>
    f4b8:	00010837          	lui	x16,0x10
    f4bc:	010a0a33          	add	x20,x20,x16
    f4c0:	010b1b13          	slli	x22,x22,0x10
    f4c4:	01059813          	slli	x16,x11,0x10
    f4c8:	010b5b13          	srli	x22,x22,0x10
    f4cc:	0105d593          	srli	x11,x11,0x10
    f4d0:	01680833          	add	x16,x16,x22
    f4d4:	00a585b3          	add	x11,x11,x10
    f4d8:	01070833          	add	x16,x14,x16
    f4dc:	00b686b3          	add	x13,x13,x11
    f4e0:	00e83733          	sltu	x14,x16,x14
    f4e4:	01012583          	lw	x11,16(x2)
    f4e8:	00d70733          	add	x14,x14,x13
    f4ec:	01412683          	lw	x13,20(x2)
    f4f0:	01470733          	add	x14,x14,x20
    f4f4:	00d31313          	slli	x6,x6,0xd
    f4f8:	00b6e6b3          	or	x13,x13,x11
    f4fc:	01812583          	lw	x11,24(x2)
    f500:	06e12623          	sw	x14,108(x2)
    f504:	07012423          	sw	x16,104(x2)
    f508:	00d5e6b3          	or	x13,x11,x13
    f50c:	00d36333          	or	x6,x6,x13
    f510:	05010713          	addi	x14,x2,80
    f514:	06010513          	addi	x10,x2,96
    f518:	0138d593          	srli	x11,x17,0x13
    f51c:	01072883          	lw	x17,16(x14) # 10010 <__subtf3+0x580>
    f520:	00470713          	addi	x14,x14,4
    f524:	00d89693          	slli	x13,x17,0xd
    f528:	00b6e6b3          	or	x13,x13,x11
    f52c:	fed72e23          	sw	x13,-4(x14)
    f530:	fee514e3          	bne	x10,x14,f518 <__multf3+0xc04>
    f534:	05012683          	lw	x13,80(x2)
    f538:	00603733          	sltu	x14,x0,x6
    f53c:	05c12583          	lw	x11,92(x2)
    f540:	00d76733          	or	x14,x14,x13
    f544:	05812683          	lw	x13,88(x2)
    f548:	04b12623          	sw	x11,76(x2)
    f54c:	04e12023          	sw	x14,64(x2)
    f550:	04d12423          	sw	x13,72(x2)
    f554:	05412683          	lw	x13,84(x2)
    f558:	04d12223          	sw	x13,68(x2)
    f55c:	00b59693          	slli	x13,x11,0xb
    f560:	3806d063          	bge	x13,x0,f8e0 <__multf3+0xfcc>
    f564:	01f71513          	slli	x10,x14,0x1f
    f568:	04010793          	addi	x15,x2,64
    f56c:	04c10813          	addi	x16,x2,76
    f570:	00175893          	srli	x17,x14,0x1
    f574:	0047a703          	lw	x14,4(x15)
    f578:	00478793          	addi	x15,x15,4
    f57c:	01f71693          	slli	x13,x14,0x1f
    f580:	0116e6b3          	or	x13,x13,x17
    f584:	fed7ae23          	sw	x13,-4(x15)
    f588:	ff0794e3          	bne	x15,x16,f570 <__multf3+0xc5c>
    f58c:	04012783          	lw	x15,64(x2)
    f590:	01f55713          	srli	x14,x10,0x1f
    f594:	0015d593          	srli	x11,x11,0x1
    f598:	00e7e7b3          	or	x15,x15,x14
    f59c:	04f12023          	sw	x15,64(x2)
    f5a0:	08412c83          	lw	x25,132(x2)
    f5a4:	00412783          	lw	x15,4(x2)
    f5a8:	08012d03          	lw	x26,128(x2)
    f5ac:	04b12623          	sw	x11,76(x2)
    f5b0:	0080006f          	jal	x0,f5b8 <__multf3+0xca4>
    f5b4:	00412783          	lw	x15,4(x2)
    f5b8:	000046b7          	lui	x13,0x4
    f5bc:	fff68693          	addi	x13,x13,-1 # 3fff <_vfprintf_r+0x261f>
    f5c0:	00d786b3          	add	x13,x15,x13
    f5c4:	10d05463          	bge	x0,x13,f6cc <__multf3+0xdb8>
    f5c8:	04012583          	lw	x11,64(x2)
    f5cc:	04c12703          	lw	x14,76(x2)
    f5d0:	0075f513          	andi	x10,x11,7
    f5d4:	04050263          	beq	x10,x0,f618 <__multf3+0xd04>
    f5d8:	00f5f513          	andi	x10,x11,15
    f5dc:	00400813          	addi	x16,x0,4
    f5e0:	03050c63          	beq	x10,x16,f618 <__multf3+0xd04>
    f5e4:	04412803          	lw	x16,68(x2)
    f5e8:	00458593          	addi	x11,x11,4 # 10004 <__subtf3+0x574>
    f5ec:	04812883          	lw	x17,72(x2)
    f5f0:	0045b513          	sltiu	x10,x11,4
    f5f4:	01050833          	add	x16,x10,x16
    f5f8:	00a83533          	sltu	x10,x16,x10
    f5fc:	00a88533          	add	x10,x17,x10
    f600:	011538b3          	sltu	x17,x10,x17
    f604:	01170733          	add	x14,x14,x17
    f608:	04b12023          	sw	x11,64(x2)
    f60c:	05012223          	sw	x16,68(x2)
    f610:	04a12423          	sw	x10,72(x2)
    f614:	04e12623          	sw	x14,76(x2)
    f618:	00b71593          	slli	x11,x14,0xb
    f61c:	0005de63          	bge	x11,x0,f638 <__multf3+0xd24>
    f620:	fff006b7          	lui	x13,0xfff00
    f624:	fff68693          	addi	x13,x13,-1 # ffefffff <__heap_end+0xffafffff>
    f628:	00d77733          	and	x14,x14,x13
    f62c:	000046b7          	lui	x13,0x4
    f630:	04e12623          	sw	x14,76(x2)
    f634:	00d786b3          	add	x13,x15,x13
    f638:	04012503          	lw	x10,64(x2)
    f63c:	04010793          	addi	x15,x2,64
    f640:	04c10893          	addi	x17,x2,76
    f644:	00355813          	srli	x16,x10,0x3
    f648:	0047a503          	lw	x10,4(x15)
    f64c:	00478793          	addi	x15,x15,4
    f650:	01d51593          	slli	x11,x10,0x1d
    f654:	0105e5b3          	or	x11,x11,x16
    f658:	feb7ae23          	sw	x11,-4(x15)
    f65c:	ff1794e3          	bne	x15,x17,f644 <__multf3+0xd30>
    f660:	000085b7          	lui	x11,0x8
    f664:	000087b7          	lui	x15,0x8
    f668:	ffe58593          	addi	x11,x11,-2 # 7ffe <__gdtoa+0x20e>
    f66c:	fff78793          	addi	x15,x15,-1 # 7fff <__gdtoa+0x20f>
    f670:	d6d5cc63          	blt	x11,x13,ebe8 <__multf3+0x2d4>
    f674:	00f6f7b3          	and	x15,x13,x15
    f678:	00375713          	srli	x14,x14,0x3
    f67c:	01071713          	slli	x14,x14,0x10
    f680:	01079793          	slli	x15,x15,0x10
    f684:	04012503          	lw	x10,64(x2)
    f688:	04412583          	lw	x11,68(x2)
    f68c:	04812683          	lw	x13,72(x2)
    f690:	01075713          	srli	x14,x14,0x10
    f694:	0107d793          	srli	x15,x15,0x10
    f698:	c4cff06f          	jal	x0,eae4 <__multf3+0x1d0>
    f69c:	00f00793          	addi	x15,x0,15
    f6a0:	00300693          	addi	x13,x0,3
    f6a4:	c2fb0263          	beq	x22,x15,eac8 <__multf3+0x1b4>
    f6a8:	03412703          	lw	x14,52(x2)
    f6ac:	03c12783          	lw	x15,60(x2)
    f6b0:	00090813          	addi	x16,x18,0 # 10000 <__subtf3+0x570>
    f6b4:	04e12223          	sw	x14,68(x2)
    f6b8:	03012703          	lw	x14,48(x2)
    f6bc:	04e12023          	sw	x14,64(x2)
    f6c0:	03812703          	lw	x14,56(x2)
    f6c4:	04e12423          	sw	x14,72(x2)
    f6c8:	cfcff06f          	jal	x0,ebc4 <__multf3+0x2b0>
    f6cc:	22069063          	bne	x13,x0,f8ec <__multf3+0xfd8>
    f6d0:	04012783          	lw	x15,64(x2)
    f6d4:	04c12303          	lw	x6,76(x2)
    f6d8:	00300713          	addi	x14,x0,3
    f6dc:	01f79793          	slli	x15,x15,0x1f
    f6e0:	00135313          	srli	x6,x6,0x1
    f6e4:	01f00e13          	addi	x28,x0,31
    f6e8:	00100593          	addi	x11,x0,1
    f6ec:	04010813          	addi	x16,x2,64
    f6f0:	00269693          	slli	x13,x13,0x2
    f6f4:	00271f13          	slli	x30,x14,0x2
    f6f8:	00d80533          	add	x10,x16,x13
    f6fc:	00080893          	addi	x17,x16,0 # 10000 <__subtf3+0x570>
    f700:	01e80eb3          	add	x29,x16,x30
    f704:	00052683          	lw	x13,0(x10)
    f708:	00452f83          	lw	x31,4(x10)
    f70c:	00488893          	addi	x17,x17,4
    f710:	00b6d6b3          	srl	x13,x13,x11
    f714:	01cf9fb3          	sll	x31,x31,x28
    f718:	01f6e6b3          	or	x13,x13,x31
    f71c:	fed8ae23          	sw	x13,-4(x17)
    f720:	00450513          	addi	x10,x10,4
    f724:	ffd890e3          	bne	x17,x29,f704 <__multf3+0xdf0>
    f728:	050f0693          	addi	x13,x30,80 # 10050 <__subtf3+0x5c0>
    f72c:	02010593          	addi	x11,x2,32
    f730:	00b68f33          	add	x30,x13,x11
    f734:	00170713          	addi	x14,x14,1
    f738:	fc6f2823          	sw	x6,-48(x30)
    f73c:	00400693          	addi	x13,x0,4
    f740:	04012303          	lw	x6,64(x2)
    f744:	02d70e63          	beq	x14,x13,f780 <__multf3+0xe6c>
    f748:	00400693          	addi	x13,x0,4
    f74c:	40e686b3          	sub	x13,x13,x14
    f750:	00269693          	slli	x13,x13,0x2
    f754:	00271713          	slli	x14,x14,0x2
    f758:	00800593          	addi	x11,x0,8
    f75c:	00e80733          	add	x14,x16,x14
    f760:	00b6ea63          	bltu	x13,x11,f774 <__multf3+0xe60>
    f764:	00072023          	sw	x0,0(x14)
    f768:	00072223          	sw	x0,4(x14)
    f76c:	ff868693          	addi	x13,x13,-8 # 3ff8 <_vfprintf_r+0x2618>
    f770:	00870713          	addi	x14,x14,8
    f774:	00400593          	addi	x11,x0,4
    f778:	00b6e463          	bltu	x13,x11,f780 <__multf3+0xe6c>
    f77c:	00072023          	sw	x0,0(x14)
    f780:	00f037b3          	sltu	x15,x0,x15
    f784:	0067e7b3          	or	x15,x15,x6
    f788:	04f12023          	sw	x15,64(x2)
    f78c:	0077f693          	andi	x13,x15,7
    f790:	04c12703          	lw	x14,76(x2)
    f794:	04068263          	beq	x13,x0,f7d8 <__multf3+0xec4>
    f798:	00f7f693          	andi	x13,x15,15
    f79c:	00400593          	addi	x11,x0,4
    f7a0:	02b68c63          	beq	x13,x11,f7d8 <__multf3+0xec4>
    f7a4:	04412683          	lw	x13,68(x2)
    f7a8:	00478793          	addi	x15,x15,4
    f7ac:	04812503          	lw	x10,72(x2)
    f7b0:	0047b593          	sltiu	x11,x15,4
    f7b4:	00b685b3          	add	x11,x13,x11
    f7b8:	00d5b6b3          	sltu	x13,x11,x13
    f7bc:	00d506b3          	add	x13,x10,x13
    f7c0:	00a6b533          	sltu	x10,x13,x10
    f7c4:	00a70733          	add	x14,x14,x10
    f7c8:	04f12023          	sw	x15,64(x2)
    f7cc:	04b12223          	sw	x11,68(x2)
    f7d0:	04d12423          	sw	x13,72(x2)
    f7d4:	04e12623          	sw	x14,76(x2)
    f7d8:	00c71793          	slli	x15,x14,0xc
    f7dc:	1a07ca63          	blt	x15,x0,f990 <__multf3+0x107c>
    f7e0:	04012583          	lw	x11,64(x2)
    f7e4:	00080793          	addi	x15,x16,0
    f7e8:	04c10813          	addi	x16,x2,76
    f7ec:	0035d513          	srli	x10,x11,0x3
    f7f0:	0047a583          	lw	x11,4(x15)
    f7f4:	00478793          	addi	x15,x15,4
    f7f8:	01d59693          	slli	x13,x11,0x1d
    f7fc:	00a6e6b3          	or	x13,x13,x10
    f800:	fed7ae23          	sw	x13,-4(x15)
    f804:	ff0794e3          	bne	x15,x16,f7ec <__multf3+0xed8>
    f808:	00375713          	srli	x14,x14,0x3
    f80c:	01071713          	slli	x14,x14,0x10
    f810:	04012503          	lw	x10,64(x2)
    f814:	04412583          	lw	x11,68(x2)
    f818:	04812683          	lw	x13,72(x2)
    f81c:	01075713          	srli	x14,x14,0x10
    f820:	00000793          	addi	x15,x0,0
    f824:	ac0ff06f          	jal	x0,eae4 <__multf3+0x1d0>
    f828:	140b9c63          	bne	x23,x0,f980 <__multf3+0x106c>
    f82c:	16098e63          	beq	x19,x0,f9a8 <__multf3+0x1094>
    f830:	00098513          	addi	x10,x19,0 # 10000 <__subtf3+0x570>
    f834:	749010ef          	jal	x1,1177c <__clzsi2>
    f838:	04050513          	addi	x10,x10,64
    f83c:	ff450793          	addi	x15,x10,-12
    f840:	01f7f813          	andi	x16,x15,31
    f844:	4057d693          	srai	x13,x15,0x5
    f848:	1c081863          	bne	x16,x0,fa18 <__multf3+0x1104>
    f84c:	40d00733          	sub	x14,x0,x13
    f850:	00271713          	slli	x14,x14,0x2
    f854:	00c70793          	addi	x15,x14,12
    f858:	03010613          	addi	x12,x2,48
    f85c:	00f607b3          	add	x15,x12,x15
    f860:	40e00733          	sub	x14,x0,x14
    f864:	0007a883          	lw	x17,0(x15)
    f868:	00e78833          	add	x16,x15,x14
    f86c:	00078593          	addi	x11,x15,0
    f870:	01182023          	sw	x17,0(x16)
    f874:	ffc78793          	addi	x15,x15,-4
    f878:	feb616e3          	bne	x12,x11,f864 <__multf3+0xf50>
    f87c:	fff68793          	addi	x15,x13,-1
    f880:	c00ff06f          	jal	x0,ec80 <__multf3+0x36c>
    f884:	0e089663          	bne	x17,x0,f970 <__multf3+0x105c>
    f888:	14070c63          	beq	x14,x0,f9e0 <__multf3+0x10cc>
    f88c:	00070513          	addi	x10,x14,0
    f890:	6ed010ef          	jal	x1,1177c <__clzsi2>
    f894:	04050513          	addi	x10,x10,64
    f898:	ff450793          	addi	x15,x10,-12
    f89c:	01f7f813          	andi	x16,x15,31
    f8a0:	4057d693          	srai	x13,x15,0x5
    f8a4:	1c081263          	bne	x16,x0,fa68 <__multf3+0x1154>
    f8a8:	40d00733          	sub	x14,x0,x13
    f8ac:	00271713          	slli	x14,x14,0x2
    f8b0:	00c70793          	addi	x15,x14,12
    f8b4:	02010613          	addi	x12,x2,32
    f8b8:	00f607b3          	add	x15,x12,x15
    f8bc:	40e00733          	sub	x14,x0,x14
    f8c0:	0007a883          	lw	x17,0(x15)
    f8c4:	00e78833          	add	x16,x15,x14
    f8c8:	00078593          	addi	x11,x15,0
    f8cc:	01182023          	sw	x17,0(x16)
    f8d0:	ffc78793          	addi	x15,x15,-4
    f8d4:	feb616e3          	bne	x12,x11,f8c0 <__multf3+0xfac>
    f8d8:	fff68793          	addi	x15,x13,-1
    f8dc:	c90ff06f          	jal	x0,ed6c <__multf3+0x458>
    f8e0:	08412c83          	lw	x25,132(x2)
    f8e4:	08012d03          	lw	x26,128(x2)
    f8e8:	cd1ff06f          	jal	x0,f5b8 <__multf3+0xca4>
    f8ec:	00100793          	addi	x15,x0,1
    f8f0:	40d787b3          	sub	x15,x15,x13
    f8f4:	07400713          	addi	x14,x0,116
    f8f8:	aef74663          	blt	x14,x15,ebe4 <__multf3+0x2d0>
    f8fc:	01f7f593          	andi	x11,x15,31
    f900:	02000e13          	addi	x28,x0,32
    f904:	4057d693          	srai	x13,x15,0x5
    f908:	40be0e33          	sub	x28,x28,x11
    f90c:	14068663          	beq	x13,x0,fa58 <__multf3+0x1144>
    f910:	04010813          	addi	x16,x2,64
    f914:	00269893          	slli	x17,x13,0x2
    f918:	00080713          	addi	x14,x16,0
    f91c:	010888b3          	add	x17,x17,x16
    f920:	00000793          	addi	x15,x0,0
    f924:	00072503          	lw	x10,0(x14)
    f928:	00470713          	addi	x14,x14,4
    f92c:	00a7e7b3          	or	x15,x15,x10
    f930:	ff171ae3          	bne	x14,x17,f924 <__multf3+0x1010>
    f934:	00068893          	addi	x17,x13,0
    f938:	00300713          	addi	x14,x0,3
    f93c:	40d70733          	sub	x14,x14,x13
    f940:	00080513          	addi	x10,x16,0
    f944:	00269313          	slli	x6,x13,0x2
    f948:	0e059063          	bne	x11,x0,fa28 <__multf3+0x1114>
    f94c:	006508b3          	add	x17,x10,x6
    f950:	0008a883          	lw	x17,0(x17)
    f954:	00158593          	addi	x11,x11,1
    f958:	00450513          	addi	x10,x10,4
    f95c:	ff152e23          	sw	x17,-4(x10)
    f960:	feb756e3          	bge	x14,x11,f94c <__multf3+0x1038>
    f964:	00400713          	addi	x14,x0,4
    f968:	40d70733          	sub	x14,x14,x13
    f96c:	dd1ff06f          	jal	x0,f73c <__multf3+0xe28>
    f970:	00088513          	addi	x10,x17,0
    f974:	609010ef          	jal	x1,1177c <__clzsi2>
    f978:	02050513          	addi	x10,x10,32
    f97c:	f1dff06f          	jal	x0,f898 <__multf3+0xf84>
    f980:	000b8513          	addi	x10,x23,0
    f984:	5f9010ef          	jal	x1,1177c <__clzsi2>
    f988:	02050513          	addi	x10,x10,32
    f98c:	eb1ff06f          	jal	x0,f83c <__multf3+0xf28>
    f990:	00100793          	addi	x15,x0,1
    f994:	00000713          	addi	x14,x0,0
    f998:	00000693          	addi	x13,x0,0
    f99c:	00000593          	addi	x11,x0,0
    f9a0:	00000513          	addi	x10,x0,0
    f9a4:	940ff06f          	jal	x0,eae4 <__multf3+0x1d0>
    f9a8:	000a8513          	addi	x10,x21,0
    f9ac:	5d1010ef          	jal	x1,1177c <__clzsi2>
    f9b0:	05450793          	addi	x15,x10,84
    f9b4:	01f7f813          	andi	x16,x15,31
    f9b8:	06050513          	addi	x10,x10,96
    f9bc:	4057d693          	srai	x13,x15,0x5
    f9c0:	e80806e3          	beq	x16,x0,f84c <__multf3+0xf38>
    f9c4:	00200793          	addi	x15,x0,2
    f9c8:	010a9ab3          	sll	x21,x21,x16
    f9cc:	0af68c63          	beq	x13,x15,fa84 <__multf3+0x1170>
    f9d0:	03512e23          	sw	x21,60(x2)
    f9d4:	00200793          	addi	x15,x0,2
    f9d8:	03010613          	addi	x12,x2,48
    f9dc:	aacff06f          	jal	x0,ec88 <__multf3+0x374>
    f9e0:	00048513          	addi	x10,x9,0
    f9e4:	599010ef          	jal	x1,1177c <__clzsi2>
    f9e8:	05450793          	addi	x15,x10,84
    f9ec:	01f7f813          	andi	x16,x15,31
    f9f0:	06050513          	addi	x10,x10,96
    f9f4:	4057d693          	srai	x13,x15,0x5
    f9f8:	ea0808e3          	beq	x16,x0,f8a8 <__multf3+0xf94>
    f9fc:	00200793          	addi	x15,x0,2
    fa00:	010494b3          	sll	x9,x9,x16
    fa04:	06f68a63          	beq	x13,x15,fa78 <__multf3+0x1164>
    fa08:	02912623          	sw	x9,44(x2)
    fa0c:	00200793          	addi	x15,x0,2
    fa10:	02010613          	addi	x12,x2,32
    fa14:	b60ff06f          	jal	x0,ed74 <__multf3+0x460>
    fa18:	02000313          	addi	x6,x0,32
    fa1c:	41030333          	sub	x6,x6,x16
    fa20:	010a9ab3          	sll	x21,x21,x16
    fa24:	a04ff06f          	jal	x0,ec28 <__multf3+0x314>
    fa28:	00289513          	slli	x10,x17,0x2
    fa2c:	05050513          	addi	x10,x10,80
    fa30:	02010893          	addi	x17,x2,32
    fa34:	01150533          	add	x10,x10,x17
    fa38:	fd052503          	lw	x10,-48(x10)
    fa3c:	04c12303          	lw	x6,76(x2)
    fa40:	01c51533          	sll	x10,x10,x28
    fa44:	00a7e7b3          	or	x15,x15,x10
    fa48:	00b35333          	srl	x6,x6,x11
    fa4c:	ca0712e3          	bne	x14,x0,f6f0 <__multf3+0xddc>
    fa50:	00100713          	addi	x14,x0,1
    fa54:	cf5ff06f          	jal	x0,f748 <__multf3+0xe34>
    fa58:	00000893          	addi	x17,x0,0
    fa5c:	00000793          	addi	x15,x0,0
    fa60:	04010813          	addi	x16,x2,64
    fa64:	ed5ff06f          	jal	x0,f938 <__multf3+0x1024>
    fa68:	02000313          	addi	x6,x0,32
    fa6c:	41030333          	sub	x6,x6,x16
    fa70:	010494b3          	sll	x9,x9,x16
    fa74:	aa0ff06f          	jal	x0,ed14 <__multf3+0x400>
    fa78:	02000313          	addi	x6,x0,32
    fa7c:	41030333          	sub	x6,x6,x16
    fa80:	a94ff06f          	jal	x0,ed14 <__multf3+0x400>
    fa84:	02000313          	addi	x6,x0,32
    fa88:	41030333          	sub	x6,x6,x16
    fa8c:	99cff06f          	jal	x0,ec28 <__multf3+0x314>

0000fa90 <__subtf3>:
    fa90:	00c5a783          	lw	x15,12(x11)
    fa94:	0085a703          	lw	x14,8(x11)
    fa98:	0005a803          	lw	x16,0(x11)
    fa9c:	0045a883          	lw	x17,4(x11)
    faa0:	fa010113          	addi	x2,x2,-96
    faa4:	01079693          	slli	x13,x15,0x10
    faa8:	00062303          	lw	x6,0(x12)
    faac:	00462283          	lw	x5,4(x12)
    fab0:	00862e03          	lw	x28,8(x12)
    fab4:	00c62583          	lw	x11,12(x12)
    fab8:	04812c23          	sw	x8,88(x2)
    fabc:	0106d693          	srli	x13,x13,0x10
    fac0:	00179413          	slli	x8,x15,0x1
    fac4:	01f7de93          	srli	x29,x15,0x1f
    fac8:	04912a23          	sw	x9,84(x2)
    facc:	05212823          	sw	x18,80(x2)
    fad0:	02e12c23          	sw	x14,56(x2)
    fad4:	00e12c23          	sw	x14,24(x2)
    fad8:	04112e23          	sw	x1,92(x2)
    fadc:	00050913          	addi	x18,x10,0
    fae0:	03012823          	sw	x16,48(x2)
    fae4:	03112a23          	sw	x17,52(x2)
    fae8:	02f12e23          	sw	x15,60(x2)
    faec:	01012823          	sw	x16,16(x2)
    faf0:	01112a23          	sw	x17,20(x2)
    faf4:	00d12e23          	sw	x13,28(x2)
    faf8:	01145413          	srli	x8,x8,0x11
    fafc:	000e8493          	addi	x9,x29,0 # 10000 <__subtf3+0x570>
    fb00:	01010f13          	addi	x30,x2,16
    fb04:	01c10713          	addi	x14,x2,28
    fb08:	00369613          	slli	x12,x13,0x3
    fb0c:	ffc72683          	lw	x13,-4(x14)
    fb10:	00070f93          	addi	x31,x14,0
    fb14:	ffc70713          	addi	x14,x14,-4
    fb18:	01d6d793          	srli	x15,x13,0x1d
    fb1c:	00c7e7b3          	or	x15,x15,x12
    fb20:	00f72223          	sw	x15,4(x14)
    fb24:	feef12e3          	bne	x30,x14,fb08 <__subtf3+0x78>
    fb28:	01059613          	slli	x12,x11,0x10
    fb2c:	00159513          	slli	x10,x11,0x1
    fb30:	00381893          	slli	x17,x16,0x3
    fb34:	01065613          	srli	x12,x12,0x10
    fb38:	02512a23          	sw	x5,52(x2)
    fb3c:	02b12e23          	sw	x11,60(x2)
    fb40:	02512223          	sw	x5,36(x2)
    fb44:	01112823          	sw	x17,16(x2)
    fb48:	02612823          	sw	x6,48(x2)
    fb4c:	03c12c23          	sw	x28,56(x2)
    fb50:	02612023          	sw	x6,32(x2)
    fb54:	03c12423          	sw	x28,40(x2)
    fb58:	02c12623          	sw	x12,44(x2)
    fb5c:	01155513          	srli	x10,x10,0x11
    fb60:	01f5d593          	srli	x11,x11,0x1f
    fb64:	02010293          	addi	x5,x2,32
    fb68:	02c10793          	addi	x15,x2,44
    fb6c:	00361813          	slli	x16,x12,0x3
    fb70:	ffc7a603          	lw	x12,-4(x15)
    fb74:	ffc78793          	addi	x15,x15,-4
    fb78:	01d65693          	srli	x13,x12,0x1d
    fb7c:	0106e6b3          	or	x13,x13,x16
    fb80:	00d7a223          	sw	x13,4(x15)
    fb84:	fef294e3          	bne	x5,x15,fb6c <__subtf3+0xdc>
    fb88:	00331313          	slli	x6,x6,0x3
    fb8c:	00008637          	lui	x12,0x8
    fb90:	02612023          	sw	x6,32(x2)
    fb94:	fff60613          	addi	x12,x12,-1 # 7fff <__gdtoa+0x20f>
    fb98:	20c50a63          	beq	x10,x12,fdac <__subtf3+0x31c>
    fb9c:	0015c593          	xori	x11,x11,1
    fba0:	40a406b3          	sub	x13,x8,x10
    fba4:	10be8463          	beq	x29,x11,fcac <__subtf3+0x21c>
    fba8:	00d04463          	blt	x0,x13,fbb0 <__subtf3+0x120>
    fbac:	7f50006f          	jal	x0,10ba0 <__subtf3+0x1110>
    fbb0:	01412583          	lw	x11,20(x2)
    fbb4:	01812803          	lw	x16,24(x2)
    fbb8:	01c12e03          	lw	x28,28(x2)
    fbbc:	32050c63          	beq	x10,x0,fef4 <__subtf3+0x464>
    fbc0:	00c41463          	bne	x8,x12,fbc8 <__subtf3+0x138>
    fbc4:	0340106f          	jal	x0,10bf8 <__subtf3+0x1168>
    fbc8:	02c12503          	lw	x10,44(x2)
    fbcc:	00080637          	lui	x12,0x80
    fbd0:	07400713          	addi	x14,x0,116
    fbd4:	00c56533          	or	x10,x10,x12
    fbd8:	02a12623          	sw	x10,44(x2)
    fbdc:	34d75663          	bge	x14,x13,ff28 <__subtf3+0x498>
    fbe0:	00000313          	addi	x6,x0,0
    fbe4:	00000613          	addi	x12,x0,0
    fbe8:	00000e93          	addi	x29,x0,0
    fbec:	00100713          	addi	x14,x0,1
    fbf0:	41d587b3          	sub	x15,x11,x29
    fbf4:	40e88733          	sub	x14,x17,x14
    fbf8:	00e8b6b3          	sltu	x13,x17,x14
    fbfc:	00f5b533          	sltu	x10,x11,x15
    fc00:	00050f13          	addi	x30,x10,0
    fc04:	40d786b3          	sub	x13,x15,x13
    fc08:	00e8f463          	bgeu	x17,x14,fc10 <__subtf3+0x180>
    fc0c:	04be82e3          	beq	x29,x11,10450 <__subtf3+0x9c0>
    fc10:	40c808b3          	sub	x17,x16,x12
    fc14:	011837b3          	sltu	x15,x16,x17
    fc18:	41e888b3          	sub	x17,x17,x30
    fc1c:	040510e3          	bne	x10,x0,1045c <__subtf3+0x9cc>
    fc20:	00f307b3          	add	x15,x6,x15
    fc24:	40fe0e33          	sub	x28,x28,x15
    fc28:	03c12e23          	sw	x28,60(x2)
    fc2c:	03112c23          	sw	x17,56(x2)
    fc30:	02d12a23          	sw	x13,52(x2)
    fc34:	02e12823          	sw	x14,48(x2)
    fc38:	00ce1793          	slli	x15,x28,0xc
    fc3c:	5207dc63          	bge	x15,x0,10174 <__subtf3+0x6e4>
    fc40:	00080537          	lui	x10,0x80
    fc44:	fff50513          	addi	x10,x10,-1 # 7ffff <__heap_start+0x6d12f>
    fc48:	00ae7533          	and	x10,x28,x10
    fc4c:	02a12e23          	sw	x10,60(x2)
    fc50:	140512e3          	bne	x10,x0,10594 <__subtf3+0xb04>
    fc54:	03812503          	lw	x10,56(x2)
    fc58:	100504e3          	beq	x10,x0,10560 <__subtf3+0xad0>
    fc5c:	321010ef          	jal	x1,1177c <__clzsi2>
    fc60:	01450613          	addi	x12,x10,20
    fc64:	01f67893          	andi	x17,x12,31
    fc68:	440890e3          	bne	x17,x0,108a8 <__subtf3+0xe18>
    fc6c:	00100593          	addi	x11,x0,1
    fc70:	02000613          	addi	x12,x0,32
    fc74:	40b006b3          	sub	x13,x0,x11
    fc78:	00269693          	slli	x13,x13,0x2
    fc7c:	00c68713          	addi	x14,x13,12
    fc80:	03010793          	addi	x15,x2,48
    fc84:	00e78733          	add	x14,x15,x14
    fc88:	40d006b3          	sub	x13,x0,x13
    fc8c:	00072883          	lw	x17,0(x14)
    fc90:	00d70833          	add	x16,x14,x13
    fc94:	00070513          	addi	x10,x14,0
    fc98:	01182023          	sw	x17,0(x16)
    fc9c:	ffc70713          	addi	x14,x14,-4
    fca0:	fef516e3          	bne	x10,x15,fc8c <__subtf3+0x1fc>
    fca4:	fff58713          	addi	x14,x11,-1
    fca8:	1650006f          	jal	x0,1060c <__subtf3+0xb7c>
    fcac:	76d05ee3          	bge	x0,x13,10c28 <__subtf3+0x1198>
    fcb0:	01412803          	lw	x16,20(x2)
    fcb4:	01812f03          	lw	x30,24(x2)
    fcb8:	01c12e03          	lw	x28,28(x2)
    fcbc:	42051e63          	bne	x10,x0,100f8 <__subtf3+0x668>
    fcc0:	02412583          	lw	x11,36(x2)
    fcc4:	02812f83          	lw	x31,40(x2)
    fcc8:	02c12503          	lw	x10,44(x2)
    fccc:	01f5e733          	or	x14,x11,x31
    fcd0:	00a76733          	or	x14,x14,x10
    fcd4:	00676733          	or	x14,x14,x6
    fcd8:	6a0706e3          	beq	x14,x0,10b84 <__subtf3+0x10f4>
    fcdc:	fff68713          	addi	x14,x13,-1
    fce0:	5a070ce3          	beq	x14,x0,10a98 <__subtf3+0x1008>
    fce4:	6ac680e3          	beq	x13,x12,10b84 <__subtf3+0x10f4>
    fce8:	07400693          	addi	x13,x0,116
    fcec:	42e6c463          	blt	x13,x14,10114 <__subtf3+0x684>
    fcf0:	00070693          	addi	x13,x14,0
    fcf4:	4056df93          	srai	x31,x13,0x5
    fcf8:	01f6f693          	andi	x13,x13,31
    fcfc:	5c0f8ee3          	beq	x31,x0,10ad8 <__subtf3+0x1048>
    fd00:	002f9313          	slli	x6,x31,0x2
    fd04:	00f303b3          	add	x7,x6,x15
    fd08:	00078713          	addi	x14,x15,0
    fd0c:	00000613          	addi	x12,x0,0
    fd10:	00072583          	lw	x11,0(x14)
    fd14:	00470713          	addi	x14,x14,4
    fd18:	00b66633          	or	x12,x12,x11
    fd1c:	fee39ae3          	bne	x7,x14,fd10 <__subtf3+0x280>
    fd20:	00300713          	addi	x14,x0,3
    fd24:	41f70733          	sub	x14,x14,x31
    fd28:	280682e3          	beq	x13,x0,107ac <__subtf3+0xd1c>
    fd2c:	04030593          	addi	x11,x6,64
    fd30:	002585b3          	add	x11,x11,x2
    fd34:	fe05a583          	lw	x11,-32(x11)
    fd38:	05312623          	sw	x19,76(x2)
    fd3c:	02000993          	addi	x19,x0,32
    fd40:	40d989b3          	sub	x19,x19,x13
    fd44:	013595b3          	sll	x11,x11,x19
    fd48:	00b66633          	or	x12,x12,x11
    fd4c:	00d55533          	srl	x10,x10,x13
    fd50:	00071463          	bne	x14,x0,fd58 <__subtf3+0x2c8>
    fd54:	3cc0106f          	jal	x0,11120 <__subtf3+0x1690>
    fd58:	05412423          	sw	x20,72(x2)
    fd5c:	00271593          	slli	x11,x14,0x2
    fd60:	00628333          	add	x6,x5,x6
    fd64:	00f58a33          	add	x20,x11,x15
    fd68:	00032703          	lw	x14,0(x6)
    fd6c:	00432383          	lw	x7,4(x6)
    fd70:	00478793          	addi	x15,x15,4
    fd74:	00d75733          	srl	x14,x14,x13
    fd78:	013393b3          	sll	x7,x7,x19
    fd7c:	00776733          	or	x14,x14,x7
    fd80:	fee7ae23          	sw	x14,-4(x15)
    fd84:	00430313          	addi	x6,x6,4
    fd88:	ff4790e3          	bne	x15,x20,fd68 <__subtf3+0x2d8>
    fd8c:	04058793          	addi	x15,x11,64
    fd90:	00278733          	add	x14,x15,x2
    fd94:	00400793          	addi	x15,x0,4
    fd98:	04c12983          	lw	x19,76(x2)
    fd9c:	04812a03          	lw	x20,72(x2)
    fda0:	41f787b3          	sub	x15,x15,x31
    fda4:	fea72023          	sw	x10,-32(x14)
    fda8:	2250006f          	jal	x0,107cc <__subtf3+0xd3c>
    fdac:	02412803          	lw	x16,36(x2)
    fdb0:	02812603          	lw	x12,40(x2)
    fdb4:	02c12e03          	lw	x28,44(x2)
    fdb8:	40a406b3          	sub	x13,x8,x10
    fdbc:	00c867b3          	or	x15,x16,x12
    fdc0:	01c7e7b3          	or	x15,x15,x28
    fdc4:	0067e7b3          	or	x15,x15,x6
    fdc8:	20079663          	bne	x15,x0,ffd4 <__subtf3+0x544>
    fdcc:	0015c593          	xori	x11,x11,1
    fdd0:	00000e13          	addi	x28,x0,0
    fdd4:	00000613          	addi	x12,x0,0
    fdd8:	20be8263          	beq	x29,x11,ffdc <__subtf3+0x54c>
    fddc:	58068463          	beq	x13,x0,10364 <__subtf3+0x8d4>
    fde0:	408503b3          	sub	x7,x10,x8
    fde4:	70041263          	bne	x8,x0,104e8 <__subtf3+0xa58>
    fde8:	01412803          	lw	x16,20(x2)
    fdec:	01812483          	lw	x9,24(x2)
    fdf0:	01c12283          	lw	x5,28(x2)
    fdf4:	009866b3          	or	x13,x16,x9
    fdf8:	0056e6b3          	or	x13,x13,x5
    fdfc:	0116e6b3          	or	x13,x13,x17
    fe00:	40068ae3          	beq	x13,x0,10a14 <__subtf3+0xf84>
    fe04:	fff38e93          	addi	x29,x7,-1
    fe08:	720e8ee3          	beq	x29,x0,10d44 <__subtf3+0x12b4>
    fe0c:	000086b7          	lui	x13,0x8
    fe10:	fff68693          	addi	x13,x13,-1 # 7fff <__gdtoa+0x20f>
    fe14:	00d39463          	bne	x7,x13,fe1c <__subtf3+0x38c>
    fe18:	01c0106f          	jal	x0,10e34 <__subtf3+0x13a4>
    fe1c:	07400693          	addi	x13,x0,116
    fe20:	6fd6c663          	blt	x13,x29,1050c <__subtf3+0xa7c>
    fe24:	01f00693          	addi	x13,x0,31
    fe28:	63d6dce3          	bge	x13,x29,10c60 <__subtf3+0x11d0>
    fe2c:	405ed813          	srai	x16,x29,0x5
    fe30:	000e8393          	addi	x7,x29,0
    fe34:	00070e93          	addi	x29,x14,0
    fe38:	00000693          	addi	x13,x0,0
    fe3c:	00000893          	addi	x17,x0,0
    fe40:	000ea403          	lw	x8,0(x29)
    fe44:	00188893          	addi	x17,x17,1
    fe48:	004e8e93          	addi	x29,x29,4
    fe4c:	0086e6b3          	or	x13,x13,x8
    fe50:	ff08c8e3          	blt	x17,x16,fe40 <__subtf3+0x3b0>
    fe54:	00080413          	addi	x8,x16,0
    fe58:	00300493          	addi	x9,x0,3
    fe5c:	01f3fe93          	andi	x29,x7,31
    fe60:	408484b3          	sub	x9,x9,x8
    fe64:	600e96e3          	bne	x29,x0,10c70 <__subtf3+0x11e0>
    fe68:	00241893          	slli	x17,x8,0x2
    fe6c:	01170833          	add	x16,x14,x17
    fe70:	00082803          	lw	x16,0(x16)
    fe74:	001e8e93          	addi	x29,x29,1
    fe78:	00470713          	addi	x14,x14,4
    fe7c:	ff072e23          	sw	x16,-4(x14)
    fe80:	ffd4d6e3          	bge	x9,x29,fe6c <__subtf3+0x3dc>
    fe84:	00400713          	addi	x14,x0,4
    fe88:	40870733          	sub	x14,x14,x8
    fe8c:	00300813          	addi	x16,x0,3
    fe90:	01012e83          	lw	x29,16(x2)
    fe94:	02e84e63          	blt	x16,x14,fed0 <__subtf3+0x440>
    fe98:	00400813          	addi	x16,x0,4
    fe9c:	40e80833          	sub	x16,x16,x14
    fea0:	00281813          	slli	x16,x16,0x2
    fea4:	00271713          	slli	x14,x14,0x2
    fea8:	00800893          	addi	x17,x0,8
    feac:	00ef0733          	add	x14,x30,x14
    feb0:	01186a63          	bltu	x16,x17,fec4 <__subtf3+0x434>
    feb4:	00072023          	sw	x0,0(x14)
    feb8:	00072223          	sw	x0,4(x14)
    febc:	ff880813          	addi	x16,x16,-8
    fec0:	00870713          	addi	x14,x14,8
    fec4:	00400893          	addi	x17,x0,4
    fec8:	01186463          	bltu	x16,x17,fed0 <__subtf3+0x440>
    fecc:	00072023          	sw	x0,0(x14)
    fed0:	00d03733          	sltu	x14,x0,x13
    fed4:	01412f03          	lw	x30,20(x2)
    fed8:	01812803          	lw	x16,24(x2)
    fedc:	01c12683          	lw	x13,28(x2)
    fee0:	01d76733          	or	x14,x14,x29
    fee4:	410608b3          	sub	x17,x12,x16
    fee8:	41e78eb3          	sub	x29,x15,x30
    feec:	40de0e33          	sub	x28,x28,x13
    fef0:	6300006f          	jal	x0,10520 <__subtf3+0xa90>
    fef4:	02412f03          	lw	x30,36(x2)
    fef8:	02812e83          	lw	x29,40(x2)
    fefc:	02c12503          	lw	x10,44(x2)
    ff00:	01df6733          	or	x14,x30,x29
    ff04:	00a76733          	or	x14,x14,x10
    ff08:	00676733          	or	x14,x14,x6
    ff0c:	56070063          	beq	x14,x0,1046c <__subtf3+0x9dc>
    ff10:	fff68713          	addi	x14,x13,-1
    ff14:	48070ee3          	beq	x14,x0,10bb0 <__subtf3+0x1120>
    ff18:	54c68a63          	beq	x13,x12,1046c <__subtf3+0x9dc>
    ff1c:	07400693          	addi	x13,x0,116
    ff20:	cce6c0e3          	blt	x13,x14,fbe0 <__subtf3+0x150>
    ff24:	00070693          	addi	x13,x14,0
    ff28:	4056df93          	srai	x31,x13,0x5
    ff2c:	01f6f693          	andi	x13,x13,31
    ff30:	7a0f82e3          	beq	x31,x0,10ed4 <__subtf3+0x1444>
    ff34:	002f9e93          	slli	x29,x31,0x2
    ff38:	00fe8f33          	add	x30,x29,x15
    ff3c:	00078713          	addi	x14,x15,0
    ff40:	00000613          	addi	x12,x0,0
    ff44:	00072303          	lw	x6,0(x14)
    ff48:	00470713          	addi	x14,x14,4
    ff4c:	00666633          	or	x12,x12,x6
    ff50:	feef1ae3          	bne	x30,x14,ff44 <__subtf3+0x4b4>
    ff54:	00300713          	addi	x14,x0,3
    ff58:	41f70733          	sub	x14,x14,x31
    ff5c:	48068663          	beq	x13,x0,103e8 <__subtf3+0x958>
    ff60:	040e8313          	addi	x6,x29,64
    ff64:	00230333          	add	x6,x6,x2
    ff68:	fe032303          	lw	x6,-32(x6)
    ff6c:	02000393          	addi	x7,x0,32
    ff70:	40d383b3          	sub	x7,x7,x13
    ff74:	00731333          	sll	x6,x6,x7
    ff78:	00666633          	or	x12,x12,x6
    ff7c:	00d55533          	srl	x10,x10,x13
    ff80:	740706e3          	beq	x14,x0,10ecc <__subtf3+0x143c>
    ff84:	05312623          	sw	x19,76(x2)
    ff88:	00271313          	slli	x6,x14,0x2
    ff8c:	01d28eb3          	add	x29,x5,x29
    ff90:	00f309b3          	add	x19,x6,x15
    ff94:	000ea703          	lw	x14,0(x29)
    ff98:	004eaf03          	lw	x30,4(x29)
    ff9c:	00478793          	addi	x15,x15,4
    ffa0:	00d75733          	srl	x14,x14,x13
    ffa4:	007f1f33          	sll	x30,x30,x7
    ffa8:	01e76733          	or	x14,x14,x30
    ffac:	fee7ae23          	sw	x14,-4(x15)
    ffb0:	004e8e93          	addi	x29,x29,4
    ffb4:	fef990e3          	bne	x19,x15,ff94 <__subtf3+0x504>
    ffb8:	04030793          	addi	x15,x6,64
    ffbc:	00278733          	add	x14,x15,x2
    ffc0:	00400793          	addi	x15,x0,4
    ffc4:	04c12983          	lw	x19,76(x2)
    ffc8:	41f787b3          	sub	x15,x15,x31
    ffcc:	fea72023          	sw	x10,-32(x14)
    ffd0:	4380006f          	jal	x0,10408 <__subtf3+0x978>
    ffd4:	00080793          	addi	x15,x16,0
    ffd8:	e0be92e3          	bne	x29,x11,fddc <__subtf3+0x34c>
    ffdc:	4a068663          	beq	x13,x0,10488 <__subtf3+0x9f8>
    ffe0:	40850833          	sub	x16,x10,x8
    ffe4:	060410e3          	bne	x8,x0,10844 <__subtf3+0xdb4>
    ffe8:	01412683          	lw	x13,20(x2)
    ffec:	01812383          	lw	x7,24(x2)
    fff0:	01c12283          	lw	x5,28(x2)
    fff4:	0076e5b3          	or	x11,x13,x7
    fff8:	0055e5b3          	or	x11,x11,x5
    fffc:	0115e5b3          	or	x11,x11,x17
   10000:	6e058ce3          	beq	x11,x0,10ef8 <__subtf3+0x1468>
   10004:	fff80593          	addi	x11,x16,-1
   10008:	7c0582e3          	beq	x11,x0,10fcc <__subtf3+0x153c>
   1000c:	000086b7          	lui	x13,0x8
   10010:	fff68693          	addi	x13,x13,-1 # 7fff <__gdtoa+0x20f>
   10014:	00d81463          	bne	x16,x13,1001c <__subtf3+0x58c>
   10018:	0d40106f          	jal	x0,110ec <__subtf3+0x165c>
   1001c:	07400693          	addi	x13,x0,116
   10020:	04b6c4e3          	blt	x13,x11,10868 <__subtf3+0xdd8>
   10024:	01f00693          	addi	x13,x0,31
   10028:	00b6c463          	blt	x13,x11,10030 <__subtf3+0x5a0>
   1002c:	1dc0106f          	jal	x0,11208 <__subtf3+0x1778>
   10030:	4055d893          	srai	x17,x11,0x5
   10034:	00058813          	addi	x16,x11,0
   10038:	00070393          	addi	x7,x14,0
   1003c:	00000693          	addi	x13,x0,0
   10040:	00000593          	addi	x11,x0,0
   10044:	0003a403          	lw	x8,0(x7)
   10048:	00158593          	addi	x11,x11,1
   1004c:	00438393          	addi	x7,x7,4
   10050:	0086e6b3          	or	x13,x13,x8
   10054:	ff15c8e3          	blt	x11,x17,10044 <__subtf3+0x5b4>
   10058:	00088413          	addi	x8,x17,0
   1005c:	00300393          	addi	x7,x0,3
   10060:	01f87593          	andi	x11,x16,31
   10064:	408383b3          	sub	x7,x7,x8
   10068:	7c059ae3          	bne	x11,x0,1103c <__subtf3+0x15ac>
   1006c:	00241893          	slli	x17,x8,0x2
   10070:	01170833          	add	x16,x14,x17
   10074:	00082803          	lw	x16,0(x16)
   10078:	00158593          	addi	x11,x11,1
   1007c:	00470713          	addi	x14,x14,4
   10080:	ff072e23          	sw	x16,-4(x14)
   10084:	feb3d6e3          	bge	x7,x11,10070 <__subtf3+0x5e0>
   10088:	00400713          	addi	x14,x0,4
   1008c:	40870733          	sub	x14,x14,x8
   10090:	00300813          	addi	x16,x0,3
   10094:	01012583          	lw	x11,16(x2)
   10098:	02e84e63          	blt	x16,x14,100d4 <__subtf3+0x644>
   1009c:	00400813          	addi	x16,x0,4
   100a0:	40e80833          	sub	x16,x16,x14
   100a4:	00281813          	slli	x16,x16,0x2
   100a8:	00271713          	slli	x14,x14,0x2
   100ac:	00800893          	addi	x17,x0,8
   100b0:	00ef0733          	add	x14,x30,x14
   100b4:	01186a63          	bltu	x16,x17,100c8 <__subtf3+0x638>
   100b8:	00072023          	sw	x0,0(x14)
   100bc:	00072223          	sw	x0,4(x14)
   100c0:	ff880813          	addi	x16,x16,-8
   100c4:	00870713          	addi	x14,x14,8
   100c8:	00400893          	addi	x17,x0,4
   100cc:	01186463          	bltu	x16,x17,100d4 <__subtf3+0x644>
   100d0:	00072023          	sw	x0,0(x14)
   100d4:	00d03733          	sltu	x14,x0,x13
   100d8:	01c12803          	lw	x16,28(x2)
   100dc:	01412683          	lw	x13,20(x2)
   100e0:	00b76733          	or	x14,x14,x11
   100e4:	01812583          	lw	x11,24(x2)
   100e8:	00d786b3          	add	x13,x15,x13
   100ec:	010e0e33          	add	x28,x28,x16
   100f0:	00b605b3          	add	x11,x12,x11
   100f4:	7800006f          	jal	x0,10874 <__subtf3+0xde4>
   100f8:	34c408e3          	beq	x8,x12,10c48 <__subtf3+0x11b8>
   100fc:	02c12503          	lw	x10,44(x2)
   10100:	00080637          	lui	x12,0x80
   10104:	07400713          	addi	x14,x0,116
   10108:	00c56533          	or	x10,x10,x12
   1010c:	02a12623          	sw	x10,44(x2)
   10110:	bed752e3          	bge	x14,x13,fcf4 <__subtf3+0x264>
   10114:	00000313          	addi	x6,x0,0
   10118:	00000693          	addi	x13,x0,0
   1011c:	00000793          	addi	x15,x0,0
   10120:	00100713          	addi	x14,x0,1
   10124:	00e88733          	add	x14,x17,x14
   10128:	010785b3          	add	x11,x15,x16
   1012c:	01173833          	sltu	x16,x14,x17
   10130:	01058833          	add	x16,x11,x16
   10134:	00f5b7b3          	sltu	x15,x11,x15
   10138:	00b835b3          	sltu	x11,x16,x11
   1013c:	01e68633          	add	x12,x13,x30
   10140:	00b7e7b3          	or	x15,x15,x11
   10144:	00f607b3          	add	x15,x12,x15
   10148:	00d636b3          	sltu	x13,x12,x13
   1014c:	00c7b633          	sltu	x12,x15,x12
   10150:	00c6e6b3          	or	x13,x13,x12
   10154:	01c30633          	add	x12,x6,x28
   10158:	00c68e33          	add	x28,x13,x12
   1015c:	02f12c23          	sw	x15,56(x2)
   10160:	02e12823          	sw	x14,48(x2)
   10164:	03012a23          	sw	x16,52(x2)
   10168:	00ce1793          	slli	x15,x28,0xc
   1016c:	1807cae3          	blt	x15,x0,10b00 <__subtf3+0x1070>
   10170:	03c12e23          	sw	x28,60(x2)
   10174:	00777693          	andi	x13,x14,7
   10178:	03010793          	addi	x15,x2,48
   1017c:	26068063          	beq	x13,x0,103dc <__subtf3+0x94c>
   10180:	00f77693          	andi	x13,x14,15
   10184:	00400613          	addi	x12,x0,4
   10188:	02c68c63          	beq	x13,x12,101c0 <__subtf3+0x730>
   1018c:	03412683          	lw	x13,52(x2)
   10190:	00470713          	addi	x14,x14,4
   10194:	03812583          	lw	x11,56(x2)
   10198:	00473613          	sltiu	x12,x14,4
   1019c:	00c68633          	add	x12,x13,x12
   101a0:	00d636b3          	sltu	x13,x12,x13
   101a4:	00d586b3          	add	x13,x11,x13
   101a8:	00b6b5b3          	sltu	x11,x13,x11
   101ac:	00be0e33          	add	x28,x28,x11
   101b0:	02e12823          	sw	x14,48(x2)
   101b4:	02c12a23          	sw	x12,52(x2)
   101b8:	02d12c23          	sw	x13,56(x2)
   101bc:	03c12e23          	sw	x28,60(x2)
   101c0:	00080737          	lui	x14,0x80
   101c4:	00ee7733          	and	x14,x28,x14
   101c8:	14070063          	beq	x14,x0,10308 <__subtf3+0x878>
   101cc:	00008737          	lui	x14,0x8
   101d0:	00140413          	addi	x8,x8,1
   101d4:	fff70713          	addi	x14,x14,-1 # 7fff <__gdtoa+0x20f>
   101d8:	14e40e63          	beq	x8,x14,10334 <__subtf3+0x8a4>
   101dc:	fff805b7          	lui	x11,0xfff80
   101e0:	fff58593          	addi	x11,x11,-1 # fff7ffff <__heap_end+0xffb7ffff>
   101e4:	00be75b3          	and	x11,x28,x11
   101e8:	02b12e23          	sw	x11,60(x2)
   101ec:	0035d593          	srli	x11,x11,0x3
   101f0:	03012683          	lw	x13,48(x2)
   101f4:	03c10513          	addi	x10,x2,60
   101f8:	0036d613          	srli	x12,x13,0x3
   101fc:	0047a683          	lw	x13,4(x15)
   10200:	00478793          	addi	x15,x15,4
   10204:	01d69713          	slli	x14,x13,0x1d
   10208:	00c76733          	or	x14,x14,x12
   1020c:	fee7ae23          	sw	x14,-4(x15)
   10210:	fea794e3          	bne	x15,x10,101f8 <__subtf3+0x768>
   10214:	000087b7          	lui	x15,0x8
   10218:	fff78793          	addi	x15,x15,-1 # 7fff <__gdtoa+0x20f>
   1021c:	03012703          	lw	x14,48(x2)
   10220:	03412603          	lw	x12,52(x2)
   10224:	03812683          	lw	x13,56(x2)
   10228:	0ef40463          	beq	x8,x15,10310 <__subtf3+0x880>
   1022c:	01059793          	slli	x15,x11,0x10
   10230:	0107d793          	srli	x15,x15,0x10
   10234:	0014f493          	andi	x9,x9,1
   10238:	01141413          	slli	x8,x8,0x11
   1023c:	01145413          	srli	x8,x8,0x11
   10240:	00f49493          	slli	x9,x9,0xf
   10244:	0084e4b3          	or	x9,x9,x8
   10248:	00911723          	sh	x9,14(x2)
   1024c:	00f11623          	sh	x15,12(x2)
   10250:	00c12783          	lw	x15,12(x2)
   10254:	05c12083          	lw	x1,92(x2)
   10258:	05812403          	lw	x8,88(x2)
   1025c:	00e92023          	sw	x14,0(x18)
   10260:	00c92223          	sw	x12,4(x18)
   10264:	00d92423          	sw	x13,8(x18)
   10268:	00f92623          	sw	x15,12(x18)
   1026c:	05412483          	lw	x9,84(x2)
   10270:	00090513          	addi	x10,x18,0
   10274:	05012903          	lw	x18,80(x2)
   10278:	06010113          	addi	x2,x2,96
   1027c:	00008067          	jalr	x0,0(x1)
   10280:	40ff8733          	sub	x14,x31,x15
   10284:	40688833          	sub	x16,x17,x6
   10288:	05312623          	sw	x19,76(x2)
   1028c:	05412423          	sw	x20,72(x2)
   10290:	00efb9b3          	sltu	x19,x31,x14
   10294:	0108b533          	sltu	x10,x17,x16
   10298:	00098a13          	addi	x20,x19,0
   1029c:	40a70733          	sub	x14,x14,x10
   102a0:	40cf0eb3          	sub	x29,x30,x12
   102a4:	00cf33b3          	sltu	x7,x30,x12
   102a8:	2b08f663          	bgeu	x17,x16,10554 <__subtf3+0xac4>
   102ac:	2bf79463          	bne	x15,x31,10554 <__subtf3+0xac4>
   102b0:	fffe8e93          	addi	x29,x29,-1
   102b4:	41e60533          	sub	x10,x12,x30
   102b8:	00153513          	sltiu	x10,x10,1
   102bc:	00a3e3b3          	or	x7,x7,x10
   102c0:	41c28533          	sub	x10,x5,x28
   102c4:	40750533          	sub	x10,x10,x7
   102c8:	02a12e23          	sw	x10,60(x2)
   102cc:	03d12c23          	sw	x29,56(x2)
   102d0:	02e12a23          	sw	x14,52(x2)
   102d4:	03012823          	sw	x16,48(x2)
   102d8:	00c51393          	slli	x7,x10,0xc
   102dc:	6c03c463          	blt	x7,x0,109a4 <__subtf3+0xf14>
   102e0:	00e867b3          	or	x15,x16,x14
   102e4:	01d7e7b3          	or	x15,x15,x29
   102e8:	00a7e7b3          	or	x15,x15,x10
   102ec:	70079263          	bne	x15,x0,109f0 <__subtf3+0xf60>
   102f0:	04c12983          	lw	x19,76(x2)
   102f4:	04812a03          	lw	x20,72(x2)
   102f8:	00000413          	addi	x8,x0,0
   102fc:	03010793          	addi	x15,x2,48
   10300:	00068493          	addi	x9,x13,0
   10304:	00000e13          	addi	x28,x0,0
   10308:	003e5593          	srli	x11,x28,0x3
   1030c:	ee5ff06f          	jal	x0,101f0 <__subtf3+0x760>
   10310:	00c76733          	or	x14,x14,x12
   10314:	00d76733          	or	x14,x14,x13
   10318:	00b76733          	or	x14,x14,x11
   1031c:	02071863          	bne	x14,x0,1034c <__subtf3+0x8bc>
   10320:	0014f493          	andi	x9,x9,1
   10324:	00000693          	addi	x13,x0,0
   10328:	00000613          	addi	x12,x0,0
   1032c:	00000793          	addi	x15,x0,0
   10330:	f09ff06f          	jal	x0,10238 <__subtf3+0x7a8>
   10334:	02012e23          	sw	x0,60(x2)
   10338:	02012c23          	sw	x0,56(x2)
   1033c:	02012a23          	sw	x0,52(x2)
   10340:	02012823          	sw	x0,48(x2)
   10344:	00000593          	addi	x11,x0,0
   10348:	ea9ff06f          	jal	x0,101f0 <__subtf3+0x760>
   1034c:	00000493          	addi	x9,x0,0
   10350:	000087b7          	lui	x15,0x8
   10354:	00000693          	addi	x13,x0,0
   10358:	00000613          	addi	x12,x0,0
   1035c:	00000713          	addi	x14,x0,0
   10360:	ed9ff06f          	jal	x0,10238 <__subtf3+0x7a8>
   10364:	00140713          	addi	x14,x8,1
   10368:	01171813          	slli	x16,x14,0x11
   1036c:	01285813          	srli	x16,x16,0x12
   10370:	01412f83          	lw	x31,20(x2)
   10374:	01812f03          	lw	x30,24(x2)
   10378:	01c12283          	lw	x5,28(x2)
   1037c:	00008537          	lui	x10,0x8
   10380:	f00810e3          	bne	x16,x0,10280 <__subtf3+0x7f0>
   10384:	00c7e733          	or	x14,x15,x12
   10388:	01efe6b3          	or	x13,x31,x30
   1038c:	00676733          	or	x14,x14,x6
   10390:	0056e6b3          	or	x13,x13,x5
   10394:	01c76733          	or	x14,x14,x28
   10398:	0116e6b3          	or	x13,x13,x17
   1039c:	68041c63          	bne	x8,x0,10a34 <__subtf3+0xfa4>
   103a0:	180682e3          	beq	x13,x0,10d24 <__subtf3+0x1294>
   103a4:	1e0714e3          	bne	x14,x0,10d8c <__subtf3+0x12fc>
   103a8:	03112823          	sw	x17,48(x2)
   103ac:	03f12a23          	sw	x31,52(x2)
   103b0:	03e12c23          	sw	x30,56(x2)
   103b4:	02512e23          	sw	x5,60(x2)
   103b8:	00028e13          	addi	x28,x5,0
   103bc:	03010793          	addi	x15,x2,48
   103c0:	e01ff06f          	jal	x0,101c0 <__subtf3+0x730>
   103c4:	00e6e4b3          	or	x9,x13,x14
   103c8:	0104e4b3          	or	x9,x9,x16
   103cc:	00a4e4b3          	or	x9,x9,x10
   103d0:	009034b3          	sltu	x9,x0,x9
   103d4:	009ef4b3          	and	x9,x29,x9
   103d8:	00050e13          	addi	x28,x10,0 # 8000 <__gdtoa+0x210>
   103dc:	003e5593          	srli	x11,x28,0x3
   103e0:	03010793          	addi	x15,x2,48
   103e4:	e0dff06f          	jal	x0,101f0 <__subtf3+0x760>
   103e8:	01d78533          	add	x10,x15,x29
   103ec:	00052503          	lw	x10,0(x10)
   103f0:	00168693          	addi	x13,x13,1
   103f4:	00478793          	addi	x15,x15,4 # 8004 <__gdtoa+0x214>
   103f8:	fea7ae23          	sw	x10,-4(x15)
   103fc:	fed756e3          	bge	x14,x13,103e8 <__subtf3+0x958>
   10400:	00400793          	addi	x15,x0,4
   10404:	41f787b3          	sub	x15,x15,x31
   10408:	00400713          	addi	x14,x0,4
   1040c:	02012503          	lw	x10,32(x2)
   10410:	02e78463          	beq	x15,x14,10438 <__subtf3+0x9a8>
   10414:	00400713          	addi	x14,x0,4
   10418:	40f70733          	sub	x14,x14,x15
   1041c:	00271713          	slli	x14,x14,0x2
   10420:	00279793          	slli	x15,x15,0x2
   10424:	00800693          	addi	x13,x0,8
   10428:	00f287b3          	add	x15,x5,x15
   1042c:	3ed77e63          	bgeu	x14,x13,10828 <__subtf3+0xd98>
   10430:	00400693          	addi	x13,x0,4
   10434:	40d77463          	bgeu	x14,x13,1083c <__subtf3+0xdac>
   10438:	00c03733          	sltu	x14,x0,x12
   1043c:	02412e83          	lw	x29,36(x2)
   10440:	02812603          	lw	x12,40(x2)
   10444:	02c12303          	lw	x6,44(x2)
   10448:	00a76733          	or	x14,x14,x10
   1044c:	fa4ff06f          	jal	x0,fbf0 <__subtf3+0x160>
   10450:	fff80893          	addi	x17,x16,-1
   10454:	00c837b3          	sltu	x15,x16,x12
   10458:	40c888b3          	sub	x17,x17,x12
   1045c:	41060633          	sub	x12,x12,x16
   10460:	00163613          	sltiu	x12,x12,1
   10464:	00c7e7b3          	or	x15,x15,x12
   10468:	fb8ff06f          	jal	x0,fc20 <__subtf3+0x190>
   1046c:	03112823          	sw	x17,48(x2)
   10470:	02b12a23          	sw	x11,52(x2)
   10474:	03012c23          	sw	x16,56(x2)
   10478:	03c12e23          	sw	x28,60(x2)
   1047c:	00068413          	addi	x8,x13,0
   10480:	03010793          	addi	x15,x2,48
   10484:	d3dff06f          	jal	x0,101c0 <__subtf3+0x730>
   10488:	00140593          	addi	x11,x8,1
   1048c:	01159f13          	slli	x30,x11,0x11
   10490:	012f5f13          	srli	x30,x30,0x12
   10494:	01412683          	lw	x13,20(x2)
   10498:	01812703          	lw	x14,24(x2)
   1049c:	01c12503          	lw	x10,28(x2)
   104a0:	00008837          	lui	x16,0x8
   104a4:	460f1863          	bne	x30,x0,10914 <__subtf3+0xe84>
   104a8:	00e6e5b3          	or	x11,x13,x14
   104ac:	00a5e5b3          	or	x11,x11,x10
   104b0:	0115e5b3          	or	x11,x11,x17
   104b4:	040418e3          	bne	x8,x0,10d04 <__subtf3+0x1274>
   104b8:	280588e3          	beq	x11,x0,10f48 <__subtf3+0x14b8>
   104bc:	00c7e5b3          	or	x11,x15,x12
   104c0:	0065e5b3          	or	x11,x11,x6
   104c4:	01c5e5b3          	or	x11,x11,x28
   104c8:	28059ce3          	bne	x11,x0,10f60 <__subtf3+0x14d0>
   104cc:	03112823          	sw	x17,48(x2)
   104d0:	02d12a23          	sw	x13,52(x2)
   104d4:	02e12c23          	sw	x14,56(x2)
   104d8:	02a12e23          	sw	x10,60(x2)
   104dc:	00050e13          	addi	x28,x10,0
   104e0:	03010793          	addi	x15,x2,48
   104e4:	cddff06f          	jal	x0,101c0 <__subtf3+0x730>
   104e8:	000086b7          	lui	x13,0x8
   104ec:	fff68693          	addi	x13,x13,-1 # 7fff <__gdtoa+0x20f>
   104f0:	14d502e3          	beq	x10,x13,10e34 <__subtf3+0x13a4>
   104f4:	01c12283          	lw	x5,28(x2)
   104f8:	00080837          	lui	x16,0x80
   104fc:	07400693          	addi	x13,x0,116
   10500:	0102e2b3          	or	x5,x5,x16
   10504:	00512e23          	sw	x5,28(x2)
   10508:	3e76d263          	bge	x13,x7,108ec <__subtf3+0xe5c>
   1050c:	00060893          	addi	x17,x12,0 # 80000 <__heap_start+0x6d130>
   10510:	00078e93          	addi	x29,x15,0
   10514:	00000813          	addi	x16,x0,0
   10518:	00000f13          	addi	x30,x0,0
   1051c:	00100713          	addi	x14,x0,1
   10520:	40e30733          	sub	x14,x6,x14
   10524:	00e336b3          	sltu	x13,x6,x14
   10528:	01d7bfb3          	sltu	x31,x15,x29
   1052c:	40de86b3          	sub	x13,x29,x13
   10530:	00e37463          	bgeu	x6,x14,10538 <__subtf3+0xaa8>
   10534:	6de78e63          	beq	x15,x30,10c10 <__subtf3+0x1180>
   10538:	01163333          	sltu	x6,x12,x17
   1053c:	41f888b3          	sub	x17,x17,x31
   10540:	6dd7ec63          	bltu	x15,x29,10c18 <__subtf3+0x1188>
   10544:	406e0e33          	sub	x28,x28,x6
   10548:	00050413          	addi	x8,x10,0
   1054c:	00058493          	addi	x9,x11,0
   10550:	ed8ff06f          	jal	x0,fc28 <__subtf3+0x198>
   10554:	414e8eb3          	sub	x29,x29,x20
   10558:	d60984e3          	beq	x19,x0,102c0 <__subtf3+0x830>
   1055c:	d59ff06f          	jal	x0,102b4 <__subtf3+0x824>
   10560:	03412503          	lw	x10,52(x2)
   10564:	36050063          	beq	x10,x0,108c4 <__subtf3+0xe34>
   10568:	214010ef          	jal	x1,1177c <__clzsi2>
   1056c:	03450613          	addi	x12,x10,52
   10570:	01f67893          	andi	x17,x12,31
   10574:	40565593          	srai	x11,x12,0x5
   10578:	ee088e63          	beq	x17,x0,fc74 <__subtf3+0x1e4>
   1057c:	05312623          	sw	x19,76(x2)
   10580:	03012983          	lw	x19,48(x2)
   10584:	02000e13          	addi	x28,x0,32
   10588:	411e0e33          	sub	x28,x28,x17
   1058c:	011999b3          	sll	x19,x19,x17
   10590:	0280006f          	jal	x0,105b8 <__subtf3+0xb28>
   10594:	05312623          	sw	x19,76(x2)
   10598:	1e4010ef          	jal	x1,1177c <__clzsi2>
   1059c:	ff450613          	addi	x12,x10,-12
   105a0:	00060893          	addi	x17,x12,0
   105a4:	03012983          	lw	x19,48(x2)
   105a8:	02000e13          	addi	x28,x0,32
   105ac:	40ce0e33          	sub	x28,x28,x12
   105b0:	00000593          	addi	x11,x0,0
   105b4:	011999b3          	sll	x19,x19,x17
   105b8:	40b00833          	sub	x16,x0,x11
   105bc:	00281813          	slli	x16,x16,0x2
   105c0:	00c80713          	addi	x14,x16,12 # 8000c <__heap_start+0x6d13c>
   105c4:	03010793          	addi	x15,x2,48
   105c8:	00e78733          	add	x14,x15,x14
   105cc:	41000833          	sub	x16,x0,x16
   105d0:	00072683          	lw	x13,0(x14)
   105d4:	ffc72503          	lw	x10,-4(x14)
   105d8:	01070333          	add	x6,x14,x16
   105dc:	011696b3          	sll	x13,x13,x17
   105e0:	01c55533          	srl	x10,x10,x28
   105e4:	00a6e6b3          	or	x13,x13,x10
   105e8:	00d32023          	sw	x13,0(x6)
   105ec:	ffc70713          	addi	x14,x14,-4
   105f0:	fee790e3          	bne	x15,x14,105d0 <__subtf3+0xb40>
   105f4:	00259693          	slli	x13,x11,0x2
   105f8:	04068713          	addi	x14,x13,64
   105fc:	002706b3          	add	x13,x14,x2
   10600:	ff36a823          	sw	x19,-16(x13)
   10604:	04c12983          	lw	x19,76(x2)
   10608:	fff58713          	addi	x14,x11,-1
   1060c:	fff00693          	addi	x13,x0,-1
   10610:	02d70a63          	beq	x14,x13,10644 <__subtf3+0xbb4>
   10614:	00170713          	addi	x14,x14,1
   10618:	00271713          	slli	x14,x14,0x2
   1061c:	00800593          	addi	x11,x0,8
   10620:	00078693          	addi	x13,x15,0
   10624:	00b76a63          	bltu	x14,x11,10638 <__subtf3+0xba8>
   10628:	02012823          	sw	x0,48(x2)
   1062c:	0007a223          	sw	x0,4(x15)
   10630:	03810693          	addi	x13,x2,56
   10634:	ff870713          	addi	x14,x14,-8
   10638:	00400593          	addi	x11,x0,4
   1063c:	00b76463          	bltu	x14,x11,10644 <__subtf3+0xbb4>
   10640:	0006a023          	sw	x0,0(x13)
   10644:	12864663          	blt	x12,x8,10770 <__subtf3+0xce0>
   10648:	408606b3          	sub	x13,x12,x8
   1064c:	00168693          	addi	x13,x13,1
   10650:	4056d313          	srai	x6,x13,0x5
   10654:	01f6f693          	andi	x13,x13,31
   10658:	040308e3          	beq	x6,x0,10ea8 <__subtf3+0x1418>
   1065c:	00231593          	slli	x11,x6,0x2
   10660:	00078613          	addi	x12,x15,0
   10664:	00f58833          	add	x16,x11,x15
   10668:	00000713          	addi	x14,x0,0
   1066c:	00062503          	lw	x10,0(x12)
   10670:	00460613          	addi	x12,x12,4
   10674:	00a76733          	or	x14,x14,x10
   10678:	fec81ae3          	bne	x16,x12,1066c <__subtf3+0xbdc>
   1067c:	00300513          	addi	x10,x0,3
   10680:	40650533          	sub	x10,x10,x6
   10684:	06068c63          	beq	x13,x0,106fc <__subtf3+0xc6c>
   10688:	04058613          	addi	x12,x11,64
   1068c:	00260633          	add	x12,x12,x2
   10690:	ff062603          	lw	x12,-16(x12)
   10694:	03c12e83          	lw	x29,60(x2)
   10698:	02000e13          	addi	x28,x0,32
   1069c:	40de0e33          	sub	x28,x28,x13
   106a0:	01c61633          	sll	x12,x12,x28
   106a4:	00c76733          	or	x14,x14,x12
   106a8:	00dedeb3          	srl	x29,x29,x13
   106ac:	7c050663          	beq	x10,x0,10e78 <__subtf3+0x13e8>
   106b0:	00251513          	slli	x10,x10,0x2
   106b4:	00b78633          	add	x12,x15,x11
   106b8:	00078813          	addi	x16,x15,0
   106bc:	00a78f33          	add	x30,x15,x10
   106c0:	00062583          	lw	x11,0(x12)
   106c4:	00462883          	lw	x17,4(x12)
   106c8:	00480813          	addi	x16,x16,4
   106cc:	00d5d5b3          	srl	x11,x11,x13
   106d0:	01c898b3          	sll	x17,x17,x28
   106d4:	0115e5b3          	or	x11,x11,x17
   106d8:	feb82e23          	sw	x11,-4(x16)
   106dc:	00460613          	addi	x12,x12,4
   106e0:	ff0f10e3          	bne	x30,x16,106c0 <__subtf3+0xc30>
   106e4:	04050693          	addi	x13,x10,64
   106e8:	00268533          	add	x10,x13,x2
   106ec:	00400693          	addi	x13,x0,4
   106f0:	406686b3          	sub	x13,x13,x6
   106f4:	ffd52823          	sw	x29,-16(x10)
   106f8:	0280006f          	jal	x0,10720 <__subtf3+0xc90>
   106fc:	00078613          	addi	x12,x15,0
   10700:	00b60833          	add	x16,x12,x11
   10704:	00082803          	lw	x16,0(x16)
   10708:	00168693          	addi	x13,x13,1
   1070c:	00460613          	addi	x12,x12,4
   10710:	ff062e23          	sw	x16,-4(x12)
   10714:	fed556e3          	bge	x10,x13,10700 <__subtf3+0xc70>
   10718:	00400693          	addi	x13,x0,4
   1071c:	406686b3          	sub	x13,x13,x6
   10720:	00400613          	addi	x12,x0,4
   10724:	03012e83          	lw	x29,48(x2)
   10728:	02c68463          	beq	x13,x12,10750 <__subtf3+0xcc0>
   1072c:	00400613          	addi	x12,x0,4
   10730:	40d60633          	sub	x12,x12,x13
   10734:	00261613          	slli	x12,x12,0x2
   10738:	00269693          	slli	x13,x13,0x2
   1073c:	00800593          	addi	x11,x0,8
   10740:	00d786b3          	add	x13,x15,x13
   10744:	04b67a63          	bgeu	x12,x11,10798 <__subtf3+0xd08>
   10748:	00400593          	addi	x11,x0,4
   1074c:	04b67263          	bgeu	x12,x11,10790 <__subtf3+0xd00>
   10750:	00e03733          	sltu	x14,x0,x14
   10754:	03c12e03          	lw	x28,60(x2)
   10758:	01d76733          	or	x14,x14,x29
   1075c:	02e12823          	sw	x14,48(x2)
   10760:	00000413          	addi	x8,x0,0
   10764:	00777693          	andi	x13,x14,7
   10768:	a0069ce3          	bne	x13,x0,10180 <__subtf3+0x6f0>
   1076c:	a55ff06f          	jal	x0,101c0 <__subtf3+0x730>
   10770:	03c12e03          	lw	x28,60(x2)
   10774:	fff806b7          	lui	x13,0xfff80
   10778:	fff68693          	addi	x13,x13,-1 # fff7ffff <__heap_end+0xffb7ffff>
   1077c:	00de7e33          	and	x28,x28,x13
   10780:	03012703          	lw	x14,48(x2)
   10784:	40c40433          	sub	x8,x8,x12
   10788:	03c12e23          	sw	x28,60(x2)
   1078c:	fd9ff06f          	jal	x0,10764 <__subtf3+0xcd4>
   10790:	0006a023          	sw	x0,0(x13)
   10794:	fbdff06f          	jal	x0,10750 <__subtf3+0xcc0>
   10798:	0006a023          	sw	x0,0(x13)
   1079c:	0006a223          	sw	x0,4(x13)
   107a0:	ff860613          	addi	x12,x12,-8
   107a4:	00868693          	addi	x13,x13,8
   107a8:	fa1ff06f          	jal	x0,10748 <__subtf3+0xcb8>
   107ac:	006785b3          	add	x11,x15,x6
   107b0:	0005a583          	lw	x11,0(x11)
   107b4:	00168693          	addi	x13,x13,1
   107b8:	00478793          	addi	x15,x15,4
   107bc:	feb7ae23          	sw	x11,-4(x15)
   107c0:	fed756e3          	bge	x14,x13,107ac <__subtf3+0xd1c>
   107c4:	00400793          	addi	x15,x0,4
   107c8:	41f787b3          	sub	x15,x15,x31
   107cc:	00400713          	addi	x14,x0,4
   107d0:	02012503          	lw	x10,32(x2)
   107d4:	02e78e63          	beq	x15,x14,10810 <__subtf3+0xd80>
   107d8:	00400713          	addi	x14,x0,4
   107dc:	40f70733          	sub	x14,x14,x15
   107e0:	00271713          	slli	x14,x14,0x2
   107e4:	00279793          	slli	x15,x15,0x2
   107e8:	00800693          	addi	x13,x0,8
   107ec:	00f287b3          	add	x15,x5,x15
   107f0:	00d76a63          	bltu	x14,x13,10804 <__subtf3+0xd74>
   107f4:	0007a023          	sw	x0,0(x15)
   107f8:	0007a223          	sw	x0,4(x15)
   107fc:	ff870713          	addi	x14,x14,-8
   10800:	00878793          	addi	x15,x15,8
   10804:	00400693          	addi	x13,x0,4
   10808:	00d76463          	bltu	x14,x13,10810 <__subtf3+0xd80>
   1080c:	0007a023          	sw	x0,0(x15)
   10810:	00c03733          	sltu	x14,x0,x12
   10814:	02412783          	lw	x15,36(x2)
   10818:	02812683          	lw	x13,40(x2)
   1081c:	02c12303          	lw	x6,44(x2)
   10820:	00a76733          	or	x14,x14,x10
   10824:	901ff06f          	jal	x0,10124 <__subtf3+0x694>
   10828:	0007a023          	sw	x0,0(x15)
   1082c:	0007a223          	sw	x0,4(x15)
   10830:	ff870713          	addi	x14,x14,-8
   10834:	00878793          	addi	x15,x15,8
   10838:	bf9ff06f          	jal	x0,10430 <__subtf3+0x9a0>
   1083c:	0007a023          	sw	x0,0(x15)
   10840:	bf9ff06f          	jal	x0,10438 <__subtf3+0x9a8>
   10844:	000086b7          	lui	x13,0x8
   10848:	fff68693          	addi	x13,x13,-1 # 7fff <__gdtoa+0x20f>
   1084c:	0ad500e3          	beq	x10,x13,110ec <__subtf3+0x165c>
   10850:	01c12283          	lw	x5,28(x2)
   10854:	000805b7          	lui	x11,0x80
   10858:	07400693          	addi	x13,x0,116
   1085c:	00b2e2b3          	or	x5,x5,x11
   10860:	00512e23          	sw	x5,28(x2)
   10864:	6106de63          	bge	x13,x16,10e80 <__subtf3+0x13f0>
   10868:	00060593          	addi	x11,x12,0
   1086c:	00078693          	addi	x13,x15,0
   10870:	00100713          	addi	x14,x0,1
   10874:	00e30733          	add	x14,x6,x14
   10878:	00673333          	sltu	x6,x14,x6
   1087c:	00d30833          	add	x16,x6,x13
   10880:	00683333          	sltu	x6,x16,x6
   10884:	00f6b6b3          	sltu	x13,x13,x15
   10888:	0066e6b3          	or	x13,x13,x6
   1088c:	00b687b3          	add	x15,x13,x11
   10890:	00d7b6b3          	sltu	x13,x15,x13
   10894:	00c5b5b3          	sltu	x11,x11,x12
   10898:	00d5e6b3          	or	x13,x11,x13
   1089c:	00de0e33          	add	x28,x28,x13
   108a0:	00050413          	addi	x8,x10,0
   108a4:	8b9ff06f          	jal	x0,1015c <__subtf3+0x6cc>
   108a8:	05312623          	sw	x19,76(x2)
   108ac:	03012983          	lw	x19,48(x2)
   108b0:	02000e13          	addi	x28,x0,32
   108b4:	40565593          	srai	x11,x12,0x5
   108b8:	411e0e33          	sub	x28,x28,x17
   108bc:	011999b3          	sll	x19,x19,x17
   108c0:	cf9ff06f          	jal	x0,105b8 <__subtf3+0xb28>
   108c4:	05312623          	sw	x19,76(x2)
   108c8:	03012983          	lw	x19,48(x2)
   108cc:	00098513          	addi	x10,x19,0
   108d0:	6ad000ef          	jal	x1,1177c <__clzsi2>
   108d4:	05450613          	addi	x12,x10,84
   108d8:	01f67893          	andi	x17,x12,31
   108dc:	56089e63          	bne	x17,x0,10e58 <__subtf3+0x13c8>
   108e0:	04c12983          	lw	x19,76(x2)
   108e4:	40565593          	srai	x11,x12,0x5
   108e8:	b8cff06f          	jal	x0,fc74 <__subtf3+0x1e4>
   108ec:	41f3d813          	srai	x16,x7,0x1f
   108f0:	01f87813          	andi	x16,x16,31
   108f4:	00780833          	add	x16,x16,x7
   108f8:	01f00693          	addi	x13,x0,31
   108fc:	40585813          	srai	x16,x16,0x5
   10900:	d276ca63          	blt	x13,x7,fe34 <__subtf3+0x3a4>
   10904:	00080413          	addi	x8,x16,0
   10908:	00000693          	addi	x13,x0,0
   1090c:	00000813          	addi	x16,x0,0
   10910:	d48ff06f          	jal	x0,fe58 <__subtf3+0x3c8>
   10914:	00688333          	add	x6,x17,x6
   10918:	00d786b3          	add	x13,x15,x13
   1091c:	01133833          	sltu	x16,x6,x17
   10920:	01068833          	add	x16,x13,x16
   10924:	00f6b7b3          	sltu	x15,x13,x15
   10928:	00d836b3          	sltu	x13,x16,x13
   1092c:	00e60733          	add	x14,x12,x14
   10930:	00d7e6b3          	or	x13,x15,x13
   10934:	00d706b3          	add	x13,x14,x13
   10938:	00c73633          	sltu	x12,x14,x12
   1093c:	00e6b733          	sltu	x14,x13,x14
   10940:	00e66633          	or	x12,x12,x14
   10944:	00ae0533          	add	x10,x28,x10
   10948:	00a60633          	add	x12,x12,x10
   1094c:	03010793          	addi	x15,x2,48
   10950:	03012a23          	sw	x16,52(x2)
   10954:	02612823          	sw	x6,48(x2)
   10958:	02d12c23          	sw	x13,56(x2)
   1095c:	02c12e23          	sw	x12,60(x2)
   10960:	00078713          	addi	x14,x15,0
   10964:	03c10813          	addi	x16,x2,60
   10968:	00135513          	srli	x10,x6,0x1
   1096c:	00472303          	lw	x6,4(x14)
   10970:	00470713          	addi	x14,x14,4
   10974:	01f31693          	slli	x13,x6,0x1f
   10978:	00a6e6b3          	or	x13,x13,x10
   1097c:	fed72e23          	sw	x13,-4(x14)
   10980:	fee814e3          	bne	x16,x14,10968 <__subtf3+0xed8>
   10984:	00165e13          	srli	x28,x12,0x1
   10988:	00008737          	lui	x14,0x8
   1098c:	03c12e23          	sw	x28,60(x2)
   10990:	fff70713          	addi	x14,x14,-1 # 7fff <__gdtoa+0x20f>
   10994:	1ce58863          	beq	x11,x14,10b64 <__subtf3+0x10d4>
   10998:	03012703          	lw	x14,48(x2)
   1099c:	00058413          	addi	x8,x11,0 # 80000 <__heap_start+0x6d130>
   109a0:	dc5ff06f          	jal	x0,10764 <__subtf3+0xcd4>
   109a4:	41130833          	sub	x16,x6,x17
   109a8:	41f78733          	sub	x14,x15,x31
   109ac:	01033533          	sltu	x10,x6,x16
   109b0:	00e7b8b3          	sltu	x17,x15,x14
   109b4:	41e60f33          	sub	x30,x12,x30
   109b8:	40a70733          	sub	x14,x14,x10
   109bc:	00088693          	addi	x13,x17,0
   109c0:	01e63533          	sltu	x10,x12,x30
   109c4:	01037463          	bgeu	x6,x16,109cc <__subtf3+0xf3c>
   109c8:	57f78863          	beq	x15,x31,10f38 <__subtf3+0x14a8>
   109cc:	40df07b3          	sub	x15,x30,x13
   109d0:	56089663          	bne	x17,x0,10f3c <__subtf3+0x14ac>
   109d4:	405e02b3          	sub	x5,x28,x5
   109d8:	40a28533          	sub	x10,x5,x10
   109dc:	02a12e23          	sw	x10,60(x2)
   109e0:	02f12c23          	sw	x15,56(x2)
   109e4:	02e12a23          	sw	x14,52(x2)
   109e8:	03012823          	sw	x16,48(x2)
   109ec:	00058493          	addi	x9,x11,0
   109f0:	040500e3          	beq	x10,x0,11230 <__subtf3+0x17a0>
   109f4:	589000ef          	jal	x1,1177c <__clzsi2>
   109f8:	ff450793          	addi	x15,x10,-12
   109fc:	01f7f613          	andi	x12,x15,31
   10a00:	00000593          	addi	x11,x0,0
   10a04:	00061ee3          	bne	x12,x0,11220 <__subtf3+0x1790>
   10a08:	04c12983          	lw	x19,76(x2)
   10a0c:	04812a03          	lw	x20,72(x2)
   10a10:	a64ff06f          	jal	x0,fc74 <__subtf3+0x1e4>
   10a14:	02f12a23          	sw	x15,52(x2)
   10a18:	02612823          	sw	x6,48(x2)
   10a1c:	02c12c23          	sw	x12,56(x2)
   10a20:	03c12e23          	sw	x28,60(x2)
   10a24:	00038413          	addi	x8,x7,0
   10a28:	00058493          	addi	x9,x11,0
   10a2c:	03010793          	addi	x15,x2,48
   10a30:	f90ff06f          	jal	x0,101c0 <__subtf3+0x730>
   10a34:	4e069063          	bne	x13,x0,10f14 <__subtf3+0x1484>
   10a38:	72071863          	bne	x14,x0,11168 <__subtf3+0x16d8>
   10a3c:	02a12e23          	sw	x10,60(x2)
   10a40:	02012c23          	sw	x0,56(x2)
   10a44:	02012a23          	sw	x0,52(x2)
   10a48:	02012823          	sw	x0,48(x2)
   10a4c:	03010793          	addi	x15,x2,48
   10a50:	03c10713          	addi	x14,x2,60
   10a54:	00008637          	lui	x12,0x8
   10a58:	00361593          	slli	x11,x12,0x3
   10a5c:	ffc72603          	lw	x12,-4(x14)
   10a60:	ffc70713          	addi	x14,x14,-4
   10a64:	01d65693          	srli	x13,x12,0x1d
   10a68:	00b6e6b3          	or	x13,x13,x11
   10a6c:	00d72223          	sw	x13,4(x14)
   10a70:	fee794e3          	bne	x15,x14,10a58 <__subtf3+0xfc8>
   10a74:	03c12e03          	lw	x28,60(x2)
   10a78:	00080737          	lui	x14,0x80
   10a7c:	00000493          	addi	x9,x0,0
   10a80:	00ee7733          	and	x14,x28,x14
   10a84:	00008437          	lui	x8,0x8
   10a88:	f4071a63          	bne	x14,x0,101dc <__subtf3+0x74c>
   10a8c:	fff40413          	addi	x8,x8,-1 # 7fff <__gdtoa+0x20f>
   10a90:	003e5593          	srli	x11,x28,0x3
   10a94:	f5cff06f          	jal	x0,101f0 <__subtf3+0x760>
   10a98:	00688733          	add	x14,x17,x6
   10a9c:	010586b3          	add	x13,x11,x16
   10aa0:	01173833          	sltu	x16,x14,x17
   10aa4:	01068833          	add	x16,x13,x16
   10aa8:	00b6b7b3          	sltu	x15,x13,x11
   10aac:	00d836b3          	sltu	x13,x16,x13
   10ab0:	01ef8633          	add	x12,x31,x30
   10ab4:	00d7e7b3          	or	x15,x15,x13
   10ab8:	00f607b3          	add	x15,x12,x15
   10abc:	01f636b3          	sltu	x13,x12,x31
   10ac0:	00c7b633          	sltu	x12,x15,x12
   10ac4:	00c6e6b3          	or	x13,x13,x12
   10ac8:	01c50533          	add	x10,x10,x28
   10acc:	00a68e33          	add	x28,x13,x10
   10ad0:	00100413          	addi	x8,x0,1
   10ad4:	e88ff06f          	jal	x0,1015c <__subtf3+0x6cc>
   10ad8:	02012703          	lw	x14,32(x2)
   10adc:	05312623          	sw	x19,76(x2)
   10ae0:	02000993          	addi	x19,x0,32
   10ae4:	40d989b3          	sub	x19,x19,x13
   10ae8:	01371633          	sll	x12,x14,x19
   10aec:	05412423          	sw	x20,72(x2)
   10af0:	00d55533          	srl	x10,x10,x13
   10af4:	00300713          	addi	x14,x0,3
   10af8:	00000313          	addi	x6,x0,0
   10afc:	a60ff06f          	jal	x0,fd5c <__subtf3+0x2cc>
   10b00:	fff80537          	lui	x10,0xfff80
   10b04:	fff50513          	addi	x10,x10,-1 # fff7ffff <__heap_end+0xffb7ffff>
   10b08:	00ae7533          	and	x10,x28,x10
   10b0c:	03010793          	addi	x15,x2,48
   10b10:	02a12e23          	sw	x10,60(x2)
   10b14:	00140413          	addi	x8,x8,1
   10b18:	01f71813          	slli	x16,x14,0x1f
   10b1c:	00078693          	addi	x13,x15,0
   10b20:	03c10893          	addi	x17,x2,60
   10b24:	00175593          	srli	x11,x14,0x1
   10b28:	0046a703          	lw	x14,4(x13)
   10b2c:	00468693          	addi	x13,x13,4
   10b30:	01f71613          	slli	x12,x14,0x1f
   10b34:	00b66633          	or	x12,x12,x11
   10b38:	fec6ae23          	sw	x12,-4(x13)
   10b3c:	ff1694e3          	bne	x13,x17,10b24 <__subtf3+0x1094>
   10b40:	03012703          	lw	x14,48(x2)
   10b44:	01f85693          	srli	x13,x16,0x1f
   10b48:	00155e13          	srli	x28,x10,0x1
   10b4c:	00e6e733          	or	x14,x13,x14
   10b50:	000086b7          	lui	x13,0x8
   10b54:	03c12e23          	sw	x28,60(x2)
   10b58:	02e12823          	sw	x14,48(x2)
   10b5c:	fff68693          	addi	x13,x13,-1 # 7fff <__gdtoa+0x20f>
   10b60:	c0d412e3          	bne	x8,x13,10764 <__subtf3+0xcd4>
   10b64:	00008437          	lui	x8,0x8
   10b68:	02012e23          	sw	x0,60(x2)
   10b6c:	02012c23          	sw	x0,56(x2)
   10b70:	02012a23          	sw	x0,52(x2)
   10b74:	02012823          	sw	x0,48(x2)
   10b78:	000e8693          	addi	x13,x29,0
   10b7c:	fff40413          	addi	x8,x8,-1 # 7fff <__gdtoa+0x20f>
   10b80:	f80ff06f          	jal	x0,10300 <__subtf3+0x870>
   10b84:	03112823          	sw	x17,48(x2)
   10b88:	03012a23          	sw	x16,52(x2)
   10b8c:	03e12c23          	sw	x30,56(x2)
   10b90:	03c12e23          	sw	x28,60(x2)
   10b94:	00068413          	addi	x8,x13,0
   10b98:	03010793          	addi	x15,x2,48
   10b9c:	e24ff06f          	jal	x0,101c0 <__subtf3+0x730>
   10ba0:	02412783          	lw	x15,36(x2)
   10ba4:	02812603          	lw	x12,40(x2)
   10ba8:	02c12e03          	lw	x28,44(x2)
   10bac:	a30ff06f          	jal	x0,fddc <__subtf3+0x34c>
   10bb0:	41e587b3          	sub	x15,x11,x30
   10bb4:	40688733          	sub	x14,x17,x6
   10bb8:	00e8b6b3          	sltu	x13,x17,x14
   10bbc:	00f5b333          	sltu	x6,x11,x15
   10bc0:	40d786b3          	sub	x13,x15,x13
   10bc4:	00030f93          	addi	x31,x6,0
   10bc8:	41d807b3          	sub	x15,x16,x29
   10bcc:	01d83633          	sltu	x12,x16,x29
   10bd0:	00e8f663          	bgeu	x17,x14,10bdc <__subtf3+0x114c>
   10bd4:	fff78893          	addi	x17,x15,-1
   10bd8:	06bf0063          	beq	x30,x11,10c38 <__subtf3+0x11a8>
   10bdc:	41f788b3          	sub	x17,x15,x31
   10be0:	00060793          	addi	x15,x12,0 # 8000 <__gdtoa+0x210>
   10be4:	04031a63          	bne	x6,x0,10c38 <__subtf3+0x11a8>
   10be8:	40ae0533          	sub	x10,x28,x10
   10bec:	40f50e33          	sub	x28,x10,x15
   10bf0:	00100413          	addi	x8,x0,1
   10bf4:	834ff06f          	jal	x0,fc28 <__subtf3+0x198>
   10bf8:	03112823          	sw	x17,48(x2)
   10bfc:	02b12a23          	sw	x11,52(x2)
   10c00:	03012c23          	sw	x16,56(x2)
   10c04:	03c12e23          	sw	x28,60(x2)
   10c08:	03010793          	addi	x15,x2,48
   10c0c:	db4ff06f          	jal	x0,101c0 <__subtf3+0x730>
   10c10:	01163333          	sltu	x6,x12,x17
   10c14:	fff88893          	addi	x17,x17,-1
   10c18:	410607b3          	sub	x15,x12,x16
   10c1c:	0017b793          	sltiu	x15,x15,1
   10c20:	00f36333          	or	x6,x6,x15
   10c24:	921ff06f          	jal	x0,10544 <__subtf3+0xab4>
   10c28:	02412783          	lw	x15,36(x2)
   10c2c:	02812603          	lw	x12,40(x2)
   10c30:	02c12e03          	lw	x28,44(x2)
   10c34:	ba8ff06f          	jal	x0,ffdc <__subtf3+0x54c>
   10c38:	410e87b3          	sub	x15,x29,x16
   10c3c:	0017b793          	sltiu	x15,x15,1
   10c40:	00f667b3          	or	x15,x12,x15
   10c44:	fa5ff06f          	jal	x0,10be8 <__subtf3+0x1158>
   10c48:	03112823          	sw	x17,48(x2)
   10c4c:	03012a23          	sw	x16,52(x2)
   10c50:	03e12c23          	sw	x30,56(x2)
   10c54:	03c12e23          	sw	x28,60(x2)
   10c58:	03010793          	addi	x15,x2,48
   10c5c:	d64ff06f          	jal	x0,101c0 <__subtf3+0x730>
   10c60:	000e8393          	addi	x7,x29,0
   10c64:	00000813          	addi	x16,x0,0
   10c68:	00300493          	addi	x9,x0,3
   10c6c:	00000693          	addi	x13,x0,0
   10c70:	41f3d893          	srai	x17,x7,0x1f
   10c74:	00281713          	slli	x14,x16,0x2
   10c78:	01b8d893          	srli	x17,x17,0x1b
   10c7c:	04070713          	addi	x14,x14,64 # 80040 <__heap_start+0x6d170>
   10c80:	01138833          	add	x16,x7,x17
   10c84:	00270733          	add	x14,x14,x2
   10c88:	fd072703          	lw	x14,-48(x14)
   10c8c:	01f87813          	andi	x16,x16,31
   10c90:	410888b3          	sub	x17,x17,x16
   10c94:	02088393          	addi	x7,x17,32
   10c98:	00771733          	sll	x14,x14,x7
   10c9c:	00e6e6b3          	or	x13,x13,x14
   10ca0:	54048663          	beq	x9,x0,111ec <__subtf3+0x175c>
   10ca4:	05312623          	sw	x19,76(x2)
   10ca8:	00241993          	slli	x19,x8,0x2
   10cac:	013f0733          	add	x14,x30,x19
   10cb0:	008f8f93          	addi	x31,x31,8
   10cb4:	413009b3          	sub	x19,x0,x19
   10cb8:	00072803          	lw	x16,0(x14)
   10cbc:	00472883          	lw	x17,4(x14)
   10cc0:	013702b3          	add	x5,x14,x19
   10cc4:	01d85833          	srl	x16,x16,x29
   10cc8:	007898b3          	sll	x17,x17,x7
   10ccc:	01186833          	or	x16,x16,x17
   10cd0:	0102a023          	sw	x16,0(x5)
   10cd4:	00470713          	addi	x14,x14,4
   10cd8:	feef90e3          	bne	x31,x14,10cb8 <__subtf3+0x1228>
   10cdc:	01c12883          	lw	x17,28(x2)
   10ce0:	00249813          	slli	x16,x9,0x2
   10ce4:	04080713          	addi	x14,x16,64
   10ce8:	00270833          	add	x16,x14,x2
   10cec:	01d8d8b3          	srl	x17,x17,x29
   10cf0:	00400713          	addi	x14,x0,4
   10cf4:	04c12983          	lw	x19,76(x2)
   10cf8:	40870733          	sub	x14,x14,x8
   10cfc:	fd182823          	sw	x17,-48(x16)
   10d00:	98cff06f          	jal	x0,fe8c <__subtf3+0x3fc>
   10d04:	30059463          	bne	x11,x0,1100c <__subtf3+0x157c>
   10d08:	02f12a23          	sw	x15,52(x2)
   10d0c:	02612823          	sw	x6,48(x2)
   10d10:	02c12c23          	sw	x12,56(x2)
   10d14:	03c12e23          	sw	x28,60(x2)
   10d18:	fff80413          	addi	x8,x16,-1
   10d1c:	03010793          	addi	x15,x2,48
   10d20:	ca0ff06f          	jal	x0,101c0 <__subtf3+0x730>
   10d24:	00e03733          	sltu	x14,x0,x14
   10d28:	02f12a23          	sw	x15,52(x2)
   10d2c:	02612823          	sw	x6,48(x2)
   10d30:	02c12c23          	sw	x12,56(x2)
   10d34:	03c12e23          	sw	x28,60(x2)
   10d38:	00b774b3          	and	x9,x14,x11
   10d3c:	03010793          	addi	x15,x2,48
   10d40:	c80ff06f          	jal	x0,101c0 <__subtf3+0x730>
   10d44:	41130733          	sub	x14,x6,x17
   10d48:	410786b3          	sub	x13,x15,x16
   10d4c:	00e33533          	sltu	x10,x6,x14
   10d50:	00d7beb3          	sltu	x29,x15,x13
   10d54:	409608b3          	sub	x17,x12,x9
   10d58:	40a686b3          	sub	x13,x13,x10
   10d5c:	000e8f13          	addi	x30,x29,0
   10d60:	01163533          	sltu	x10,x12,x17
   10d64:	00e37463          	bgeu	x6,x14,10d6c <__subtf3+0x12dc>
   10d68:	36f80863          	beq	x16,x15,110d8 <__subtf3+0x1648>
   10d6c:	41e888b3          	sub	x17,x17,x30
   10d70:	00050793          	addi	x15,x10,0
   10d74:	360e9463          	bne	x29,x0,110dc <__subtf3+0x164c>
   10d78:	405e02b3          	sub	x5,x28,x5
   10d7c:	40f28e33          	sub	x28,x5,x15
   10d80:	00058493          	addi	x9,x11,0
   10d84:	00100413          	addi	x8,x0,1
   10d88:	ea1fe06f          	jal	x0,fc28 <__subtf3+0x198>
   10d8c:	40ff8733          	sub	x14,x31,x15
   10d90:	406886b3          	sub	x13,x17,x6
   10d94:	00d8b833          	sltu	x16,x17,x13
   10d98:	00efb533          	sltu	x10,x31,x14
   10d9c:	00050493          	addi	x9,x10,0
   10da0:	41070733          	sub	x14,x14,x16
   10da4:	00cf33b3          	sltu	x7,x30,x12
   10da8:	40cf0833          	sub	x16,x30,x12
   10dac:	00d8f463          	bgeu	x17,x13,10db4 <__subtf3+0x1324>
   10db0:	35f78e63          	beq	x15,x31,1110c <__subtf3+0x167c>
   10db4:	40980833          	sub	x16,x16,x9
   10db8:	34051c63          	bne	x10,x0,11110 <__subtf3+0x1680>
   10dbc:	41c28533          	sub	x10,x5,x28
   10dc0:	40750533          	sub	x10,x10,x7
   10dc4:	02a12e23          	sw	x10,60(x2)
   10dc8:	03012c23          	sw	x16,56(x2)
   10dcc:	02e12a23          	sw	x14,52(x2)
   10dd0:	02d12823          	sw	x13,48(x2)
   10dd4:	00c51393          	slli	x7,x10,0xc
   10dd8:	de03d663          	bge	x7,x0,103c4 <__subtf3+0x934>
   10ddc:	41f78733          	sub	x14,x15,x31
   10de0:	41130833          	sub	x16,x6,x17
   10de4:	00e7b533          	sltu	x10,x15,x14
   10de8:	010338b3          	sltu	x17,x6,x16
   10dec:	41e60f33          	sub	x30,x12,x30
   10df0:	00050693          	addi	x13,x10,0
   10df4:	41170733          	sub	x14,x14,x17
   10df8:	01e63633          	sltu	x12,x12,x30
   10dfc:	01037463          	bgeu	x6,x16,10e04 <__subtf3+0x1374>
   10e00:	3df78663          	beq	x15,x31,111cc <__subtf3+0x173c>
   10e04:	40df06b3          	sub	x13,x30,x13
   10e08:	00060793          	addi	x15,x12,0
   10e0c:	3c051263          	bne	x10,x0,111d0 <__subtf3+0x1740>
   10e10:	405e02b3          	sub	x5,x28,x5
   10e14:	40f28e33          	sub	x28,x5,x15
   10e18:	03c12e23          	sw	x28,60(x2)
   10e1c:	02d12c23          	sw	x13,56(x2)
   10e20:	02e12a23          	sw	x14,52(x2)
   10e24:	03012823          	sw	x16,48(x2)
   10e28:	00058493          	addi	x9,x11,0
   10e2c:	03010793          	addi	x15,x2,48
   10e30:	b90ff06f          	jal	x0,101c0 <__subtf3+0x730>
   10e34:	00008437          	lui	x8,0x8
   10e38:	02f12a23          	sw	x15,52(x2)
   10e3c:	02612823          	sw	x6,48(x2)
   10e40:	02c12c23          	sw	x12,56(x2)
   10e44:	03c12e23          	sw	x28,60(x2)
   10e48:	00058493          	addi	x9,x11,0
   10e4c:	fff40413          	addi	x8,x8,-1 # 7fff <__gdtoa+0x20f>
   10e50:	03010793          	addi	x15,x2,48
   10e54:	b6cff06f          	jal	x0,101c0 <__subtf3+0x730>
   10e58:	05f00793          	addi	x15,x0,95
   10e5c:	011999b3          	sll	x19,x19,x17
   10e60:	36c7de63          	bge	x15,x12,111dc <__subtf3+0x174c>
   10e64:	03312e23          	sw	x19,60(x2)
   10e68:	00200713          	addi	x14,x0,2
   10e6c:	04c12983          	lw	x19,76(x2)
   10e70:	03010793          	addi	x15,x2,48
   10e74:	fa0ff06f          	jal	x0,10614 <__subtf3+0xb84>
   10e78:	00100693          	addi	x13,x0,1
   10e7c:	8b1ff06f          	jal	x0,1072c <__subtf3+0xc9c>
   10e80:	41f85893          	srai	x17,x16,0x1f
   10e84:	01f8f893          	andi	x17,x17,31
   10e88:	010888b3          	add	x17,x17,x16
   10e8c:	01f00693          	addi	x13,x0,31
   10e90:	4058d893          	srai	x17,x17,0x5
   10e94:	9b06c263          	blt	x13,x16,10038 <__subtf3+0x5a8>
   10e98:	00088413          	addi	x8,x17,0
   10e9c:	00000693          	addi	x13,x0,0
   10ea0:	00000893          	addi	x17,x0,0
   10ea4:	9b8ff06f          	jal	x0,1005c <__subtf3+0x5cc>
   10ea8:	03012703          	lw	x14,48(x2)
   10eac:	03c12e83          	lw	x29,60(x2)
   10eb0:	02000e13          	addi	x28,x0,32
   10eb4:	40de0e33          	sub	x28,x28,x13
   10eb8:	01c71733          	sll	x14,x14,x28
   10ebc:	00dedeb3          	srl	x29,x29,x13
   10ec0:	00300513          	addi	x10,x0,3
   10ec4:	00000593          	addi	x11,x0,0
   10ec8:	fe8ff06f          	jal	x0,106b0 <__subtf3+0xc20>
   10ecc:	00100793          	addi	x15,x0,1
   10ed0:	d44ff06f          	jal	x0,10414 <__subtf3+0x984>
   10ed4:	02012703          	lw	x14,32(x2)
   10ed8:	02000393          	addi	x7,x0,32
   10edc:	40d383b3          	sub	x7,x7,x13
   10ee0:	00771633          	sll	x12,x14,x7
   10ee4:	05312623          	sw	x19,76(x2)
   10ee8:	00d55533          	srl	x10,x10,x13
   10eec:	00300713          	addi	x14,x0,3
   10ef0:	00000e93          	addi	x29,x0,0
   10ef4:	894ff06f          	jal	x0,ff88 <__subtf3+0x4f8>
   10ef8:	02f12a23          	sw	x15,52(x2)
   10efc:	02612823          	sw	x6,48(x2)
   10f00:	02c12c23          	sw	x12,56(x2)
   10f04:	03c12e23          	sw	x28,60(x2)
   10f08:	00080413          	addi	x8,x16,0
   10f0c:	03010793          	addi	x15,x2,48
   10f10:	ab0ff06f          	jal	x0,101c0 <__subtf3+0x730>
   10f14:	20071c63          	bne	x14,x0,1112c <__subtf3+0x169c>
   10f18:	03112823          	sw	x17,48(x2)
   10f1c:	03f12a23          	sw	x31,52(x2)
   10f20:	03e12c23          	sw	x30,56(x2)
   10f24:	02512e23          	sw	x5,60(x2)
   10f28:	00028e13          	addi	x28,x5,0
   10f2c:	fff50413          	addi	x8,x10,-1
   10f30:	03010793          	addi	x15,x2,48
   10f34:	a8cff06f          	jal	x0,101c0 <__subtf3+0x730>
   10f38:	ffff0793          	addi	x15,x30,-1
   10f3c:	001f3f13          	sltiu	x30,x30,1
   10f40:	01e56533          	or	x10,x10,x30
   10f44:	a91ff06f          	jal	x0,109d4 <__subtf3+0xf44>
   10f48:	02f12a23          	sw	x15,52(x2)
   10f4c:	02612823          	sw	x6,48(x2)
   10f50:	02c12c23          	sw	x12,56(x2)
   10f54:	03c12e23          	sw	x28,60(x2)
   10f58:	03010793          	addi	x15,x2,48
   10f5c:	a64ff06f          	jal	x0,101c0 <__subtf3+0x730>
   10f60:	00688333          	add	x6,x17,x6
   10f64:	00d786b3          	add	x13,x15,x13
   10f68:	011335b3          	sltu	x11,x6,x17
   10f6c:	00b685b3          	add	x11,x13,x11
   10f70:	00f6b7b3          	sltu	x15,x13,x15
   10f74:	00d5b6b3          	sltu	x13,x11,x13
   10f78:	00e60733          	add	x14,x12,x14
   10f7c:	00d7e7b3          	or	x15,x15,x13
   10f80:	00f707b3          	add	x15,x14,x15
   10f84:	00c73633          	sltu	x12,x14,x12
   10f88:	00e7b733          	sltu	x14,x15,x14
   10f8c:	00e66733          	or	x14,x12,x14
   10f90:	00ae0533          	add	x10,x28,x10
   10f94:	00a70e33          	add	x28,x14,x10
   10f98:	02f12c23          	sw	x15,56(x2)
   10f9c:	02612823          	sw	x6,48(x2)
   10fa0:	02b12a23          	sw	x11,52(x2)
   10fa4:	00ce1793          	slli	x15,x28,0xc
   10fa8:	1e07d063          	bge	x15,x0,11188 <__subtf3+0x16f8>
   10fac:	fff807b7          	lui	x15,0xfff80
   10fb0:	fff78793          	addi	x15,x15,-1 # fff7ffff <__heap_end+0xffb7ffff>
   10fb4:	00fe7e33          	and	x28,x28,x15
   10fb8:	03c12e23          	sw	x28,60(x2)
   10fbc:	00100413          	addi	x8,x0,1
   10fc0:	03010793          	addi	x15,x2,48
   10fc4:	003e5593          	srli	x11,x28,0x3
   10fc8:	a28ff06f          	jal	x0,101f0 <__subtf3+0x760>
   10fcc:	00688733          	add	x14,x17,x6
   10fd0:	00f685b3          	add	x11,x13,x15
   10fd4:	01173833          	sltu	x16,x14,x17
   10fd8:	01058833          	add	x16,x11,x16
   10fdc:	00d5b7b3          	sltu	x15,x11,x13
   10fe0:	00b835b3          	sltu	x11,x16,x11
   10fe4:	00c38633          	add	x12,x7,x12
   10fe8:	00b7e7b3          	or	x15,x15,x11
   10fec:	00f607b3          	add	x15,x12,x15
   10ff0:	007636b3          	sltu	x13,x12,x7
   10ff4:	00c7b633          	sltu	x12,x15,x12
   10ff8:	00c6e6b3          	or	x13,x13,x12
   10ffc:	01c282b3          	add	x5,x5,x28
   11000:	00568e33          	add	x28,x13,x5
   11004:	00100413          	addi	x8,x0,1
   11008:	954ff06f          	jal	x0,1015c <__subtf3+0x6cc>
   1100c:	00c7e7b3          	or	x15,x15,x12
   11010:	0067e7b3          	or	x15,x15,x6
   11014:	01c7e7b3          	or	x15,x15,x28
   11018:	16079c63          	bne	x15,x0,11190 <__subtf3+0x1700>
   1101c:	03112823          	sw	x17,48(x2)
   11020:	02d12a23          	sw	x13,52(x2)
   11024:	02e12c23          	sw	x14,56(x2)
   11028:	02a12e23          	sw	x10,60(x2)
   1102c:	00050e13          	addi	x28,x10,0
   11030:	fff80413          	addi	x8,x16,-1
   11034:	03010793          	addi	x15,x2,48
   11038:	988ff06f          	jal	x0,101c0 <__subtf3+0x730>
   1103c:	05312623          	sw	x19,76(x2)
   11040:	41f85993          	srai	x19,x16,0x1f
   11044:	00289713          	slli	x14,x17,0x2
   11048:	01b9d993          	srli	x19,x19,0x1b
   1104c:	04070713          	addi	x14,x14,64
   11050:	01380833          	add	x16,x16,x19
   11054:	00270733          	add	x14,x14,x2
   11058:	fd072703          	lw	x14,-48(x14)
   1105c:	01f87813          	andi	x16,x16,31
   11060:	410989b3          	sub	x19,x19,x16
   11064:	02098993          	addi	x19,x19,32
   11068:	01371733          	sll	x14,x14,x19
   1106c:	00e6e6b3          	or	x13,x13,x14
   11070:	18038463          	beq	x7,x0,111f8 <__subtf3+0x1768>
   11074:	05412423          	sw	x20,72(x2)
   11078:	00241a13          	slli	x20,x8,0x2
   1107c:	014f0733          	add	x14,x30,x20
   11080:	008f8f93          	addi	x31,x31,8
   11084:	41400a33          	sub	x20,x0,x20
   11088:	00072803          	lw	x16,0(x14)
   1108c:	00472883          	lw	x17,4(x14)
   11090:	014702b3          	add	x5,x14,x20
   11094:	00b85833          	srl	x16,x16,x11
   11098:	013898b3          	sll	x17,x17,x19
   1109c:	01186833          	or	x16,x16,x17
   110a0:	0102a023          	sw	x16,0(x5)
   110a4:	00470713          	addi	x14,x14,4
   110a8:	feef90e3          	bne	x31,x14,11088 <__subtf3+0x15f8>
   110ac:	00239813          	slli	x16,x7,0x2
   110b0:	04080713          	addi	x14,x16,64
   110b4:	00270833          	add	x16,x14,x2
   110b8:	01c12703          	lw	x14,28(x2)
   110bc:	04c12983          	lw	x19,76(x2)
   110c0:	04812a03          	lw	x20,72(x2)
   110c4:	00b755b3          	srl	x11,x14,x11
   110c8:	00400713          	addi	x14,x0,4
   110cc:	40870733          	sub	x14,x14,x8
   110d0:	fcb82823          	sw	x11,-48(x16)
   110d4:	fbdfe06f          	jal	x0,10090 <__subtf3+0x600>
   110d8:	fff88893          	addi	x17,x17,-1
   110dc:	40c487b3          	sub	x15,x9,x12
   110e0:	0017b793          	sltiu	x15,x15,1
   110e4:	00f567b3          	or	x15,x10,x15
   110e8:	c91ff06f          	jal	x0,10d78 <__subtf3+0x12e8>
   110ec:	00008437          	lui	x8,0x8
   110f0:	02f12a23          	sw	x15,52(x2)
   110f4:	02612823          	sw	x6,48(x2)
   110f8:	02c12c23          	sw	x12,56(x2)
   110fc:	03c12e23          	sw	x28,60(x2)
   11100:	fff40413          	addi	x8,x8,-1 # 7fff <__gdtoa+0x20f>
   11104:	03010793          	addi	x15,x2,48
   11108:	8b8ff06f          	jal	x0,101c0 <__subtf3+0x730>
   1110c:	fff80813          	addi	x16,x16,-1
   11110:	41e60533          	sub	x10,x12,x30
   11114:	00153513          	sltiu	x10,x10,1
   11118:	00a3e3b3          	or	x7,x7,x10
   1111c:	ca1ff06f          	jal	x0,10dbc <__subtf3+0x132c>
   11120:	04c12983          	lw	x19,76(x2)
   11124:	00100793          	addi	x15,x0,1
   11128:	eb0ff06f          	jal	x0,107d8 <__subtf3+0xd48>
   1112c:	02a12e23          	sw	x10,60(x2)
   11130:	02012c23          	sw	x0,56(x2)
   11134:	02012a23          	sw	x0,52(x2)
   11138:	02012823          	sw	x0,48(x2)
   1113c:	03010793          	addi	x15,x2,48
   11140:	03c10713          	addi	x14,x2,60
   11144:	00008637          	lui	x12,0x8
   11148:	00361593          	slli	x11,x12,0x3
   1114c:	ffc72603          	lw	x12,-4(x14)
   11150:	ffc70713          	addi	x14,x14,-4
   11154:	01d65693          	srli	x13,x12,0x1d
   11158:	00b6e6b3          	or	x13,x13,x11
   1115c:	00d72223          	sw	x13,4(x14)
   11160:	fee794e3          	bne	x15,x14,11148 <__subtf3+0x16b8>
   11164:	911ff06f          	jal	x0,10a74 <__subtf3+0xfe4>
   11168:	02f12a23          	sw	x15,52(x2)
   1116c:	02612823          	sw	x6,48(x2)
   11170:	02c12c23          	sw	x12,56(x2)
   11174:	03c12e23          	sw	x28,60(x2)
   11178:	00058493          	addi	x9,x11,0
   1117c:	fff50413          	addi	x8,x10,-1
   11180:	03010793          	addi	x15,x2,48
   11184:	83cff06f          	jal	x0,101c0 <__subtf3+0x730>
   11188:	03c12e23          	sw	x28,60(x2)
   1118c:	a50ff06f          	jal	x0,103dc <__subtf3+0x94c>
   11190:	03012e23          	sw	x16,60(x2)
   11194:	02012c23          	sw	x0,56(x2)
   11198:	02012a23          	sw	x0,52(x2)
   1119c:	02012823          	sw	x0,48(x2)
   111a0:	03010793          	addi	x15,x2,48
   111a4:	03c10713          	addi	x14,x2,60
   111a8:	00008637          	lui	x12,0x8
   111ac:	00361593          	slli	x11,x12,0x3
   111b0:	ffc72603          	lw	x12,-4(x14)
   111b4:	ffc70713          	addi	x14,x14,-4
   111b8:	01d65693          	srli	x13,x12,0x1d
   111bc:	00b6e6b3          	or	x13,x13,x11
   111c0:	00d72223          	sw	x13,4(x14)
   111c4:	fee794e3          	bne	x15,x14,111ac <__subtf3+0x171c>
   111c8:	8adff06f          	jal	x0,10a74 <__subtf3+0xfe4>
   111cc:	ffff0693          	addi	x13,x30,-1
   111d0:	001f3f13          	sltiu	x30,x30,1
   111d4:	01e667b3          	or	x15,x12,x30
   111d8:	c39ff06f          	jal	x0,10e10 <__subtf3+0x1380>
   111dc:	02000e13          	addi	x28,x0,32
   111e0:	411e0e33          	sub	x28,x28,x17
   111e4:	00200593          	addi	x11,x0,2
   111e8:	bd0ff06f          	jal	x0,105b8 <__subtf3+0xb28>
   111ec:	01d2deb3          	srl	x29,x5,x29
   111f0:	00100713          	addi	x14,x0,1
   111f4:	ca5fe06f          	jal	x0,fe98 <__subtf3+0x408>
   111f8:	04c12983          	lw	x19,76(x2)
   111fc:	00b2d5b3          	srl	x11,x5,x11
   11200:	00100713          	addi	x14,x0,1
   11204:	e99fe06f          	jal	x0,1009c <__subtf3+0x60c>
   11208:	05312623          	sw	x19,76(x2)
   1120c:	00058813          	addi	x16,x11,0
   11210:	00000893          	addi	x17,x0,0
   11214:	00300393          	addi	x7,x0,3
   11218:	00000693          	addi	x13,x0,0
   1121c:	e25ff06f          	jal	x0,11040 <__subtf3+0x15b0>
   11220:	00060893          	addi	x17,x12,0 # 8000 <__gdtoa+0x210>
   11224:	04812a03          	lw	x20,72(x2)
   11228:	00078613          	addi	x12,x15,0
   1122c:	b78ff06f          	jal	x0,105a4 <__subtf3+0xb14>
   11230:	04c12983          	lw	x19,76(x2)
   11234:	04812a03          	lw	x20,72(x2)
   11238:	a1dfe06f          	jal	x0,fc54 <__subtf3+0x1c4>

0001123c <__unordtf2>:
   1123c:	00c52803          	lw	x16,12(x10)
   11240:	00c5a303          	lw	x6,12(x11)
   11244:	000087b7          	lui	x15,0x8
   11248:	fff78793          	addi	x15,x15,-1 # 7fff <__gdtoa+0x20f>
   1124c:	01085713          	srli	x14,x16,0x10
   11250:	01035693          	srli	x13,x6,0x10
   11254:	00f77733          	and	x14,x14,x15
   11258:	00052603          	lw	x12,0(x10)
   1125c:	00452e03          	lw	x28,4(x10)
   11260:	0005a883          	lw	x17,0(x11)
   11264:	0045ae83          	lw	x29,4(x11)
   11268:	00852503          	lw	x10,8(x10)
   1126c:	0085a583          	lw	x11,8(x11)
   11270:	ff010113          	addi	x2,x2,-16
   11274:	00f6f6b3          	and	x13,x13,x15
   11278:	02f70a63          	beq	x14,x15,112ac <__unordtf2+0x70>
   1127c:	000087b7          	lui	x15,0x8
   11280:	fff78793          	addi	x15,x15,-1 # 7fff <__gdtoa+0x20f>
   11284:	00000513          	addi	x10,x0,0
   11288:	00f69e63          	bne	x13,x15,112a4 <__unordtf2+0x68>
   1128c:	01d8e533          	or	x10,x17,x29
   11290:	01031313          	slli	x6,x6,0x10
   11294:	00b56533          	or	x10,x10,x11
   11298:	01035313          	srli	x6,x6,0x10
   1129c:	00656533          	or	x10,x10,x6
   112a0:	00a03533          	sltu	x10,x0,x10
   112a4:	01010113          	addi	x2,x2,16
   112a8:	00008067          	jalr	x0,0(x1)
   112ac:	01c66633          	or	x12,x12,x28
   112b0:	01081813          	slli	x16,x16,0x10
   112b4:	00a66633          	or	x12,x12,x10
   112b8:	01085813          	srli	x16,x16,0x10
   112bc:	01066633          	or	x12,x12,x16
   112c0:	00100513          	addi	x10,x0,1
   112c4:	fa060ce3          	beq	x12,x0,1127c <__unordtf2+0x40>
   112c8:	01010113          	addi	x2,x2,16
   112cc:	00008067          	jalr	x0,0(x1)

000112d0 <__fixtfsi>:
   112d0:	00052603          	lw	x12,0(x10)
   112d4:	00c52783          	lw	x15,12(x10)
   112d8:	00852683          	lw	x13,8(x10)
   112dc:	00452583          	lw	x11,4(x10)
   112e0:	fe010113          	addi	x2,x2,-32
   112e4:	00179713          	slli	x14,x15,0x1
   112e8:	00c12023          	sw	x12,0(x2)
   112ec:	00c12823          	sw	x12,16(x2)
   112f0:	00004637          	lui	x12,0x4
   112f4:	00b12223          	sw	x11,4(x2)
   112f8:	00d12423          	sw	x13,8(x2)
   112fc:	00f12623          	sw	x15,12(x2)
   11300:	00d12c23          	sw	x13,24(x2)
   11304:	01175713          	srli	x14,x14,0x11
   11308:	ffe60613          	addi	x12,x12,-2 # 3ffe <_vfprintf_r+0x261e>
   1130c:	00000513          	addi	x10,x0,0
   11310:	02e65063          	bge	x12,x14,11330 <__fixtfsi+0x60>
   11314:	00004637          	lui	x12,0x4
   11318:	01d60613          	addi	x12,x12,29 # 401d <_vfprintf_r+0x263d>
   1131c:	01f7d593          	srli	x11,x15,0x1f
   11320:	00e65c63          	bge	x12,x14,11338 <__fixtfsi+0x68>
   11324:	80000537          	lui	x10,0x80000
   11328:	fff50513          	addi	x10,x10,-1 # 7fffffff <__heap_end+0x7fbfffff>
   1132c:	00a58533          	add	x10,x11,x10
   11330:	02010113          	addi	x2,x2,32
   11334:	00008067          	jalr	x0,0(x1)
   11338:	00004637          	lui	x12,0x4
   1133c:	06f60613          	addi	x12,x12,111 # 406f <_vfprintf_r+0x268f>
   11340:	01079793          	slli	x15,x15,0x10
   11344:	40e60733          	sub	x14,x12,x14
   11348:	0107d793          	srli	x15,x15,0x10
   1134c:	00010637          	lui	x12,0x10
   11350:	00c7e7b3          	or	x15,x15,x12
   11354:	01f77513          	andi	x10,x14,31
   11358:	02000613          	addi	x12,x0,32
   1135c:	00f12e23          	sw	x15,28(x2)
   11360:	40575713          	srai	x14,x14,0x5
   11364:	40a60633          	sub	x12,x12,x10
   11368:	04050663          	beq	x10,x0,113b4 <__fixtfsi+0xe4>
   1136c:	00200813          	addi	x16,x0,2
   11370:	05071e63          	bne	x14,x16,113cc <__fixtfsi+0xfc>
   11374:	00a6d6b3          	srl	x13,x13,x10
   11378:	00c79633          	sll	x12,x15,x12
   1137c:	00c6e6b3          	or	x13,x13,x12
   11380:	00d12823          	sw	x13,16(x2)
   11384:	00100713          	addi	x14,x0,1
   11388:	00271713          	slli	x14,x14,0x2
   1138c:	02070713          	addi	x14,x14,32
   11390:	00270733          	add	x14,x14,x2
   11394:	00a7d7b3          	srl	x15,x15,x10
   11398:	fef72823          	sw	x15,-16(x14)
   1139c:	01012783          	lw	x15,16(x2)
   113a0:	40f00533          	sub	x10,x0,x15
   113a4:	f80596e3          	bne	x11,x0,11330 <__fixtfsi+0x60>
   113a8:	00078513          	addi	x10,x15,0
   113ac:	02010113          	addi	x2,x2,32
   113b0:	00008067          	jalr	x0,0(x1)
   113b4:	00271713          	slli	x14,x14,0x2
   113b8:	02070793          	addi	x15,x14,32
   113bc:	00278733          	add	x14,x15,x2
   113c0:	ff072783          	lw	x15,-16(x14)
   113c4:	00f12823          	sw	x15,16(x2)
   113c8:	fd5ff06f          	jal	x0,1139c <__fixtfsi+0xcc>
   113cc:	00000713          	addi	x14,x0,0
   113d0:	fb9ff06f          	jal	x0,11388 <__fixtfsi+0xb8>

000113d4 <__floatsitf>:
   113d4:	fd010113          	addi	x2,x2,-48
   113d8:	02912223          	sw	x9,36(x2)
   113dc:	02112623          	sw	x1,44(x2)
   113e0:	02812423          	sw	x8,40(x2)
   113e4:	00050493          	addi	x9,x10,0
   113e8:	0a058a63          	beq	x11,x0,1149c <__floatsitf+0xc8>
   113ec:	41f5d793          	srai	x15,x11,0x1f
   113f0:	03212023          	sw	x18,32(x2)
   113f4:	00b7c933          	xor	x18,x15,x11
   113f8:	40f90933          	sub	x18,x18,x15
   113fc:	00090513          	addi	x10,x18,0
   11400:	01f5d413          	srli	x8,x11,0x1f
   11404:	378000ef          	jal	x1,1177c <__clzsi2>
   11408:	05150713          	addi	x14,x10,81
   1140c:	000047b7          	lui	x15,0x4
   11410:	01f77613          	andi	x12,x14,31
   11414:	01e78793          	addi	x15,x15,30 # 401e <_vfprintf_r+0x263e>
   11418:	01212823          	sw	x18,16(x2)
   1141c:	00012a23          	sw	x0,20(x2)
   11420:	00012c23          	sw	x0,24(x2)
   11424:	00012e23          	sw	x0,28(x2)
   11428:	40a787b3          	sub	x15,x15,x10
   1142c:	40575713          	srai	x14,x14,0x5
   11430:	0c061063          	bne	x12,x0,114f0 <__floatsitf+0x11c>
   11434:	00300613          	addi	x12,x0,3
   11438:	40e60633          	sub	x12,x12,x14
   1143c:	00261613          	slli	x12,x12,0x2
   11440:	02060693          	addi	x13,x12,32 # 10020 <__subtf3+0x590>
   11444:	00268633          	add	x12,x13,x2
   11448:	00200693          	addi	x13,x0,2
   1144c:	ff062603          	lw	x12,-16(x12)
   11450:	00d71663          	bne	x14,x13,1145c <__floatsitf+0x88>
   11454:	01212c23          	sw	x18,24(x2)
   11458:	00100693          	addi	x13,x0,1
   1145c:	00269693          	slli	x13,x13,0x2
   11460:	00012823          	sw	x0,16(x2)
   11464:	00012a23          	sw	x0,20(x2)
   11468:	ffc68693          	addi	x13,x13,-4
   1146c:	00400713          	addi	x14,x0,4
   11470:	00e6e463          	bltu	x13,x14,11478 <__floatsitf+0xa4>
   11474:	00012c23          	sw	x0,24(x2)
   11478:	01179793          	slli	x15,x15,0x11
   1147c:	01061713          	slli	x14,x12,0x10
   11480:	01012803          	lw	x16,16(x2)
   11484:	01412503          	lw	x10,20(x2)
   11488:	01812683          	lw	x13,24(x2)
   1148c:	02012903          	lw	x18,32(x2)
   11490:	01075713          	srli	x14,x14,0x10
   11494:	0117d793          	srli	x15,x15,0x11
   11498:	01c0006f          	jal	x0,114b4 <__floatsitf+0xe0>
   1149c:	00000413          	addi	x8,x0,0
   114a0:	00000793          	addi	x15,x0,0
   114a4:	00000713          	addi	x14,x0,0
   114a8:	00000693          	addi	x13,x0,0
   114ac:	00000513          	addi	x10,x0,0
   114b0:	00000813          	addi	x16,x0,0
   114b4:	00f41593          	slli	x11,x8,0xf
   114b8:	00b7e7b3          	or	x15,x15,x11
   114bc:	00e11623          	sh	x14,12(x2)
   114c0:	00f11723          	sh	x15,14(x2)
   114c4:	00c12783          	lw	x15,12(x2)
   114c8:	02c12083          	lw	x1,44(x2)
   114cc:	02812403          	lw	x8,40(x2)
   114d0:	00a4a223          	sw	x10,4(x9)
   114d4:	0104a023          	sw	x16,0(x9)
   114d8:	00d4a423          	sw	x13,8(x9)
   114dc:	00f4a623          	sw	x15,12(x9)
   114e0:	00048513          	addi	x10,x9,0
   114e4:	02412483          	lw	x9,36(x2)
   114e8:	03010113          	addi	x2,x2,48
   114ec:	00008067          	jalr	x0,0(x1)
   114f0:	00200693          	addi	x13,x0,2
   114f4:	02d70463          	beq	x14,x13,1151c <__floatsitf+0x148>
   114f8:	00200693          	addi	x13,x0,2
   114fc:	00300713          	addi	x14,x0,3
   11500:	00271713          	slli	x14,x14,0x2
   11504:	02070713          	addi	x14,x14,32
   11508:	00c91933          	sll	x18,x18,x12
   1150c:	00270733          	add	x14,x14,x2
   11510:	ff272823          	sw	x18,-16(x14)
   11514:	01c12603          	lw	x12,28(x2)
   11518:	f45ff06f          	jal	x0,1145c <__floatsitf+0x88>
   1151c:	02000693          	addi	x13,x0,32
   11520:	40c686b3          	sub	x13,x13,x12
   11524:	00d956b3          	srl	x13,x18,x13
   11528:	00d12e23          	sw	x13,28(x2)
   1152c:	00100693          	addi	x13,x0,1
   11530:	fd1ff06f          	jal	x0,11500 <__floatsitf+0x12c>

00011534 <__extenddftf2>:
   11534:	01465793          	srli	x15,x12,0x14
   11538:	00c61713          	slli	x14,x12,0xc
   1153c:	7ff7f793          	andi	x15,x15,2047
   11540:	fd010113          	addi	x2,x2,-48
   11544:	00c75713          	srli	x14,x14,0xc
   11548:	00178693          	addi	x13,x15,1
   1154c:	02812423          	sw	x8,40(x2)
   11550:	02912223          	sw	x9,36(x2)
   11554:	03212023          	sw	x18,32(x2)
   11558:	02112623          	sw	x1,44(x2)
   1155c:	00b12823          	sw	x11,16(x2)
   11560:	00e12a23          	sw	x14,20(x2)
   11564:	00012e23          	sw	x0,28(x2)
   11568:	00012c23          	sw	x0,24(x2)
   1156c:	7fe6f693          	andi	x13,x13,2046
   11570:	00058413          	addi	x8,x11,0
   11574:	00050913          	addi	x18,x10,0
   11578:	01f65493          	srli	x9,x12,0x1f
   1157c:	06068463          	beq	x13,x0,115e4 <__extenddftf2+0xb0>
   11580:	01c71693          	slli	x13,x14,0x1c
   11584:	0045d613          	srli	x12,x11,0x4
   11588:	00c6e6b3          	or	x13,x13,x12
   1158c:	00004637          	lui	x12,0x4
   11590:	c0060613          	addi	x12,x12,-1024 # 3c00 <_vfprintf_r+0x2220>
   11594:	01c59413          	slli	x8,x11,0x1c
   11598:	00475713          	srli	x14,x14,0x4
   1159c:	00c787b3          	add	x15,x15,x12
   115a0:	00000513          	addi	x10,x0,0
   115a4:	00f49613          	slli	x12,x9,0xf
   115a8:	00c7e7b3          	or	x15,x15,x12
   115ac:	00e11623          	sh	x14,12(x2)
   115b0:	00f11723          	sh	x15,14(x2)
   115b4:	00c12783          	lw	x15,12(x2)
   115b8:	00892223          	sw	x8,4(x18)
   115bc:	02c12083          	lw	x1,44(x2)
   115c0:	02812403          	lw	x8,40(x2)
   115c4:	00a92023          	sw	x10,0(x18)
   115c8:	00d92423          	sw	x13,8(x18)
   115cc:	00f92623          	sw	x15,12(x18)
   115d0:	02412483          	lw	x9,36(x2)
   115d4:	00090513          	addi	x10,x18,0
   115d8:	02012903          	lw	x18,32(x2)
   115dc:	03010113          	addi	x2,x2,48
   115e0:	00008067          	jalr	x0,0(x1)
   115e4:	00b76533          	or	x10,x14,x11
   115e8:	0a079663          	bne	x15,x0,11694 <__extenddftf2+0x160>
   115ec:	0e050663          	beq	x10,x0,116d8 <__extenddftf2+0x1a4>
   115f0:	0e070e63          	beq	x14,x0,116ec <__extenddftf2+0x1b8>
   115f4:	00070513          	addi	x10,x14,0
   115f8:	184000ef          	jal	x1,1177c <__clzsi2>
   115fc:	03150793          	addi	x15,x10,49
   11600:	01f7f593          	andi	x11,x15,31
   11604:	4057d793          	srai	x15,x15,0x5
   11608:	10059a63          	bne	x11,x0,1171c <__extenddftf2+0x1e8>
   1160c:	40f006b3          	sub	x13,x0,x15
   11610:	00269693          	slli	x13,x13,0x2
   11614:	01010613          	addi	x12,x2,16
   11618:	00d60733          	add	x14,x12,x13
   1161c:	00010893          	addi	x17,x2,0
   11620:	40d006b3          	sub	x13,x0,x13
   11624:	00c72803          	lw	x16,12(x14)
   11628:	00d705b3          	add	x11,x14,x13
   1162c:	ffc70713          	addi	x14,x14,-4
   11630:	0105a623          	sw	x16,12(x11)
   11634:	fee898e3          	bne	x17,x14,11624 <__extenddftf2+0xf0>
   11638:	fff78713          	addi	x14,x15,-1
   1163c:	00170793          	addi	x15,x14,1
   11640:	00279793          	slli	x15,x15,0x2
   11644:	00800693          	addi	x13,x0,8
   11648:	00060713          	addi	x14,x12,0
   1164c:	00d7ea63          	bltu	x15,x13,11660 <__extenddftf2+0x12c>
   11650:	00012823          	sw	x0,16(x2)
   11654:	00062223          	sw	x0,4(x12)
   11658:	ff878793          	addi	x15,x15,-8
   1165c:	01810713          	addi	x14,x2,24
   11660:	00400693          	addi	x13,x0,4
   11664:	00d7e463          	bltu	x15,x13,1166c <__extenddftf2+0x138>
   11668:	00072023          	sw	x0,0(x14)
   1166c:	000047b7          	lui	x15,0x4
   11670:	c0c78793          	addi	x15,x15,-1012 # 3c0c <_vfprintf_r+0x222c>
   11674:	40a787b3          	sub	x15,x15,x10
   11678:	01179793          	slli	x15,x15,0x11
   1167c:	01012503          	lw	x10,16(x2)
   11680:	01412403          	lw	x8,20(x2)
   11684:	01812683          	lw	x13,24(x2)
   11688:	01c15703          	lhu	x14,28(x2)
   1168c:	0117d793          	srli	x15,x15,0x11
   11690:	f15ff06f          	jal	x0,115a4 <__extenddftf2+0x70>
   11694:	02050663          	beq	x10,x0,116c0 <__extenddftf2+0x18c>
   11698:	000087b7          	lui	x15,0x8
   1169c:	01c71693          	slli	x13,x14,0x1c
   116a0:	0045d613          	srli	x12,x11,0x4
   116a4:	00475713          	srli	x14,x14,0x4
   116a8:	00f76733          	or	x14,x14,x15
   116ac:	00c6e6b3          	or	x13,x13,x12
   116b0:	01c59413          	slli	x8,x11,0x1c
   116b4:	fff78793          	addi	x15,x15,-1 # 7fff <__gdtoa+0x20f>
   116b8:	00000513          	addi	x10,x0,0
   116bc:	ee9ff06f          	jal	x0,115a4 <__extenddftf2+0x70>
   116c0:	000087b7          	lui	x15,0x8
   116c4:	00000693          	addi	x13,x0,0
   116c8:	00000413          	addi	x8,x0,0
   116cc:	fff78793          	addi	x15,x15,-1 # 7fff <__gdtoa+0x20f>
   116d0:	00000713          	addi	x14,x0,0
   116d4:	ed1ff06f          	jal	x0,115a4 <__extenddftf2+0x70>
   116d8:	00000693          	addi	x13,x0,0
   116dc:	00000413          	addi	x8,x0,0
   116e0:	00000793          	addi	x15,x0,0
   116e4:	00000713          	addi	x14,x0,0
   116e8:	ebdff06f          	jal	x0,115a4 <__extenddftf2+0x70>
   116ec:	090000ef          	jal	x1,1177c <__clzsi2>
   116f0:	05150793          	addi	x15,x10,81
   116f4:	01f7f593          	andi	x11,x15,31
   116f8:	02050513          	addi	x10,x10,32
   116fc:	4057d793          	srai	x15,x15,0x5
   11700:	f00586e3          	beq	x11,x0,1160c <__extenddftf2+0xd8>
   11704:	00200713          	addi	x14,x0,2
   11708:	00e78a63          	beq	x15,x14,1171c <__extenddftf2+0x1e8>
   1170c:	00200713          	addi	x14,x0,2
   11710:	00300793          	addi	x15,x0,3
   11714:	01010613          	addi	x12,x2,16
   11718:	04c0006f          	jal	x0,11764 <__extenddftf2+0x230>
   1171c:	40f008b3          	sub	x17,x0,x15
   11720:	00289893          	slli	x17,x17,0x2
   11724:	00c88713          	addi	x14,x17,12
   11728:	02000e13          	addi	x28,x0,32
   1172c:	01010613          	addi	x12,x2,16
   11730:	40be0e33          	sub	x28,x28,x11
   11734:	00e60733          	add	x14,x12,x14
   11738:	411008b3          	sub	x17,x0,x17
   1173c:	00072683          	lw	x13,0(x14)
   11740:	ffc72803          	lw	x16,-4(x14)
   11744:	01170333          	add	x6,x14,x17
   11748:	00b696b3          	sll	x13,x13,x11
   1174c:	01c85833          	srl	x16,x16,x28
   11750:	0106e6b3          	or	x13,x13,x16
   11754:	00d32023          	sw	x13,0(x6)
   11758:	ffc70713          	addi	x14,x14,-4
   1175c:	fee610e3          	bne	x12,x14,1173c <__extenddftf2+0x208>
   11760:	fff78713          	addi	x14,x15,-1
   11764:	00279793          	slli	x15,x15,0x2
   11768:	02078793          	addi	x15,x15,32
   1176c:	002787b3          	add	x15,x15,x2
   11770:	00b415b3          	sll	x11,x8,x11
   11774:	feb7a823          	sw	x11,-16(x15)
   11778:	ec5ff06f          	jal	x0,1163c <__extenddftf2+0x108>

0001177c <__clzsi2>:
   1177c:	000107b7          	lui	x15,0x10
   11780:	02f57a63          	bgeu	x10,x15,117b4 <__clzsi2+0x38>
   11784:	10053713          	sltiu	x14,x10,256
   11788:	00173713          	sltiu	x14,x14,1
   1178c:	00371713          	slli	x14,x14,0x3
   11790:	000127b7          	lui	x15,0x12
   11794:	00e55533          	srl	x10,x10,x14
   11798:	3ac78793          	addi	x15,x15,940 # 123ac <__clz_tab>
   1179c:	00a787b3          	add	x15,x15,x10
   117a0:	0007c503          	lbu	x10,0(x15)
   117a4:	02000693          	addi	x13,x0,32
   117a8:	40e686b3          	sub	x13,x13,x14
   117ac:	40a68533          	sub	x10,x13,x10
   117b0:	00008067          	jalr	x0,0(x1)
   117b4:	010007b7          	lui	x15,0x1000
   117b8:	02f57463          	bgeu	x10,x15,117e0 <__clzsi2+0x64>
   117bc:	01000713          	addi	x14,x0,16
   117c0:	000127b7          	lui	x15,0x12
   117c4:	00e55533          	srl	x10,x10,x14
   117c8:	3ac78793          	addi	x15,x15,940 # 123ac <__clz_tab>
   117cc:	00a787b3          	add	x15,x15,x10
   117d0:	0007c503          	lbu	x10,0(x15)
   117d4:	01000693          	addi	x13,x0,16
   117d8:	40a68533          	sub	x10,x13,x10
   117dc:	00008067          	jalr	x0,0(x1)
   117e0:	01800713          	addi	x14,x0,24
   117e4:	000127b7          	lui	x15,0x12
   117e8:	00e55533          	srl	x10,x10,x14
   117ec:	3ac78793          	addi	x15,x15,940 # 123ac <__clz_tab>
   117f0:	00a787b3          	add	x15,x15,x10
   117f4:	0007c503          	lbu	x10,0(x15)
   117f8:	00800693          	addi	x13,x0,8
   117fc:	40a68533          	sub	x10,x13,x10
   11800:	00008067          	jalr	x0,0(x1)
