
/tools/proj/core-v-verif-master/cv32e40p/tests/programs/custom/hello-world//hello-world.elf:     file format elf32-littleriscv


Disassembly of section .vectors:

00000000 <__vector_start>:
.section .vectors, "ax"
.option norvc
.global vector_table

vector_table:
	j u_sw_irq_handler
   0:	2000006f          	jal	x0,200 <u_sw_irq_handler>
	j __no_irq_handler
   4:	1c80006f          	jal	x0,1cc <__no_irq_handler>
	j __no_irq_handler
   8:	1c40006f          	jal	x0,1cc <__no_irq_handler>
	j m_software_irq_handler
   c:	1ce0006f          	jal	x0,1da <m_software_irq_handler>
	j __no_irq_handler
  10:	1bc0006f          	jal	x0,1cc <__no_irq_handler>
	j __no_irq_handler
  14:	1b80006f          	jal	x0,1cc <__no_irq_handler>
	j __no_irq_handler
  18:	1b40006f          	jal	x0,1cc <__no_irq_handler>
	j m_timer_irq_handler
  1c:	1c00006f          	jal	x0,1dc <m_timer_irq_handler>
	j __no_irq_handler
  20:	1ac0006f          	jal	x0,1cc <__no_irq_handler>
	j __no_irq_handler
  24:	1a80006f          	jal	x0,1cc <__no_irq_handler>
	j __no_irq_handler
  28:	1a40006f          	jal	x0,1cc <__no_irq_handler>
	j m_external_irq_handler
  2c:	1b20006f          	jal	x0,1de <m_external_irq_handler>
	j __no_irq_handler
  30:	19c0006f          	jal	x0,1cc <__no_irq_handler>
	j __no_irq_handler
  34:	1980006f          	jal	x0,1cc <__no_irq_handler>
	j __no_irq_handler
  38:	1940006f          	jal	x0,1cc <__no_irq_handler>
	j __no_irq_handler
  3c:	1900006f          	jal	x0,1cc <__no_irq_handler>
	j m_fast0_irq_handler
  40:	1a00006f          	jal	x0,1e0 <m_fast0_irq_handler>
	j m_fast1_irq_handler
  44:	19e0006f          	jal	x0,1e2 <m_fast1_irq_handler>
	j m_fast2_irq_handler
  48:	19c0006f          	jal	x0,1e4 <m_fast2_irq_handler>
	j m_fast3_irq_handler
  4c:	19a0006f          	jal	x0,1e6 <m_fast3_irq_handler>
	j m_fast4_irq_handler
  50:	1980006f          	jal	x0,1e8 <m_fast4_irq_handler>
	j m_fast5_irq_handler
  54:	1960006f          	jal	x0,1ea <m_fast5_irq_handler>
	j m_fast6_irq_handler
  58:	1940006f          	jal	x0,1ec <m_fast6_irq_handler>
	j m_fast7_irq_handler
  5c:	1920006f          	jal	x0,1ee <m_fast7_irq_handler>
	j m_fast8_irq_handler
  60:	1900006f          	jal	x0,1f0 <m_fast8_irq_handler>
	j m_fast9_irq_handler
  64:	18e0006f          	jal	x0,1f2 <m_fast9_irq_handler>
	j m_fast10_irq_handler
  68:	18c0006f          	jal	x0,1f4 <m_fast10_irq_handler>
	j m_fast11_irq_handler
  6c:	18a0006f          	jal	x0,1f6 <m_fast11_irq_handler>
	j m_fast12_irq_handler
  70:	1880006f          	jal	x0,1f8 <m_fast12_irq_handler>
	j m_fast13_irq_handler
  74:	1860006f          	jal	x0,1fa <m_fast13_irq_handler>
	j m_fast14_irq_handler
  78:	1840006f          	jal	x0,1fc <m_fast14_irq_handler>
	j m_fast15_irq_handler
  7c:	1820006f          	jal	x0,1fe <m_fast15_irq_handler>

Disassembly of section .init:

00000080 <_start>:

_start:
/* initialize global pointer */
.option push
.option norelax
1:	auipc gp, %pcrel_hi(__global_pointer$)
  80:	00013197          	auipc	x3,0x13
	addi  gp, gp, %pcrel_lo(1b)
  84:	c3018193          	addi	x3,x3,-976 # 12cb0 <__global_pointer$>
.option pop

/* initialize stack pointer */
	la sp, __stack_end
  88:	00400117          	auipc	x2,0x400
  8c:	f7810113          	addi	x2,x2,-136 # 400000 <__heap_end>

/* set vector table address */
	la a0, __vector_start
  90:	00000517          	auipc	x10,0x0
  94:	f7050513          	addi	x10,x10,-144 # 0 <__vector_start>
	ori a0, a0, 1 /*vector mode = vectored */
  98:	00156513          	ori	x10,x10,1
	csrw mtvec, a0
  9c:	30551073          	csrrw	x0,mtvec,x10

/* clear the bss segment */
	la a0, _edata
  a0:	f1018513          	addi	x10,x3,-240 # 12bc0 <__atexit>
	la a2, _end
  a4:	21c18613          	addi	x12,x3,540 # 12ecc <__bss_end>
	sub a2, a2, a0
  a8:	8e09                	c.sub	x12,x10
	li a1, 0
  aa:	4581                	c.li	x11,0
	call memset
  ac:	25c1                	c.jal	76c <memset>

/* new-style constructors and destructors */
	la a0, __libc_fini_array
  ae:	00000517          	auipc	x10,0x0
  b2:	66250513          	addi	x10,x10,1634 # 710 <__libc_fini_array>
	call atexit
  b6:	117000ef          	jal	x1,9cc <atexit>
	call __libc_init_array
  ba:	23c9                	c.jal	67c <__libc_init_array>
//	lw a0, 0(sp)                    /* a0 = argc */
//	addi a1, sp, __SIZEOF_POINTER__ /* a1 = argv */
//	li a2, 0                        /* a2 = envp = NULL */
// Initialize these variables to 0. Cannot use argc or argv
// since the stack is not initialized
	li a0, 0
  bc:	4501                	c.li	x10,0
	li a1, 0
  be:	4581                	c.li	x11,0
	li a2, 0
  c0:	4601                	c.li	x12,0

	call main
  c2:	2019                	c.jal	c8 <main>
	tail exit
  c4:	a991                	c.j	518 <exit>

000000c6 <_fini>:
.type   _fini, @function
_init:
_fini:
 /* These don't have to do anything since we use init_array/fini_array. Prevent
    missing symbol error */
	ret
  c6:	8082                	c.jr	x1

Disassembly of section .text:

000000c8 <main>:
#define EXP_MISA 0x40801104
#endif


int main(int argc, char *argv[])
{
      c8:	1141                	c.addi	x2,-16
      ca:	c606                	c.swsp	x1,12(x2)
      cc:	c422                	c.swsp	x8,8(x2)
             int reserved, tentative, nonstd, user, super;

    mxl = 0; reserved = 0; tentative = 0; nonstd = 0; user = 0; super = 0;

    /* inline assembly: read mvendorid and misa */
    __asm__ volatile("csrr %0, 0xF11" : "=r"(mvendorid_rval));
      ce:	f11025f3          	csrrs	x11,mvendorid,x0
    __asm__ volatile("csrr %0, 0x301" : "=r"(misa_rval));
      d2:	30102473          	csrrs	x8,misa,x0
    __asm__ volatile("csrr %0, 0xF12" : "=r"(marchid_rval));
      d6:	f1202773          	csrrs	x14,marchid,x0
    __asm__ volatile("csrr %0, 0xF13" : "=r"(mimpid_rval));
      da:	f13027f3          	csrrs	x15,mimpid,x0

    /* Check MVENDORID CSR: 0x602 is the value assigned by JEDEC to the OpenHW Group */
    if (mvendorid_rval != 0x00000602) {
      de:	60200693          	addi	x13,x0,1538
      e2:	00d58863          	beq	x11,x13,f2 <main+0x2a>
      printf("\tERROR: CSR MVENDORID reads as 0x%x - should be 0x00000602 for the OpenHW Group.\n\n", mvendorid_rval);
      e6:	6549                	c.lui	x10,0x12
      e8:	81050513          	addi	x10,x10,-2032 # 11810 <__clzsi2+0x94>
      return EXIT_FAILURE;
    }

    /* Check MARCHID CSR: 0x4 is the value assigned by the RISC-V Foundation to CV32E40P */
    if (marchid_rval != 0x00000004) {
      printf("\tERROR: CSR MARCHID reads as 0x%x - should be 0x00000004 for CV32E40P.\n\n", marchid_rval);
      ec:	79c000ef          	jal	x1,888 <printf>
      return EXIT_FAILURE;
      f0:	a829                	c.j	10a <main+0x42>
    if (misa_rval != EXP_MISA) {
      f2:	40001637          	lui	x12,0x40001
      f6:	10460613          	addi	x12,x12,260 # 40001104 <__heap_end+0x3fc01104>
      fa:	00c40d63          	beq	x8,x12,114 <main+0x4c>
      printf("\tERROR: CSR MISA reads as 0x%x - should be 0x%x for this release of CV32E40P!\n\n", misa_rval, EXP_MISA);
      fe:	6549                	c.lui	x10,0x12
     100:	85a2                	c.mv	x11,x8
     102:	86450513          	addi	x10,x10,-1948 # 11864 <__clzsi2+0xe8>
     106:	782000ef          	jal	x1,888 <printf>
      return EXIT_FAILURE;
     10a:	4505                	c.li	x10,1
    }
    else {
      printf("\n");
      return EXIT_SUCCESS;
    }
}
     10c:	40b2                	c.lwsp	x1,12(x2)
     10e:	4422                	c.lwsp	x8,8(x2)
     110:	0141                	c.addi	x2,16
     112:	8082                	c.jr	x1
    if (marchid_rval != 0x00000004) {
     114:	4691                	c.li	x13,4
     116:	00d70763          	beq	x14,x13,124 <main+0x5c>
      printf("\tERROR: CSR MARCHID reads as 0x%x - should be 0x00000004 for CV32E40P.\n\n", marchid_rval);
     11a:	6549                	c.lui	x10,0x12
     11c:	85ba                	c.mv	x11,x14
     11e:	8b450513          	addi	x10,x10,-1868 # 118b4 <__clzsi2+0x138>
     122:	b7e9                	c.j	ec <main+0x24>
    if (mimpid_rval != 0x00000000) {
     124:	c791                	c.beqz	x15,130 <main+0x68>
      printf("\tERROR: CSR MIMPID reads as 0x%x - should be 0x00000000 for this release of CV32E40P.\n\n", mimpid_rval);
     126:	6549                	c.lui	x10,0x12
     128:	85be                	c.mv	x11,x15
     12a:	90050513          	addi	x10,x10,-1792 # 11900 <__clzsi2+0x184>
     12e:	bf7d                	c.j	ec <main+0x24>
    printf("\nHELLO WORLD!!!\n");
     130:	6549                	c.lui	x10,0x12
     132:	95850513          	addi	x10,x10,-1704 # 11958 <__clzsi2+0x1dc>
     136:	08b000ef          	jal	x1,9c0 <puts>
    printf("This is the OpenHW Group CV32E40P CORE-V processor core.\n");
     13a:	6549                	c.lui	x10,0x12
     13c:	96850513          	addi	x10,x10,-1688 # 11968 <__clzsi2+0x1ec>
     140:	081000ef          	jal	x1,9c0 <puts>
    printf("CV32E40P is a RISC-V ISA compliant core with the following attributes:\n");
     144:	6549                	c.lui	x10,0x12
     146:	9a450513          	addi	x10,x10,-1628 # 119a4 <__clzsi2+0x228>
     14a:	077000ef          	jal	x1,9c0 <puts>
    printf("\tmvendorid = 0x%x\n", mvendorid_rval);
     14e:	6549                	c.lui	x10,0x12
     150:	60200593          	addi	x11,x0,1538
     154:	9ec50513          	addi	x10,x10,-1556 # 119ec <__clzsi2+0x270>
     158:	730000ef          	jal	x1,888 <printf>
    printf("\tmarchid   = 0x%x\n", marchid_rval);
     15c:	6549                	c.lui	x10,0x12
     15e:	4591                	c.li	x11,4
     160:	a0050513          	addi	x10,x10,-1536 # 11a00 <__clzsi2+0x284>
     164:	724000ef          	jal	x1,888 <printf>
    printf("\tmimpid    = 0x%x\n", mimpid_rval);
     168:	6549                	c.lui	x10,0x12
     16a:	4581                	c.li	x11,0
     16c:	a1450513          	addi	x10,x10,-1516 # 11a14 <__clzsi2+0x298>
     170:	2f21                	c.jal	888 <printf>
    printf("\tmisa      = 0x%x\n", misa_rval);
     172:	6549                	c.lui	x10,0x12
     174:	85a2                	c.mv	x11,x8
     176:	a2850513          	addi	x10,x10,-1496 # 11a28 <__clzsi2+0x2ac>
     17a:	2739                	c.jal	888 <printf>
      case 1:  printf("\tXLEN is 32-bits\n");
     17c:	6549                	c.lui	x10,0x12
     17e:	a3c50513          	addi	x10,x10,-1476 # 11a3c <__clzsi2+0x2c0>
     182:	03f000ef          	jal	x1,9c0 <puts>
    printf("\tSupported Instructions Extensions: ");
     186:	6549                	c.lui	x10,0x12
     188:	a5050513          	addi	x10,x10,-1456 # 11a50 <__clzsi2+0x2d4>
     18c:	2df5                	c.jal	888 <printf>
    if ((misa_rval >> 12) & 0x00000001) printf("M");
     18e:	04d00513          	addi	x10,x0,77
     192:	74a000ef          	jal	x1,8dc <putchar>
    if ((misa_rval >>  8) & 0x00000001) printf("I");
     196:	04900513          	addi	x10,x0,73
     19a:	742000ef          	jal	x1,8dc <putchar>
    if ((misa_rval >>  2) & 0x00000001) printf("C");
     19e:	04300513          	addi	x10,x0,67
     1a2:	73a000ef          	jal	x1,8dc <putchar>
    printf("\n");
     1a6:	4529                	c.li	x10,10
     1a8:	2f15                	c.jal	8dc <putchar>
      printf("\n");
     1aa:	4529                	c.li	x10,10
     1ac:	2f05                	c.jal	8dc <putchar>
      return EXIT_SUCCESS;
     1ae:	4501                	c.li	x10,0
     1b0:	bfb1                	c.j	10c <main+0x44>
	...

000001b4 <register_fini>:
     1b4:	00000793          	addi	x15,x0,0
     1b8:	00078863          	beq	x15,x0,1c8 <register_fini+0x14>
     1bc:	00000517          	auipc	x10,0x0
     1c0:	55450513          	addi	x10,x10,1364 # 710 <__libc_fini_array>
     1c4:	0090006f          	jal	x0,9cc <atexit>
     1c8:	00008067          	jalr	x0,0(x1)

000001cc <__no_irq_handler>:
.weak m_fast15_irq_handler


/* exception handling */
__no_irq_handler:
	la a0, no_exception_handler_msg
     1cc:	00012517          	auipc	x10,0x12
     1d0:	a9050513          	addi	x10,x10,-1392 # 11c5c <no_exception_handler_msg>
	jal ra, puts
     1d4:	7ec000ef          	jal	x1,9c0 <puts>
	j __no_irq_handler
     1d8:	bfd5                	c.j	1cc <__no_irq_handler>

000001da <m_software_irq_handler>:

m_software_irq_handler:
	j __no_irq_handler
     1da:	bfcd                	c.j	1cc <__no_irq_handler>

000001dc <m_timer_irq_handler>:

m_timer_irq_handler:
	j __no_irq_handler
     1dc:	bfc5                	c.j	1cc <__no_irq_handler>

000001de <m_external_irq_handler>:

m_external_irq_handler:
	j __no_irq_handler
     1de:	b7fd                	c.j	1cc <__no_irq_handler>

000001e0 <m_fast0_irq_handler>:

m_fast0_irq_handler:
	j __no_irq_handler
     1e0:	b7f5                	c.j	1cc <__no_irq_handler>

000001e2 <m_fast1_irq_handler>:

m_fast1_irq_handler:
	j __no_irq_handler
     1e2:	b7ed                	c.j	1cc <__no_irq_handler>

000001e4 <m_fast2_irq_handler>:

m_fast2_irq_handler:
	j __no_irq_handler
     1e4:	b7e5                	c.j	1cc <__no_irq_handler>

000001e6 <m_fast3_irq_handler>:

m_fast3_irq_handler:
	j __no_irq_handler
     1e6:	b7dd                	c.j	1cc <__no_irq_handler>

000001e8 <m_fast4_irq_handler>:

m_fast4_irq_handler:
	j __no_irq_handler
     1e8:	b7d5                	c.j	1cc <__no_irq_handler>

000001ea <m_fast5_irq_handler>:

m_fast5_irq_handler:
	j __no_irq_handler
     1ea:	b7cd                	c.j	1cc <__no_irq_handler>

000001ec <m_fast6_irq_handler>:

m_fast6_irq_handler:
	j __no_irq_handler
     1ec:	b7c5                	c.j	1cc <__no_irq_handler>

000001ee <m_fast7_irq_handler>:

m_fast7_irq_handler:
	j __no_irq_handler
     1ee:	bff9                	c.j	1cc <__no_irq_handler>

000001f0 <m_fast8_irq_handler>:

m_fast8_irq_handler:
	j __no_irq_handler
     1f0:	bff1                	c.j	1cc <__no_irq_handler>

000001f2 <m_fast9_irq_handler>:

m_fast9_irq_handler:
	j __no_irq_handler
     1f2:	bfe9                	c.j	1cc <__no_irq_handler>

000001f4 <m_fast10_irq_handler>:

m_fast10_irq_handler:
	j __no_irq_handler
     1f4:	bfe1                	c.j	1cc <__no_irq_handler>

000001f6 <m_fast11_irq_handler>:

m_fast11_irq_handler:
	j __no_irq_handler
     1f6:	bfd9                	c.j	1cc <__no_irq_handler>

000001f8 <m_fast12_irq_handler>:

m_fast12_irq_handler:
	j __no_irq_handler
     1f8:	bfd1                	c.j	1cc <__no_irq_handler>

000001fa <m_fast13_irq_handler>:

m_fast13_irq_handler:
	j __no_irq_handler
     1fa:	bfc9                	c.j	1cc <__no_irq_handler>

000001fc <m_fast14_irq_handler>:

m_fast14_irq_handler:
	j __no_irq_handler
     1fc:	bfc1                	c.j	1cc <__no_irq_handler>

000001fe <m_fast15_irq_handler>:

m_fast15_irq_handler:
	j __no_irq_handler
     1fe:	b7f9                	c.j	1cc <__no_irq_handler>

00000200 <u_sw_irq_handler>:

u_sw_irq_handler:
	/* While we are still using puts in handlers, save all caller saved
	   regs.  Eventually, some of these saves could be deferred.  */
	addi sp,sp,-64
     200:	7139                	c.addi16sp	x2,-64
	sw ra, 0(sp)
     202:	c006                	c.swsp	x1,0(x2)
	sw a0, 4(sp)
     204:	c22a                	c.swsp	x10,4(x2)
	sw a1, 8(sp)
     206:	c42e                	c.swsp	x11,8(x2)
	sw a2, 12(sp)
     208:	c632                	c.swsp	x12,12(x2)
	sw a3, 16(sp)
     20a:	c836                	c.swsp	x13,16(x2)
	sw a4, 20(sp)
     20c:	ca3a                	c.swsp	x14,20(x2)
	sw a5, 24(sp)
     20e:	cc3e                	c.swsp	x15,24(x2)
	sw a6, 28(sp)
     210:	ce42                	c.swsp	x16,28(x2)
	sw a7, 32(sp)
     212:	d046                	c.swsp	x17,32(x2)
	sw t0, 36(sp)
     214:	d216                	c.swsp	x5,36(x2)
	sw t1, 40(sp)
     216:	d41a                	c.swsp	x6,40(x2)
	sw t2, 44(sp)
     218:	d61e                	c.swsp	x7,44(x2)
	sw t3, 48(sp)
     21a:	d872                	c.swsp	x28,48(x2)
	sw t4, 52(sp)
     21c:	da76                	c.swsp	x29,52(x2)
	sw t5, 56(sp)
     21e:	dc7a                	c.swsp	x30,56(x2)
	sw t6, 60(sp)
     220:	de7e                	c.swsp	x31,60(x2)
	csrr t0, mcause
     222:	342022f3          	csrrs	x5,mcause,x0
	li t1, EXCEPTION_ILLEGAL_INSN
     226:	4309                	c.li	x6,2
	beq t0, t1, handle_illegal_insn
     228:	02628363          	beq	x5,x6,24e <handle_illegal_insn>
	li t1, EXCEPTION_ECALL_M
     22c:	432d                	c.li	x6,11
	beq t0, t1, handle_ecall
     22e:	00628663          	beq	x5,x6,23a <handle_ecall>
	li t1, EXCEPTION_BREAKPOINT
     232:	430d                	c.li	x6,3
	beq t0, t1, handle_ebreak
     234:	00628663          	beq	x5,x6,240 <handle_ebreak>
	j handle_unknown
     238:	a015                	c.j	25c <handle_unknown>

0000023a <handle_ecall>:

handle_ecall:
	jal ra, handle_syscall
     23a:	204000ef          	jal	x1,43e <handle_syscall>
	j end_handler_incr_mepc
     23e:	a035                	c.j	26a <end_handler_incr_mepc>

00000240 <handle_ebreak>:

handle_ebreak:
	/* TODO support debug handling requirements.  */
	la a0, ebreak_msg
     240:	00012517          	auipc	x10,0x12
     244:	9bb50513          	addi	x10,x10,-1605 # 11bfb <ebreak_msg>
	jal ra, puts
     248:	778000ef          	jal	x1,9c0 <puts>
	j end_handler_incr_mepc
     24c:	a839                	c.j	26a <end_handler_incr_mepc>

0000024e <handle_illegal_insn>:

handle_illegal_insn:
	la a0, illegal_insn_msg
     24e:	00012517          	auipc	x10,0x12
     252:	94150513          	addi	x10,x10,-1727 # 11b8f <illegal_insn_msg>
	jal ra, puts
     256:	76a000ef          	jal	x1,9c0 <puts>
	j end_handler_incr_mepc
     25a:	a801                	c.j	26a <end_handler_incr_mepc>

0000025c <handle_unknown>:

handle_unknown:
	la a0, unknown_msg
     25c:	00012517          	auipc	x10,0x12
     260:	9cf50513          	addi	x10,x10,-1585 # 11c2b <unknown_msg>
	jal ra, puts
     264:	75c000ef          	jal	x1,9c0 <puts>
	/* We don't know what interrupt/exception is being handled, so don't
	   increment mepc.  */
	j end_handler_ret
     268:	a831                	c.j	284 <end_handler_ret>

0000026a <end_handler_incr_mepc>:

end_handler_incr_mepc:
	csrr t0, mepc
     26a:	341022f3          	csrrs	x5,mepc,x0
	lb t1, 0(t0)
     26e:	00028303          	lb	x6,0(x5)
	li a0, 0x3
     272:	450d                	c.li	x10,3
	and t1, t1, a0
     274:	00a37333          	and	x6,x6,x10
	/* Increment mepc by 2 or 4 depending on whether the instruction at mepc
	   is compressed or not.  */
	bne t1, a0, end_handler_incr_mepc2
     278:	00a31363          	bne	x6,x10,27e <end_handler_incr_mepc2>
	addi t0, t0, 2
     27c:	0289                	c.addi	x5,2

0000027e <end_handler_incr_mepc2>:
end_handler_incr_mepc2:
	addi t0, t0, 2
     27e:	0289                	c.addi	x5,2
	csrw mepc, t0
     280:	34129073          	csrrw	x0,mepc,x5

00000284 <end_handler_ret>:
end_handler_ret:
	lw ra, 0(sp)
     284:	4082                	c.lwsp	x1,0(x2)
	lw a0, 4(sp)
     286:	4512                	c.lwsp	x10,4(x2)
	lw a1, 8(sp)
     288:	45a2                	c.lwsp	x11,8(x2)
	lw a2, 12(sp)
     28a:	4632                	c.lwsp	x12,12(x2)
	lw a3, 16(sp)
     28c:	46c2                	c.lwsp	x13,16(x2)
	lw a4, 20(sp)
     28e:	4752                	c.lwsp	x14,20(x2)
	lw a5, 24(sp)
     290:	47e2                	c.lwsp	x15,24(x2)
	lw a6, 28(sp)
     292:	4872                	c.lwsp	x16,28(x2)
	lw a7, 32(sp)
     294:	5882                	c.lwsp	x17,32(x2)
	lw t0, 36(sp)
     296:	5292                	c.lwsp	x5,36(x2)
	lw t1, 40(sp)
     298:	5322                	c.lwsp	x6,40(x2)
	lw t2, 44(sp)
     29a:	53b2                	c.lwsp	x7,44(x2)
	lw t3, 48(sp)
     29c:	5e42                	c.lwsp	x28,48(x2)
	lw t4, 52(sp)
     29e:	5ed2                	c.lwsp	x29,52(x2)
	lw t5, 56(sp)
     2a0:	5f62                	c.lwsp	x30,56(x2)
	lw t6, 60(sp)
     2a2:	5ff2                	c.lwsp	x31,60(x2)
	addi sp,sp,64
     2a4:	6121                	c.addi16sp	x2,64
	mret
     2a6:	30200073          	mret

000002aa <__syscall_error>:
#endif
/* Upstream newlib now defines this in libgloss/riscv/internal_syscall.h.  */
long
__syscall_error(long a0)
{
  errno = -a0;
     2aa:	40a00533          	sub	x10,x0,x10
     2ae:	f0a1aa23          	sw	x10,-236(x3) # 12bc4 <errno>
  return -1;
}
     2b2:	557d                	c.li	x10,-1
     2b4:	8082                	c.jr	x1

000002b6 <unimplemented_syscall>:

void unimplemented_syscall()
{
  const char *p = "BSP: Unimplemented system call called!\n";
     2b6:	67c9                	c.lui	x15,0x12
     2b8:	a7878793          	addi	x15,x15,-1416 # 11a78 <__clzsi2+0x2fc>
  while (*p)
    *(volatile int *)STDOUT_REG = *(p++);
     2bc:	100006b7          	lui	x13,0x10000
  while (*p)
     2c0:	0007c703          	lbu	x14,0(x15)
     2c4:	e311                	c.bnez	x14,2c8 <unimplemented_syscall+0x12>
}
     2c6:	8082                	c.jr	x1
    *(volatile int *)STDOUT_REG = *(p++);
     2c8:	0785                	c.addi	x15,1
     2ca:	c298                	c.sw	x14,0(x13)
     2cc:	bfd5                	c.j	2c0 <unimplemented_syscall+0xa>

000002ce <nanosleep>:

int nanosleep(const struct timespec *rqtp, struct timespec *rmtp)
{
  errno = ENOSYS;
     2ce:	05800713          	addi	x14,x0,88
     2d2:	f0e1aa23          	sw	x14,-236(x3) # 12bc4 <errno>
  return -1;
}
     2d6:	557d                	c.li	x10,-1
     2d8:	8082                	c.jr	x1

000002da <_access>:

int _access(const char *file, int mode)
{
  errno = ENOSYS;
     2da:	05800713          	addi	x14,x0,88
     2de:	f0e1aa23          	sw	x14,-236(x3) # 12bc4 <errno>
  return -1;
}
     2e2:	557d                	c.li	x10,-1
     2e4:	8082                	c.jr	x1

000002e6 <_chdir>:

int _chdir(const char *path)
{
  errno = ENOSYS;
     2e6:	05800713          	addi	x14,x0,88
     2ea:	f0e1aa23          	sw	x14,-236(x3) # 12bc4 <errno>
  return -1;
}
     2ee:	557d                	c.li	x10,-1
     2f0:	8082                	c.jr	x1

000002f2 <_chmod>:

int _chmod(const char *path, mode_t mode)
{
  errno = ENOSYS;
     2f2:	05800713          	addi	x14,x0,88
     2f6:	f0e1aa23          	sw	x14,-236(x3) # 12bc4 <errno>
  return -1;
}
     2fa:	557d                	c.li	x10,-1
     2fc:	8082                	c.jr	x1

000002fe <_chown>:

int _chown(const char *path, uid_t owner, gid_t group)
{
  errno = ENOSYS;
     2fe:	05800713          	addi	x14,x0,88
     302:	f0e1aa23          	sw	x14,-236(x3) # 12bc4 <errno>
  return -1;
}
     306:	557d                	c.li	x10,-1
     308:	8082                	c.jr	x1

0000030a <_close>:

int _close(int file)
{
  return -1;
}
     30a:	557d                	c.li	x10,-1
     30c:	8082                	c.jr	x1

0000030e <_execve>:

int _execve(const char *name, char *const argv[], char *const env[])
{
  errno = ENOMEM;
     30e:	4731                	c.li	x14,12
     310:	f0e1aa23          	sw	x14,-236(x3) # 12bc4 <errno>
  return -1;
}
     314:	557d                	c.li	x10,-1
     316:	8082                	c.jr	x1

00000318 <_exit>:

void _exit(int exit_status)
{
  *(volatile int *)EXIT_REG = exit_status;
     318:	200007b7          	lui	x15,0x20000
     31c:	c3c8                	c.sw	x10,4(x15)
  asm volatile("wfi");
     31e:	10500073          	wfi
  /* _exit should not return */
  while (1) {};
     322:	a001                	c.j	322 <_exit+0xa>

00000324 <_faccessat>:
}

int _faccessat(int dirfd, const char *file, int mode, int flags)
{
  errno = ENOSYS;
     324:	05800713          	addi	x14,x0,88
     328:	f0e1aa23          	sw	x14,-236(x3) # 12bc4 <errno>
  return -1;
}
     32c:	557d                	c.li	x10,-1
     32e:	8082                	c.jr	x1

00000330 <_fork>:

int _fork(void)
{
  errno = EAGAIN;
     330:	472d                	c.li	x14,11
     332:	f0e1aa23          	sw	x14,-236(x3) # 12bc4 <errno>
  return -1;
}
     336:	557d                	c.li	x10,-1
     338:	8082                	c.jr	x1

0000033a <_fstat>:

int _fstat(int file, struct stat *st)
{
  st->st_mode = S_IFCHR;
     33a:	6789                	c.lui	x15,0x2
     33c:	c1dc                	c.sw	x15,4(x11)
  return 0;
  // errno = -ENOSYS;
  // return -1;
}
     33e:	4501                	c.li	x10,0
     340:	8082                	c.jr	x1

00000342 <_fstatat>:

int _fstatat(int dirfd, const char *file, struct stat *st, int flags)
{
  errno = ENOSYS;
     342:	05800713          	addi	x14,x0,88
     346:	f0e1aa23          	sw	x14,-236(x3) # 12bc4 <errno>
  return -1;
}
     34a:	557d                	c.li	x10,-1
     34c:	8082                	c.jr	x1

0000034e <_ftime>:

int _ftime(struct timeb *tp)
     34e:	05800713          	addi	x14,x0,88
     352:	f0e1aa23          	sw	x14,-236(x3) # 12bc4 <errno>
     356:	557d                	c.li	x10,-1
     358:	8082                	c.jr	x1

0000035a <_getcwd>:
  return -1;
}

char *_getcwd(char *buf, size_t size)
{
  errno = -ENOSYS;
     35a:	fa800713          	addi	x14,x0,-88
     35e:	f0e1aa23          	sw	x14,-236(x3) # 12bc4 <errno>
  return NULL;
}
     362:	4501                	c.li	x10,0
     364:	8082                	c.jr	x1

00000366 <_getpid>:

int _getpid()
{
  return 1;
}
     366:	4505                	c.li	x10,1
     368:	8082                	c.jr	x1

0000036a <_gettimeofday>:

int _gettimeofday(struct timeval *tp, void *tzp)
{
  errno = -ENOSYS;
     36a:	fa800713          	addi	x14,x0,-88
     36e:	f0e1aa23          	sw	x14,-236(x3) # 12bc4 <errno>
  return -1;
}
     372:	557d                	c.li	x10,-1
     374:	8082                	c.jr	x1

00000376 <_isatty>:

int _isatty(int file)
{
  return (file == STDOUT_FILENO);
     376:	157d                	c.addi	x10,-1
}
     378:	00153513          	sltiu	x10,x10,1
     37c:	8082                	c.jr	x1

0000037e <_kill>:

int _kill(int pid, int sig)
{
  errno = EINVAL;
     37e:	4759                	c.li	x14,22
     380:	f0e1aa23          	sw	x14,-236(x3) # 12bc4 <errno>
  return -1;
}
     384:	557d                	c.li	x10,-1
     386:	8082                	c.jr	x1

00000388 <_link>:

int _link(const char *old_name, const char *new_name)
{
  errno = EMLINK;
     388:	477d                	c.li	x14,31
     38a:	f0e1aa23          	sw	x14,-236(x3) # 12bc4 <errno>
  return -1;
}
     38e:	557d                	c.li	x10,-1
     390:	8082                	c.jr	x1

00000392 <_lseek>:

off_t _lseek(int file, off_t ptr, int dir)
{
  return 0;
}
     392:	4501                	c.li	x10,0
     394:	8082                	c.jr	x1

00000396 <_lstat>:

int _lstat(const char *file, struct stat *st)
     396:	05800713          	addi	x14,x0,88
     39a:	f0e1aa23          	sw	x14,-236(x3) # 12bc4 <errno>
     39e:	557d                	c.li	x10,-1
     3a0:	8082                	c.jr	x1

000003a2 <_open>:
}

int _open(const char *name, int flags, int mode)
{
  return -1;
}
     3a2:	557d                	c.li	x10,-1
     3a4:	8082                	c.jr	x1

000003a6 <_openat>:

int _openat(int dirfd, const char *name, int flags, int mode)
     3a6:	05800713          	addi	x14,x0,88
     3aa:	f0e1aa23          	sw	x14,-236(x3) # 12bc4 <errno>
     3ae:	557d                	c.li	x10,-1
     3b0:	8082                	c.jr	x1

000003b2 <_read>:
}

ssize_t _read(int file, void *ptr, size_t len)
{
  return 0;
}
     3b2:	4501                	c.li	x10,0
     3b4:	8082                	c.jr	x1

000003b6 <_stat>:

int _stat(const char *file, struct stat *st)
{
  st->st_mode = S_IFCHR;
     3b6:	6789                	c.lui	x15,0x2
     3b8:	c1dc                	c.sw	x15,4(x11)
  return 0;
  // errno = ENOSYS;
  // return -1;
}
     3ba:	4501                	c.li	x10,0
     3bc:	8082                	c.jr	x1

000003be <_sysconf>:

long _sysconf(int name)
     3be:	557d                	c.li	x10,-1
     3c0:	8082                	c.jr	x1

000003c2 <_times>:
}

clock_t _times(struct tms *buf)
{
  return -1;
}
     3c2:	557d                	c.li	x10,-1
     3c4:	8082                	c.jr	x1

000003c6 <_unlink>:

int _unlink(const char *name)
{
  errno = ENOENT;
     3c6:	4709                	c.li	x14,2
     3c8:	f0e1aa23          	sw	x14,-236(x3) # 12bc4 <errno>
  return -1;
}
     3cc:	557d                	c.li	x10,-1
     3ce:	8082                	c.jr	x1

000003d0 <_utime>:

int _utime(const char *path, const struct utimbuf *times)
     3d0:	05800713          	addi	x14,x0,88
     3d4:	f0e1aa23          	sw	x14,-236(x3) # 12bc4 <errno>
     3d8:	557d                	c.li	x10,-1
     3da:	8082                	c.jr	x1

000003dc <_wait>:
  return -1;
}

int _wait(int *status)
{
  errno = ECHILD;
     3dc:	4729                	c.li	x14,10
     3de:	f0e1aa23          	sw	x14,-236(x3) # 12bc4 <errno>
  return -1;
}
     3e2:	557d                	c.li	x10,-1
     3e4:	8082                	c.jr	x1

000003e6 <_write>:

ssize_t _write(int file, const void *ptr, size_t len)
{
  const char *cptr = (char *)ptr;
  if (file != STDOUT_FILENO)
     3e6:	4685                	c.li	x13,1
    {
      errno = ENOSYS;
      return -1;
    }

  const void *eptr = cptr + len;
     3e8:	00c587b3          	add	x15,x11,x12
  while (cptr != eptr)
    *(volatile int *)STDOUT_REG = *cptr++;
     3ec:	10000737          	lui	x14,0x10000
  if (file != STDOUT_FILENO)
     3f0:	00d50c63          	beq	x10,x13,408 <_write+0x22>
      errno = ENOSYS;
     3f4:	05800713          	addi	x14,x0,88
     3f8:	f0e1aa23          	sw	x14,-236(x3) # 12bc4 <errno>
      return -1;
     3fc:	557d                	c.li	x10,-1
     3fe:	8082                	c.jr	x1
    *(volatile int *)STDOUT_REG = *cptr++;
     400:	0005c683          	lbu	x13,0(x11)
     404:	0585                	c.addi	x11,1
     406:	c314                	c.sw	x13,0(x14)
  while (cptr != eptr)
     408:	fef59ce3          	bne	x11,x15,400 <_write+0x1a>
  return len;
     40c:	8532                	c.mv	x10,x12
}
     40e:	8082                	c.jr	x1

00000410 <_brk>:
extern char __heap_end[];
static char *brk = __heap_start;

int _brk(void *addr)
{
  brk = addr;
     410:	f0a1a023          	sw	x10,-256(x3) # 12bb0 <brk>
  return 0;
}
     414:	4501                	c.li	x10,0
     416:	8082                	c.jr	x1

00000418 <_sbrk>:

void *_sbrk(ptrdiff_t incr)
{
     418:	87aa                	c.mv	x15,x10
  char *old_brk = brk;
     41a:	f001a503          	lw	x10,-256(x3) # 12bb0 <brk>
  register long sp asm("sp");

  char *new_brk = brk += incr;
     41e:	97aa                	c.add	x15,x10
     420:	f0f1a023          	sw	x15,-256(x3) # 12bb0 <brk>
  if (new_brk < (char *) sp && new_brk < __heap_end)
     424:	0027f863          	bgeu	x15,x2,434 <_sbrk+0x1c>
     428:	00400737          	lui	x14,0x400
     42c:	00070713          	addi	x14,x14,0 # 400000 <__heap_end>
     430:	00e7e663          	bltu	x15,x14,43c <_sbrk+0x24>

      return old_brk;
    }
  else
    {
      errno = ENOMEM;
     434:	4731                	c.li	x14,12
     436:	f0e1aa23          	sw	x14,-236(x3) # 12bc4 <errno>
      return (void *) -1;
     43a:	557d                	c.li	x10,-1
    }
}
     43c:	8082                	c.jr	x1

0000043e <handle_syscall>:
    register long syscall_id asm("t0");
  #else
    long syscall_id = a7;
  #endif

  switch (syscall_id) {
     43e:	08100793          	addi	x15,x0,129
     442:	0af88c63          	beq	x17,x15,4fa <handle_syscall+0xbc>
     446:	0717c763          	blt	x15,x17,4b4 <handle_syscall+0x76>
     44a:	04000793          	addi	x15,x0,64
     44e:	0517c663          	blt	x15,x17,49a <handle_syscall+0x5c>
     452:	02f00793          	addi	x15,x0,47
     456:	0317c563          	blt	x15,x17,480 <handle_syscall+0x42>
     45a:	47c5                	c.li	x15,17
     45c:	04f89b63          	bne	x17,x15,4b2 <handle_syscall+0x74>
  errno = -ENOSYS;
     460:	fa800713          	addi	x14,x0,-88
     464:	a861                	c.j	4fc <handle_syscall+0xbe>
  switch (syscall_id) {
     466:	c0088893          	addi	x17,x17,-1024
     46a:	47bd                	c.li	x15,15
     46c:	0517e363          	bltu	x15,x17,4b2 <handle_syscall+0x74>
     470:	67c9                	c.lui	x15,0x12
     472:	c8c78793          	addi	x15,x15,-884 # 11c8c <no_exception_handler_msg+0x30>
     476:	088a                	c.slli	x17,0x2
     478:	98be                	c.add	x17,x15
     47a:	0008a783          	lw	x15,0(x17)
     47e:	8782                	c.jr	x15
     480:	fd088893          	addi	x17,x17,-48
     484:	47c1                	c.li	x15,16
     486:	0317e663          	bltu	x15,x17,4b2 <handle_syscall+0x74>
     48a:	67c9                	c.lui	x15,0x12
     48c:	ccc78793          	addi	x15,x15,-820 # 11ccc <no_exception_handler_msg+0x70>
     490:	088a                	c.slli	x17,0x2
     492:	98be                	c.add	x17,x15
     494:	0008a783          	lw	x15,0(x17)
     498:	8782                	c.jr	x15
     49a:	05000793          	addi	x15,x0,80
     49e:	06f88963          	beq	x17,x15,510 <handle_syscall+0xd2>
     4a2:	05d00793          	addi	x15,x0,93
     4a6:	04f88363          	beq	x17,x15,4ec <handle_syscall+0xae>
     4aa:	04f00793          	addi	x15,x0,79
     4ae:	04f88a63          	beq	x17,x15,502 <handle_syscall+0xc4>
      break;
    case SYS_times:
      _times ((struct tms *) a0);
      break;
    default:
      unimplemented_syscall ();
     4b2:	b511                	c.j	2b6 <unimplemented_syscall>
  switch (syscall_id) {
     4b4:	40f00793          	addi	x15,x0,1039
     4b8:	ff17cde3          	blt	x15,x17,4b2 <handle_syscall+0x74>
     4bc:	3ff00793          	addi	x15,x0,1023
     4c0:	fb17c3e3          	blt	x15,x17,466 <handle_syscall+0x28>
     4c4:	0ac00793          	addi	x15,x0,172
     4c8:	04f88763          	beq	x17,x15,516 <handle_syscall+0xd8>
     4cc:	0117c963          	blt	x15,x17,4de <handle_syscall+0xa0>
     4d0:	09900793          	addi	x15,x0,153
     4d4:	04f88163          	beq	x17,x15,516 <handle_syscall+0xd8>
     4d8:	0a900793          	addi	x15,x0,169
     4dc:	b741                	c.j	45c <handle_syscall+0x1e>
     4de:	0d600793          	addi	x15,x0,214
     4e2:	fcf898e3          	bne	x17,x15,4b2 <handle_syscall+0x74>
  brk = addr;
     4e6:	f0a1a023          	sw	x10,-256(x3) # 12bb0 <brk>
  return 0;
     4ea:	8082                	c.jr	x1
  *(volatile int *)EXIT_REG = exit_status;
     4ec:	200007b7          	lui	x15,0x20000
     4f0:	c3c8                	c.sw	x10,4(x15)
  asm volatile("wfi");
     4f2:	10500073          	wfi
  while (1) {};
     4f6:	a001                	c.j	4f6 <handle_syscall+0xb8>
      _write (a0, (const void *) a1, a2);
     4f8:	b5fd                	c.j	3e6 <_write>
  errno = EINVAL;
     4fa:	4759                	c.li	x14,22
  errno = ENOSYS;
     4fc:	f0e1aa23          	sw	x14,-236(x3) # 12bc4 <errno>
  return -1;
     500:	8082                	c.jr	x1
  errno = ENOSYS;
     502:	05800713          	addi	x14,x0,88
     506:	bfdd                	c.j	4fc <handle_syscall+0xbe>
  errno = EMLINK;
     508:	477d                	c.li	x14,31
     50a:	bfcd                	c.j	4fc <handle_syscall+0xbe>
  errno = ENOENT;
     50c:	4709                	c.li	x14,2
     50e:	b7fd                	c.j	4fc <handle_syscall+0xbe>
  st->st_mode = S_IFCHR;
     510:	6789                	c.lui	x15,0x2
     512:	c1dc                	c.sw	x15,4(x11)
  return 0;
     514:	8082                	c.jr	x1
      break;
  }
}
     516:	8082                	c.jr	x1

00000518 <exit>:
     518:	ff010113          	addi	x2,x2,-16
     51c:	00000593          	addi	x11,x0,0
     520:	00812423          	sw	x8,8(x2)
     524:	00112623          	sw	x1,12(x2)
     528:	00050413          	addi	x8,x10,0
     52c:	018000ef          	jal	x1,544 <__call_exitprocs>
     530:	f181a783          	lw	x15,-232(x3) # 12bc8 <__stdio_exit_handler>
     534:	00078463          	beq	x15,x0,53c <exit+0x24>
     538:	000780e7          	jalr	x1,0(x15) # 2000 <_vfprintf_r+0x620>
     53c:	00040513          	addi	x10,x8,0
     540:	dd9ff0ef          	jal	x1,318 <_exit>

00000544 <__call_exitprocs>:
     544:	fd010113          	addi	x2,x2,-48
     548:	01412c23          	sw	x20,24(x2)
     54c:	f1018a13          	addi	x20,x3,-240 # 12bc0 <__atexit>
     550:	03212023          	sw	x18,32(x2)
     554:	000a2903          	lw	x18,0(x20)
     558:	02112623          	sw	x1,44(x2)
     55c:	06090c63          	beq	x18,x0,5d4 <__call_exitprocs+0x90>
     560:	01312e23          	sw	x19,28(x2)
     564:	01512a23          	sw	x21,20(x2)
     568:	01612823          	sw	x22,16(x2)
     56c:	01712623          	sw	x23,12(x2)
     570:	02812423          	sw	x8,40(x2)
     574:	02912223          	sw	x9,36(x2)
     578:	01812423          	sw	x24,8(x2)
     57c:	00050b13          	addi	x22,x10,0
     580:	00058b93          	addi	x23,x11,0
     584:	fff00993          	addi	x19,x0,-1
     588:	00100a93          	addi	x21,x0,1
     58c:	00492483          	lw	x9,4(x18)
     590:	fff48413          	addi	x8,x9,-1
     594:	02044263          	blt	x8,x0,5b8 <__call_exitprocs+0x74>
     598:	00249493          	slli	x9,x9,0x2
     59c:	009904b3          	add	x9,x18,x9
     5a0:	040b8463          	beq	x23,x0,5e8 <__call_exitprocs+0xa4>
     5a4:	1044a783          	lw	x15,260(x9)
     5a8:	05778063          	beq	x15,x23,5e8 <__call_exitprocs+0xa4>
     5ac:	fff40413          	addi	x8,x8,-1
     5b0:	ffc48493          	addi	x9,x9,-4
     5b4:	ff3418e3          	bne	x8,x19,5a4 <__call_exitprocs+0x60>
     5b8:	02812403          	lw	x8,40(x2)
     5bc:	02412483          	lw	x9,36(x2)
     5c0:	01c12983          	lw	x19,28(x2)
     5c4:	01412a83          	lw	x21,20(x2)
     5c8:	01012b03          	lw	x22,16(x2)
     5cc:	00c12b83          	lw	x23,12(x2)
     5d0:	00812c03          	lw	x24,8(x2)
     5d4:	02c12083          	lw	x1,44(x2)
     5d8:	02012903          	lw	x18,32(x2)
     5dc:	01812a03          	lw	x20,24(x2)
     5e0:	03010113          	addi	x2,x2,48
     5e4:	00008067          	jalr	x0,0(x1)
     5e8:	00492783          	lw	x15,4(x18)
     5ec:	0044a683          	lw	x13,4(x9)
     5f0:	fff78793          	addi	x15,x15,-1
     5f4:	06878a63          	beq	x15,x8,668 <__call_exitprocs+0x124>
     5f8:	0004a223          	sw	x0,4(x9)
     5fc:	02068663          	beq	x13,x0,628 <__call_exitprocs+0xe4>
     600:	18892783          	lw	x15,392(x18)
     604:	008a9733          	sll	x14,x21,x8
     608:	00492c03          	lw	x24,4(x18)
     60c:	00f777b3          	and	x15,x14,x15
     610:	02079463          	bne	x15,x0,638 <__call_exitprocs+0xf4>
     614:	000680e7          	jalr	x1,0(x13) # 10000000 <__heap_end+0xfc00000>
     618:	00492703          	lw	x14,4(x18)
     61c:	000a2783          	lw	x15,0(x20)
     620:	03871e63          	bne	x14,x24,65c <__call_exitprocs+0x118>
     624:	03279c63          	bne	x15,x18,65c <__call_exitprocs+0x118>
     628:	fff40413          	addi	x8,x8,-1
     62c:	ffc48493          	addi	x9,x9,-4
     630:	f73418e3          	bne	x8,x19,5a0 <__call_exitprocs+0x5c>
     634:	f85ff06f          	jal	x0,5b8 <__call_exitprocs+0x74>
     638:	18c92783          	lw	x15,396(x18)
     63c:	0844a583          	lw	x11,132(x9)
     640:	00f77733          	and	x14,x14,x15
     644:	02071663          	bne	x14,x0,670 <__call_exitprocs+0x12c>
     648:	000b0513          	addi	x10,x22,0
     64c:	000680e7          	jalr	x1,0(x13)
     650:	00492703          	lw	x14,4(x18)
     654:	000a2783          	lw	x15,0(x20)
     658:	fd8706e3          	beq	x14,x24,624 <__call_exitprocs+0xe0>
     65c:	f4078ee3          	beq	x15,x0,5b8 <__call_exitprocs+0x74>
     660:	00078913          	addi	x18,x15,0
     664:	f29ff06f          	jal	x0,58c <__call_exitprocs+0x48>
     668:	00892223          	sw	x8,4(x18)
     66c:	f91ff06f          	jal	x0,5fc <__call_exitprocs+0xb8>
     670:	00058513          	addi	x10,x11,0
     674:	000680e7          	jalr	x1,0(x13)
     678:	fa1ff06f          	jal	x0,618 <__call_exitprocs+0xd4>

0000067c <__libc_init_array>:
     67c:	ff010113          	addi	x2,x2,-16
     680:	00812423          	sw	x8,8(x2)
     684:	01212023          	sw	x18,0(x2)
     688:	00012797          	auipc	x15,0x12
     68c:	e2478793          	addi	x15,x15,-476 # 124ac <__init_array_start>
     690:	00012417          	auipc	x8,0x12
     694:	e1c40413          	addi	x8,x8,-484 # 124ac <__init_array_start>
     698:	00112623          	sw	x1,12(x2)
     69c:	00912223          	sw	x9,4(x2)
     6a0:	40878933          	sub	x18,x15,x8
     6a4:	02878063          	beq	x15,x8,6c4 <__libc_init_array+0x48>
     6a8:	40295913          	srai	x18,x18,0x2
     6ac:	00000493          	addi	x9,x0,0
     6b0:	00042783          	lw	x15,0(x8)
     6b4:	00148493          	addi	x9,x9,1
     6b8:	00440413          	addi	x8,x8,4
     6bc:	000780e7          	jalr	x1,0(x15)
     6c0:	ff24e8e3          	bltu	x9,x18,6b0 <__libc_init_array+0x34>
     6c4:	00012797          	auipc	x15,0x12
     6c8:	dec78793          	addi	x15,x15,-532 # 124b0 <_impure_data>
     6cc:	00012417          	auipc	x8,0x12
     6d0:	de040413          	addi	x8,x8,-544 # 124ac <__init_array_start>
     6d4:	40878933          	sub	x18,x15,x8
     6d8:	40295913          	srai	x18,x18,0x2
     6dc:	00878e63          	beq	x15,x8,6f8 <__libc_init_array+0x7c>
     6e0:	00000493          	addi	x9,x0,0
     6e4:	00042783          	lw	x15,0(x8)
     6e8:	00148493          	addi	x9,x9,1
     6ec:	00440413          	addi	x8,x8,4
     6f0:	000780e7          	jalr	x1,0(x15)
     6f4:	ff24e8e3          	bltu	x9,x18,6e4 <__libc_init_array+0x68>
     6f8:	00c12083          	lw	x1,12(x2)
     6fc:	00812403          	lw	x8,8(x2)
     700:	00412483          	lw	x9,4(x2)
     704:	00012903          	lw	x18,0(x2)
     708:	01010113          	addi	x2,x2,16
     70c:	00008067          	jalr	x0,0(x1)

00000710 <__libc_fini_array>:
     710:	ff010113          	addi	x2,x2,-16
     714:	00812423          	sw	x8,8(x2)
     718:	00012797          	auipc	x15,0x12
     71c:	d9878793          	addi	x15,x15,-616 # 124b0 <_impure_data>
     720:	00012417          	auipc	x8,0x12
     724:	d9040413          	addi	x8,x8,-624 # 124b0 <_impure_data>
     728:	40f40433          	sub	x8,x8,x15
     72c:	00912223          	sw	x9,4(x2)
     730:	00112623          	sw	x1,12(x2)
     734:	40245493          	srai	x9,x8,0x2
     738:	02048063          	beq	x9,x0,758 <__libc_fini_array+0x48>
     73c:	ffc40413          	addi	x8,x8,-4
     740:	00f40433          	add	x8,x8,x15
     744:	00042783          	lw	x15,0(x8)
     748:	fff48493          	addi	x9,x9,-1
     74c:	ffc40413          	addi	x8,x8,-4
     750:	000780e7          	jalr	x1,0(x15)
     754:	fe0498e3          	bne	x9,x0,744 <__libc_fini_array+0x34>
     758:	00c12083          	lw	x1,12(x2)
     75c:	00812403          	lw	x8,8(x2)
     760:	00412483          	lw	x9,4(x2)
     764:	01010113          	addi	x2,x2,16
     768:	00008067          	jalr	x0,0(x1)

0000076c <memset>:
     76c:	00f00313          	addi	x6,x0,15
     770:	00050713          	addi	x14,x10,0
     774:	02c37e63          	bgeu	x6,x12,7b0 <memset+0x44>
     778:	00f77793          	andi	x15,x14,15
     77c:	0a079063          	bne	x15,x0,81c <memset+0xb0>
     780:	08059263          	bne	x11,x0,804 <memset+0x98>
     784:	ff067693          	andi	x13,x12,-16
     788:	00f67613          	andi	x12,x12,15
     78c:	00e686b3          	add	x13,x13,x14
     790:	00b72023          	sw	x11,0(x14)
     794:	00b72223          	sw	x11,4(x14)
     798:	00b72423          	sw	x11,8(x14)
     79c:	00b72623          	sw	x11,12(x14)
     7a0:	01070713          	addi	x14,x14,16
     7a4:	fed766e3          	bltu	x14,x13,790 <memset+0x24>
     7a8:	00061463          	bne	x12,x0,7b0 <memset+0x44>
     7ac:	00008067          	jalr	x0,0(x1)
     7b0:	40c306b3          	sub	x13,x6,x12
     7b4:	00269693          	slli	x13,x13,0x2
     7b8:	00000297          	auipc	x5,0x0
     7bc:	005686b3          	add	x13,x13,x5
     7c0:	00c68067          	jalr	x0,12(x13)
     7c4:	00b70723          	sb	x11,14(x14)
     7c8:	00b706a3          	sb	x11,13(x14)
     7cc:	00b70623          	sb	x11,12(x14)
     7d0:	00b705a3          	sb	x11,11(x14)
     7d4:	00b70523          	sb	x11,10(x14)
     7d8:	00b704a3          	sb	x11,9(x14)
     7dc:	00b70423          	sb	x11,8(x14)
     7e0:	00b703a3          	sb	x11,7(x14)
     7e4:	00b70323          	sb	x11,6(x14)
     7e8:	00b702a3          	sb	x11,5(x14)
     7ec:	00b70223          	sb	x11,4(x14)
     7f0:	00b701a3          	sb	x11,3(x14)
     7f4:	00b70123          	sb	x11,2(x14)
     7f8:	00b700a3          	sb	x11,1(x14)
     7fc:	00b70023          	sb	x11,0(x14)
     800:	00008067          	jalr	x0,0(x1)
     804:	0ff5f593          	andi	x11,x11,255
     808:	00859693          	slli	x13,x11,0x8
     80c:	00d5e5b3          	or	x11,x11,x13
     810:	01059693          	slli	x13,x11,0x10
     814:	00d5e5b3          	or	x11,x11,x13
     818:	f6dff06f          	jal	x0,784 <memset+0x18>
     81c:	00279693          	slli	x13,x15,0x2
     820:	00000297          	auipc	x5,0x0
     824:	005686b3          	add	x13,x13,x5
     828:	00008293          	addi	x5,x1,0
     82c:	fa0680e7          	jalr	x1,-96(x13)
     830:	00028093          	addi	x1,x5,0 # 820 <memset+0xb4>
     834:	ff078793          	addi	x15,x15,-16
     838:	40f70733          	sub	x14,x14,x15
     83c:	00f60633          	add	x12,x12,x15
     840:	f6c378e3          	bgeu	x6,x12,7b0 <memset+0x44>
     844:	f3dff06f          	jal	x0,780 <memset+0x14>

00000848 <_printf_r>:
     848:	fc010113          	addi	x2,x2,-64
     84c:	02c12423          	sw	x12,40(x2)
     850:	02d12623          	sw	x13,44(x2)
     854:	02e12823          	sw	x14,48(x2)
     858:	02f12a23          	sw	x15,52(x2)
     85c:	03012c23          	sw	x16,56(x2)
     860:	03112e23          	sw	x17,60(x2)
     864:	00058613          	addi	x12,x11,0
     868:	00852583          	lw	x11,8(x10)
     86c:	02810693          	addi	x13,x2,40
     870:	00112e23          	sw	x1,28(x2)
     874:	00d12623          	sw	x13,12(x2)
     878:	168010ef          	jal	x1,19e0 <_vfprintf_r>
     87c:	01c12083          	lw	x1,28(x2)
     880:	04010113          	addi	x2,x2,64
     884:	00008067          	jalr	x0,0(x1)

00000888 <printf>:
     888:	fc010113          	addi	x2,x2,-64
     88c:	02c12423          	sw	x12,40(x2)
     890:	02d12623          	sw	x13,44(x2)
     894:	f041a303          	lw	x6,-252(x3) # 12bb4 <_impure_ptr>
     898:	02b12223          	sw	x11,36(x2)
     89c:	02e12823          	sw	x14,48(x2)
     8a0:	02f12a23          	sw	x15,52(x2)
     8a4:	03012c23          	sw	x16,56(x2)
     8a8:	03112e23          	sw	x17,60(x2)
     8ac:	00832583          	lw	x11,8(x6)
     8b0:	02410693          	addi	x13,x2,36
     8b4:	00050613          	addi	x12,x10,0
     8b8:	00030513          	addi	x10,x6,0
     8bc:	00112e23          	sw	x1,28(x2)
     8c0:	00d12623          	sw	x13,12(x2)
     8c4:	11c010ef          	jal	x1,19e0 <_vfprintf_r>
     8c8:	01c12083          	lw	x1,28(x2)
     8cc:	04010113          	addi	x2,x2,64
     8d0:	00008067          	jalr	x0,0(x1)

000008d4 <_putchar_r>:
     8d4:	00852603          	lw	x12,8(x10)
     8d8:	19c0606f          	jal	x0,6a74 <_putc_r>

000008dc <putchar>:
     8dc:	f041a783          	lw	x15,-252(x3) # 12bb4 <_impure_ptr>
     8e0:	0087a603          	lw	x12,8(x15)
     8e4:	00050593          	addi	x11,x10,0
     8e8:	00078513          	addi	x10,x15,0
     8ec:	1880606f          	jal	x0,6a74 <_putc_r>

000008f0 <_puts_r>:
     8f0:	fc010113          	addi	x2,x2,-64
     8f4:	02812c23          	sw	x8,56(x2)
     8f8:	00050413          	addi	x8,x10,0
     8fc:	00058513          	addi	x10,x11,0
     900:	02912a23          	sw	x9,52(x2)
     904:	02112e23          	sw	x1,60(x2)
     908:	00058493          	addi	x9,x11,0
     90c:	551050ef          	jal	x1,665c <strlen>
     910:	00150713          	addi	x14,x10,1
     914:	00011697          	auipc	x13,0x11
     918:	18c68693          	addi	x13,x13,396 # 11aa0 <__clzsi2+0x324>
     91c:	00e12e23          	sw	x14,28(x2)
     920:	03442783          	lw	x15,52(x8)
     924:	02010713          	addi	x14,x2,32
     928:	02d12423          	sw	x13,40(x2)
     92c:	00e12a23          	sw	x14,20(x2)
     930:	00100693          	addi	x13,x0,1
     934:	00200713          	addi	x14,x0,2
     938:	02912023          	sw	x9,32(x2)
     93c:	02a12223          	sw	x10,36(x2)
     940:	02d12623          	sw	x13,44(x2)
     944:	00e12c23          	sw	x14,24(x2)
     948:	00842583          	lw	x11,8(x8)
     94c:	06078063          	beq	x15,x0,9ac <_puts_r+0xbc>
     950:	00c59783          	lh	x15,12(x11)
     954:	01279713          	slli	x14,x15,0x12
     958:	02074263          	blt	x14,x0,97c <_puts_r+0x8c>
     95c:	0645a703          	lw	x14,100(x11)
     960:	000026b7          	lui	x13,0x2
     964:	00d7e7b3          	or	x15,x15,x13
     968:	ffffe6b7          	lui	x13,0xffffe
     96c:	fff68693          	addi	x13,x13,-1 # ffffdfff <__heap_end+0xffbfdfff>
     970:	00d77733          	and	x14,x14,x13
     974:	00f59623          	sh	x15,12(x11)
     978:	06e5a223          	sw	x14,100(x11)
     97c:	01410613          	addi	x12,x2,20
     980:	00040513          	addi	x10,x8,0
     984:	251000ef          	jal	x1,13d4 <__sfvwrite_r>
     988:	03c12083          	lw	x1,60(x2)
     98c:	03812403          	lw	x8,56(x2)
     990:	00153513          	sltiu	x10,x10,1
     994:	40a00533          	sub	x10,x0,x10
     998:	00b57513          	andi	x10,x10,11
     99c:	03412483          	lw	x9,52(x2)
     9a0:	fff50513          	addi	x10,x10,-1
     9a4:	04010113          	addi	x2,x2,64
     9a8:	00008067          	jalr	x0,0(x1)
     9ac:	00040513          	addi	x10,x8,0
     9b0:	00b12623          	sw	x11,12(x2)
     9b4:	3f4000ef          	jal	x1,da8 <__sinit>
     9b8:	00c12583          	lw	x11,12(x2)
     9bc:	f95ff06f          	jal	x0,950 <_puts_r+0x60>

000009c0 <puts>:
     9c0:	00050593          	addi	x11,x10,0
     9c4:	f041a503          	lw	x10,-252(x3) # 12bb4 <_impure_ptr>
     9c8:	f29ff06f          	jal	x0,8f0 <_puts_r>

000009cc <atexit>:
     9cc:	00050593          	addi	x11,x10,0
     9d0:	00000693          	addi	x13,x0,0
     9d4:	00000613          	addi	x12,x0,0
     9d8:	00000513          	addi	x10,x0,0
     9dc:	7650406f          	jal	x0,5940 <__register_exitproc>

000009e0 <_reclaim_reent>:
     9e0:	f041a783          	lw	x15,-252(x3) # 12bb4 <_impure_ptr>
     9e4:	0aa78e63          	beq	x15,x10,aa0 <_reclaim_reent+0xc0>
     9e8:	04452583          	lw	x11,68(x10)
     9ec:	fe010113          	addi	x2,x2,-32
     9f0:	00912a23          	sw	x9,20(x2)
     9f4:	00112e23          	sw	x1,28(x2)
     9f8:	00050493          	addi	x9,x10,0
     9fc:	04058c63          	beq	x11,x0,a54 <_reclaim_reent+0x74>
     a00:	01212823          	sw	x18,16(x2)
     a04:	01312623          	sw	x19,12(x2)
     a08:	00812c23          	sw	x8,24(x2)
     a0c:	00000913          	addi	x18,x0,0
     a10:	08000993          	addi	x19,x0,128
     a14:	012587b3          	add	x15,x11,x18
     a18:	0007a403          	lw	x8,0(x15)
     a1c:	00040e63          	beq	x8,x0,a38 <_reclaim_reent+0x58>
     a20:	00040593          	addi	x11,x8,0
     a24:	00042403          	lw	x8,0(x8)
     a28:	00048513          	addi	x10,x9,0
     a2c:	508000ef          	jal	x1,f34 <_free_r>
     a30:	fe0418e3          	bne	x8,x0,a20 <_reclaim_reent+0x40>
     a34:	0444a583          	lw	x11,68(x9)
     a38:	00490913          	addi	x18,x18,4
     a3c:	fd391ce3          	bne	x18,x19,a14 <_reclaim_reent+0x34>
     a40:	00048513          	addi	x10,x9,0
     a44:	4f0000ef          	jal	x1,f34 <_free_r>
     a48:	01812403          	lw	x8,24(x2)
     a4c:	01012903          	lw	x18,16(x2)
     a50:	00c12983          	lw	x19,12(x2)
     a54:	0384a583          	lw	x11,56(x9)
     a58:	00058663          	beq	x11,x0,a64 <_reclaim_reent+0x84>
     a5c:	00048513          	addi	x10,x9,0
     a60:	4d4000ef          	jal	x1,f34 <_free_r>
     a64:	04c4a583          	lw	x11,76(x9)
     a68:	00058663          	beq	x11,x0,a74 <_reclaim_reent+0x94>
     a6c:	00048513          	addi	x10,x9,0
     a70:	4c4000ef          	jal	x1,f34 <_free_r>
     a74:	0344a783          	lw	x15,52(x9)
     a78:	00078c63          	beq	x15,x0,a90 <_reclaim_reent+0xb0>
     a7c:	01c12083          	lw	x1,28(x2)
     a80:	00048513          	addi	x10,x9,0
     a84:	01412483          	lw	x9,20(x2)
     a88:	02010113          	addi	x2,x2,32
     a8c:	00078067          	jalr	x0,0(x15)
     a90:	01c12083          	lw	x1,28(x2)
     a94:	01412483          	lw	x9,20(x2)
     a98:	02010113          	addi	x2,x2,32
     a9c:	00008067          	jalr	x0,0(x1)
     aa0:	00008067          	jalr	x0,0(x1)

00000aa4 <__fp_lock>:
     aa4:	00000513          	addi	x10,x0,0
     aa8:	00008067          	jalr	x0,0(x1)

00000aac <stdio_exit_handler>:
     aac:	92018613          	addi	x12,x3,-1760 # 125d0 <__sglue>
     ab0:	00005597          	auipc	x11,0x5
     ab4:	7d858593          	addi	x11,x11,2008 # 6288 <_fclose_r>
     ab8:	00012517          	auipc	x10,0x12
     abc:	9f850513          	addi	x10,x10,-1544 # 124b0 <_impure_data>
     ac0:	66d0006f          	jal	x0,192c <_fwalk_sglue>

00000ac4 <cleanup_stdio>:
     ac4:	00452583          	lw	x11,4(x10)
     ac8:	ff010113          	addi	x2,x2,-16
     acc:	00812423          	sw	x8,8(x2)
     ad0:	00112623          	sw	x1,12(x2)
     ad4:	f2c18793          	addi	x15,x3,-212 # 12bdc <__sf>
     ad8:	00050413          	addi	x8,x10,0
     adc:	00f58463          	beq	x11,x15,ae4 <cleanup_stdio+0x20>
     ae0:	7a8050ef          	jal	x1,6288 <_fclose_r>
     ae4:	00842583          	lw	x11,8(x8)
     ae8:	f9418793          	addi	x15,x3,-108 # 12c44 <__sf+0x68>
     aec:	00f58663          	beq	x11,x15,af8 <cleanup_stdio+0x34>
     af0:	00040513          	addi	x10,x8,0
     af4:	794050ef          	jal	x1,6288 <_fclose_r>
     af8:	00c42583          	lw	x11,12(x8)
     afc:	ffc18793          	addi	x15,x3,-4 # 12cac <__sf+0xd0>
     b00:	00f58c63          	beq	x11,x15,b18 <cleanup_stdio+0x54>
     b04:	00040513          	addi	x10,x8,0
     b08:	00812403          	lw	x8,8(x2)
     b0c:	00c12083          	lw	x1,12(x2)
     b10:	01010113          	addi	x2,x2,16
     b14:	7740506f          	jal	x0,6288 <_fclose_r>
     b18:	00c12083          	lw	x1,12(x2)
     b1c:	00812403          	lw	x8,8(x2)
     b20:	01010113          	addi	x2,x2,16
     b24:	00008067          	jalr	x0,0(x1)

00000b28 <__fp_unlock>:
     b28:	00000513          	addi	x10,x0,0
     b2c:	00008067          	jalr	x0,0(x1)

00000b30 <global_stdio_init.part.0>:
     b30:	fe010113          	addi	x2,x2,-32
     b34:	00000797          	auipc	x15,0x0
     b38:	f7878793          	addi	x15,x15,-136 # aac <stdio_exit_handler>
     b3c:	00112e23          	sw	x1,28(x2)
     b40:	00812c23          	sw	x8,24(x2)
     b44:	00912a23          	sw	x9,20(x2)
     b48:	f2c18413          	addi	x8,x3,-212 # 12bdc <__sf>
     b4c:	01212823          	sw	x18,16(x2)
     b50:	01312623          	sw	x19,12(x2)
     b54:	01412423          	sw	x20,8(x2)
     b58:	00800613          	addi	x12,x0,8
     b5c:	00000593          	addi	x11,x0,0
     b60:	f0f1ac23          	sw	x15,-232(x3) # 12bc8 <__stdio_exit_handler>
     b64:	f8818513          	addi	x10,x3,-120 # 12c38 <__sf+0x5c>
     b68:	00400793          	addi	x15,x0,4
     b6c:	00f42623          	sw	x15,12(x8)
     b70:	00042023          	sw	x0,0(x8)
     b74:	00042223          	sw	x0,4(x8)
     b78:	00042423          	sw	x0,8(x8)
     b7c:	06042223          	sw	x0,100(x8)
     b80:	00042823          	sw	x0,16(x8)
     b84:	00042a23          	sw	x0,20(x8)
     b88:	00042c23          	sw	x0,24(x8)
     b8c:	be1ff0ef          	jal	x1,76c <memset>
     b90:	000107b7          	lui	x15,0x10
     b94:	00000a17          	auipc	x20,0x0
     b98:	698a0a13          	addi	x20,x20,1688 # 122c <__sread>
     b9c:	00000997          	auipc	x19,0x0
     ba0:	6f498993          	addi	x19,x19,1780 # 1290 <__swrite>
     ba4:	00000917          	auipc	x18,0x0
     ba8:	77490913          	addi	x18,x18,1908 # 1318 <__sseek>
     bac:	00000497          	auipc	x9,0x0
     bb0:	7d048493          	addi	x9,x9,2000 # 137c <__sclose>
     bb4:	00978793          	addi	x15,x15,9 # 10009 <__subtf3+0x579>
     bb8:	00800613          	addi	x12,x0,8
     bbc:	00000593          	addi	x11,x0,0
     bc0:	ff018513          	addi	x10,x3,-16 # 12ca0 <__sf+0xc4>
     bc4:	03442023          	sw	x20,32(x8)
     bc8:	03342223          	sw	x19,36(x8)
     bcc:	03242423          	sw	x18,40(x8)
     bd0:	02942623          	sw	x9,44(x8)
     bd4:	06f42a23          	sw	x15,116(x8)
     bd8:	00842e23          	sw	x8,28(x8)
     bdc:	06042423          	sw	x0,104(x8)
     be0:	06042623          	sw	x0,108(x8)
     be4:	06042823          	sw	x0,112(x8)
     be8:	0c042623          	sw	x0,204(x8)
     bec:	06042c23          	sw	x0,120(x8)
     bf0:	06042e23          	sw	x0,124(x8)
     bf4:	08042023          	sw	x0,128(x8)
     bf8:	b75ff0ef          	jal	x1,76c <memset>
     bfc:	f9418793          	addi	x15,x3,-108 # 12c44 <__sf+0x68>
     c00:	08f42223          	sw	x15,132(x8)
     c04:	000207b7          	lui	x15,0x20
     c08:	01278793          	addi	x15,x15,18 # 20012 <__heap_start+0xd142>
     c0c:	00800613          	addi	x12,x0,8
     c10:	00000593          	addi	x11,x0,0
     c14:	05818513          	addi	x10,x3,88 # 12d08 <__global_pointer$+0x58>
     c18:	09442423          	sw	x20,136(x8)
     c1c:	09342623          	sw	x19,140(x8)
     c20:	09242823          	sw	x18,144(x8)
     c24:	08942a23          	sw	x9,148(x8)
     c28:	0cf42e23          	sw	x15,220(x8)
     c2c:	0c042823          	sw	x0,208(x8)
     c30:	0c042a23          	sw	x0,212(x8)
     c34:	0c042c23          	sw	x0,216(x8)
     c38:	12042a23          	sw	x0,308(x8)
     c3c:	0e042023          	sw	x0,224(x8)
     c40:	0e042223          	sw	x0,228(x8)
     c44:	0e042423          	sw	x0,232(x8)
     c48:	b25ff0ef          	jal	x1,76c <memset>
     c4c:	ffc18793          	addi	x15,x3,-4 # 12cac <__sf+0xd0>
     c50:	0f442823          	sw	x20,240(x8)
     c54:	0f342a23          	sw	x19,244(x8)
     c58:	0f242c23          	sw	x18,248(x8)
     c5c:	0e942e23          	sw	x9,252(x8)
     c60:	01c12083          	lw	x1,28(x2)
     c64:	0ef42623          	sw	x15,236(x8)
     c68:	01812403          	lw	x8,24(x2)
     c6c:	01412483          	lw	x9,20(x2)
     c70:	01012903          	lw	x18,16(x2)
     c74:	00c12983          	lw	x19,12(x2)
     c78:	00812a03          	lw	x20,8(x2)
     c7c:	02010113          	addi	x2,x2,32
     c80:	00008067          	jalr	x0,0(x1)

00000c84 <__sfp>:
     c84:	fe010113          	addi	x2,x2,-32
     c88:	01312623          	sw	x19,12(x2)
     c8c:	00112e23          	sw	x1,28(x2)
     c90:	00812c23          	sw	x8,24(x2)
     c94:	00912a23          	sw	x9,20(x2)
     c98:	01212823          	sw	x18,16(x2)
     c9c:	f181a783          	lw	x15,-232(x3) # 12bc8 <__stdio_exit_handler>
     ca0:	00050993          	addi	x19,x10,0
     ca4:	0e078663          	beq	x15,x0,d90 <__sfp+0x10c>
     ca8:	92018913          	addi	x18,x3,-1760 # 125d0 <__sglue>
     cac:	fff00493          	addi	x9,x0,-1
     cb0:	00492783          	lw	x15,4(x18)
     cb4:	00892403          	lw	x8,8(x18)
     cb8:	fff78793          	addi	x15,x15,-1
     cbc:	0007d863          	bge	x15,x0,ccc <__sfp+0x48>
     cc0:	0800006f          	jal	x0,d40 <__sfp+0xbc>
     cc4:	06840413          	addi	x8,x8,104
     cc8:	06978c63          	beq	x15,x9,d40 <__sfp+0xbc>
     ccc:	00c41703          	lh	x14,12(x8)
     cd0:	fff78793          	addi	x15,x15,-1
     cd4:	fe0718e3          	bne	x14,x0,cc4 <__sfp+0x40>
     cd8:	ffff07b7          	lui	x15,0xffff0
     cdc:	00178793          	addi	x15,x15,1 # ffff0001 <__heap_end+0xffbf0001>
     ce0:	00f42623          	sw	x15,12(x8)
     ce4:	06042223          	sw	x0,100(x8)
     ce8:	00042023          	sw	x0,0(x8)
     cec:	00042423          	sw	x0,8(x8)
     cf0:	00042223          	sw	x0,4(x8)
     cf4:	00042823          	sw	x0,16(x8)
     cf8:	00042a23          	sw	x0,20(x8)
     cfc:	00042c23          	sw	x0,24(x8)
     d00:	00800613          	addi	x12,x0,8
     d04:	00000593          	addi	x11,x0,0
     d08:	05c40513          	addi	x10,x8,92
     d0c:	a61ff0ef          	jal	x1,76c <memset>
     d10:	02042823          	sw	x0,48(x8)
     d14:	02042a23          	sw	x0,52(x8)
     d18:	04042223          	sw	x0,68(x8)
     d1c:	04042423          	sw	x0,72(x8)
     d20:	01c12083          	lw	x1,28(x2)
     d24:	00040513          	addi	x10,x8,0
     d28:	01812403          	lw	x8,24(x2)
     d2c:	01412483          	lw	x9,20(x2)
     d30:	01012903          	lw	x18,16(x2)
     d34:	00c12983          	lw	x19,12(x2)
     d38:	02010113          	addi	x2,x2,32
     d3c:	00008067          	jalr	x0,0(x1)
     d40:	00092403          	lw	x8,0(x18)
     d44:	00040663          	beq	x8,x0,d50 <__sfp+0xcc>
     d48:	00040913          	addi	x18,x8,0
     d4c:	f65ff06f          	jal	x0,cb0 <__sfp+0x2c>
     d50:	1ac00593          	addi	x11,x0,428
     d54:	00098513          	addi	x10,x19,0
     d58:	481040ef          	jal	x1,59d8 <_malloc_r>
     d5c:	00050413          	addi	x8,x10,0
     d60:	02050c63          	beq	x10,x0,d98 <__sfp+0x114>
     d64:	00c50513          	addi	x10,x10,12
     d68:	00400793          	addi	x15,x0,4
     d6c:	00042023          	sw	x0,0(x8)
     d70:	00f42223          	sw	x15,4(x8)
     d74:	00a42423          	sw	x10,8(x8)
     d78:	1a000613          	addi	x12,x0,416
     d7c:	00000593          	addi	x11,x0,0
     d80:	9edff0ef          	jal	x1,76c <memset>
     d84:	00892023          	sw	x8,0(x18)
     d88:	00040913          	addi	x18,x8,0
     d8c:	f25ff06f          	jal	x0,cb0 <__sfp+0x2c>
     d90:	da1ff0ef          	jal	x1,b30 <global_stdio_init.part.0>
     d94:	f15ff06f          	jal	x0,ca8 <__sfp+0x24>
     d98:	00092023          	sw	x0,0(x18)
     d9c:	00c00793          	addi	x15,x0,12
     da0:	00f9a023          	sw	x15,0(x19)
     da4:	f7dff06f          	jal	x0,d20 <__sfp+0x9c>

00000da8 <__sinit>:
     da8:	03452783          	lw	x15,52(x10)
     dac:	00078463          	beq	x15,x0,db4 <__sinit+0xc>
     db0:	00008067          	jalr	x0,0(x1)
     db4:	00000797          	auipc	x15,0x0
     db8:	d1078793          	addi	x15,x15,-752 # ac4 <cleanup_stdio>
     dbc:	02f52a23          	sw	x15,52(x10)
     dc0:	f181a783          	lw	x15,-232(x3) # 12bc8 <__stdio_exit_handler>
     dc4:	fe0796e3          	bne	x15,x0,db0 <__sinit+0x8>
     dc8:	d69ff06f          	jal	x0,b30 <global_stdio_init.part.0>

00000dcc <__sfp_lock_acquire>:
     dcc:	00008067          	jalr	x0,0(x1)

00000dd0 <__sfp_lock_release>:
     dd0:	00008067          	jalr	x0,0(x1)

00000dd4 <__fp_lock_all>:
     dd4:	92018613          	addi	x12,x3,-1760 # 125d0 <__sglue>
     dd8:	00000597          	auipc	x11,0x0
     ddc:	ccc58593          	addi	x11,x11,-820 # aa4 <__fp_lock>
     de0:	00000513          	addi	x10,x0,0
     de4:	3490006f          	jal	x0,192c <_fwalk_sglue>

00000de8 <__fp_unlock_all>:
     de8:	92018613          	addi	x12,x3,-1760 # 125d0 <__sglue>
     dec:	00000597          	auipc	x11,0x0
     df0:	d3c58593          	addi	x11,x11,-708 # b28 <__fp_unlock>
     df4:	00000513          	addi	x10,x0,0
     df8:	3350006f          	jal	x0,192c <_fwalk_sglue>

00000dfc <_malloc_trim_r>:
     dfc:	fe010113          	addi	x2,x2,-32
     e00:	00812c23          	sw	x8,24(x2)
     e04:	00912a23          	sw	x9,20(x2)
     e08:	01212823          	sw	x18,16(x2)
     e0c:	01312623          	sw	x19,12(x2)
     e10:	01412423          	sw	x20,8(x2)
     e14:	00058993          	addi	x19,x11,0
     e18:	00112e23          	sw	x1,28(x2)
     e1c:	00050913          	addi	x18,x10,0
     e20:	00011a17          	auipc	x20,0x11
     e24:	7bca0a13          	addi	x20,x20,1980 # 125dc <__malloc_av_>
     e28:	581050ef          	jal	x1,6ba8 <__malloc_lock>
     e2c:	008a2783          	lw	x15,8(x20)
     e30:	00001437          	lui	x8,0x1
     e34:	fef40413          	addi	x8,x8,-17 # fef <_free_r+0xbb>
     e38:	0047a483          	lw	x9,4(x15)
     e3c:	000017b7          	lui	x15,0x1
     e40:	ffc4f493          	andi	x9,x9,-4
     e44:	00848433          	add	x8,x9,x8
     e48:	41340433          	sub	x8,x8,x19
     e4c:	00c45413          	srli	x8,x8,0xc
     e50:	fff40413          	addi	x8,x8,-1
     e54:	00c41413          	slli	x8,x8,0xc
     e58:	00f44e63          	blt	x8,x15,e74 <_malloc_trim_r+0x78>
     e5c:	00000593          	addi	x11,x0,0
     e60:	00090513          	addi	x10,x18,0
     e64:	520000ef          	jal	x1,1384 <_sbrk_r>
     e68:	008a2783          	lw	x15,8(x20)
     e6c:	009787b3          	add	x15,x15,x9
     e70:	02f50863          	beq	x10,x15,ea0 <_malloc_trim_r+0xa4>
     e74:	00090513          	addi	x10,x18,0
     e78:	535050ef          	jal	x1,6bac <__malloc_unlock>
     e7c:	01c12083          	lw	x1,28(x2)
     e80:	01812403          	lw	x8,24(x2)
     e84:	01412483          	lw	x9,20(x2)
     e88:	01012903          	lw	x18,16(x2)
     e8c:	00c12983          	lw	x19,12(x2)
     e90:	00812a03          	lw	x20,8(x2)
     e94:	00000513          	addi	x10,x0,0
     e98:	02010113          	addi	x2,x2,32
     e9c:	00008067          	jalr	x0,0(x1)
     ea0:	408005b3          	sub	x11,x0,x8
     ea4:	00090513          	addi	x10,x18,0
     ea8:	4dc000ef          	jal	x1,1384 <_sbrk_r>
     eac:	fff00793          	addi	x15,x0,-1
     eb0:	04f50863          	beq	x10,x15,f00 <_malloc_trim_r+0x104>
     eb4:	1f418713          	addi	x14,x3,500 # 12ea4 <__malloc_current_mallinfo>
     eb8:	00072783          	lw	x15,0(x14)
     ebc:	008a2683          	lw	x13,8(x20)
     ec0:	408484b3          	sub	x9,x9,x8
     ec4:	0014e493          	ori	x9,x9,1
     ec8:	408787b3          	sub	x15,x15,x8
     ecc:	00090513          	addi	x10,x18,0
     ed0:	0096a223          	sw	x9,4(x13)
     ed4:	00f72023          	sw	x15,0(x14)
     ed8:	4d5050ef          	jal	x1,6bac <__malloc_unlock>
     edc:	01c12083          	lw	x1,28(x2)
     ee0:	01812403          	lw	x8,24(x2)
     ee4:	01412483          	lw	x9,20(x2)
     ee8:	01012903          	lw	x18,16(x2)
     eec:	00c12983          	lw	x19,12(x2)
     ef0:	00812a03          	lw	x20,8(x2)
     ef4:	00100513          	addi	x10,x0,1
     ef8:	02010113          	addi	x2,x2,32
     efc:	00008067          	jalr	x0,0(x1)
     f00:	00000593          	addi	x11,x0,0
     f04:	00090513          	addi	x10,x18,0
     f08:	47c000ef          	jal	x1,1384 <_sbrk_r>
     f0c:	008a2703          	lw	x14,8(x20)
     f10:	00f00693          	addi	x13,x0,15
     f14:	40e507b3          	sub	x15,x10,x14
     f18:	f4f6dee3          	bge	x13,x15,e74 <_malloc_trim_r+0x78>
     f1c:	f081a683          	lw	x13,-248(x3) # 12bb8 <__malloc_sbrk_base>
     f20:	40d50533          	sub	x10,x10,x13
     f24:	0017e793          	ori	x15,x15,1
     f28:	1ea1aa23          	sw	x10,500(x3) # 12ea4 <__malloc_current_mallinfo>
     f2c:	00f72223          	sw	x15,4(x14)
     f30:	f45ff06f          	jal	x0,e74 <_malloc_trim_r+0x78>

00000f34 <_free_r>:
     f34:	16058e63          	beq	x11,x0,10b0 <_free_r+0x17c>
     f38:	ff010113          	addi	x2,x2,-16
     f3c:	00812423          	sw	x8,8(x2)
     f40:	00912223          	sw	x9,4(x2)
     f44:	00058413          	addi	x8,x11,0
     f48:	00050493          	addi	x9,x10,0
     f4c:	00112623          	sw	x1,12(x2)
     f50:	459050ef          	jal	x1,6ba8 <__malloc_lock>
     f54:	ffc42583          	lw	x11,-4(x8)
     f58:	ff840713          	addi	x14,x8,-8
     f5c:	00011817          	auipc	x16,0x11
     f60:	68080813          	addi	x16,x16,1664 # 125dc <__malloc_av_>
     f64:	ffe5f793          	andi	x15,x11,-2
     f68:	00f70633          	add	x12,x14,x15
     f6c:	00462683          	lw	x13,4(x12)
     f70:	00882503          	lw	x10,8(x16)
     f74:	0015f593          	andi	x11,x11,1
     f78:	ffc6f693          	andi	x13,x13,-4
     f7c:	18c50c63          	beq	x10,x12,1114 <_free_r+0x1e0>
     f80:	00d62223          	sw	x13,4(x12)
     f84:	00d60533          	add	x10,x12,x13
     f88:	00452503          	lw	x10,4(x10)
     f8c:	00157513          	andi	x10,x10,1
     f90:	08059c63          	bne	x11,x0,1028 <_free_r+0xf4>
     f94:	ff842303          	lw	x6,-8(x8)
     f98:	00011897          	auipc	x17,0x11
     f9c:	64c88893          	addi	x17,x17,1612 # 125e4 <__malloc_av_+0x8>
     fa0:	40670733          	sub	x14,x14,x6
     fa4:	00872583          	lw	x11,8(x14)
     fa8:	006787b3          	add	x15,x15,x6
     fac:	13158e63          	beq	x11,x17,10e8 <_free_r+0x1b4>
     fb0:	00c72303          	lw	x6,12(x14)
     fb4:	0065a623          	sw	x6,12(x11)
     fb8:	00b32423          	sw	x11,8(x6)
     fbc:	1a050063          	beq	x10,x0,115c <_free_r+0x228>
     fc0:	0017e693          	ori	x13,x15,1
     fc4:	00d72223          	sw	x13,4(x14)
     fc8:	00f62023          	sw	x15,0(x12)
     fcc:	1ff00693          	addi	x13,x0,511
     fd0:	06f6e863          	bltu	x13,x15,1040 <_free_r+0x10c>
     fd4:	ff87f693          	andi	x13,x15,-8
     fd8:	00868693          	addi	x13,x13,8
     fdc:	00482583          	lw	x11,4(x16)
     fe0:	00d806b3          	add	x13,x16,x13
     fe4:	0006a603          	lw	x12,0(x13)
     fe8:	0057d513          	srli	x10,x15,0x5
     fec:	00100793          	addi	x15,x0,1
     ff0:	00a797b3          	sll	x15,x15,x10
     ff4:	00b7e7b3          	or	x15,x15,x11
     ff8:	ff868593          	addi	x11,x13,-8
     ffc:	00b72623          	sw	x11,12(x14)
    1000:	00c72423          	sw	x12,8(x14)
    1004:	00f82223          	sw	x15,4(x16)
    1008:	00e6a023          	sw	x14,0(x13)
    100c:	00e62623          	sw	x14,12(x12)
    1010:	00812403          	lw	x8,8(x2)
    1014:	00c12083          	lw	x1,12(x2)
    1018:	00048513          	addi	x10,x9,0
    101c:	00412483          	lw	x9,4(x2)
    1020:	01010113          	addi	x2,x2,16
    1024:	3890506f          	jal	x0,6bac <__malloc_unlock>
    1028:	08050663          	beq	x10,x0,10b4 <_free_r+0x180>
    102c:	0017e693          	ori	x13,x15,1
    1030:	fed42e23          	sw	x13,-4(x8)
    1034:	00f62023          	sw	x15,0(x12)
    1038:	1ff00693          	addi	x13,x0,511
    103c:	f8f6fce3          	bgeu	x13,x15,fd4 <_free_r+0xa0>
    1040:	0097d693          	srli	x13,x15,0x9
    1044:	00400613          	addi	x12,x0,4
    1048:	10d66e63          	bltu	x12,x13,1164 <_free_r+0x230>
    104c:	0067d693          	srli	x13,x15,0x6
    1050:	03968593          	addi	x11,x13,57
    1054:	03868613          	addi	x12,x13,56
    1058:	00359593          	slli	x11,x11,0x3
    105c:	00b805b3          	add	x11,x16,x11
    1060:	0005a683          	lw	x13,0(x11)
    1064:	ff858593          	addi	x11,x11,-8
    1068:	00d59863          	bne	x11,x13,1078 <_free_r+0x144>
    106c:	1500006f          	jal	x0,11bc <_free_r+0x288>
    1070:	0086a683          	lw	x13,8(x13)
    1074:	00d58863          	beq	x11,x13,1084 <_free_r+0x150>
    1078:	0046a603          	lw	x12,4(x13)
    107c:	ffc67613          	andi	x12,x12,-4
    1080:	fec7e8e3          	bltu	x15,x12,1070 <_free_r+0x13c>
    1084:	00c6a583          	lw	x11,12(x13)
    1088:	00b72623          	sw	x11,12(x14)
    108c:	00d72423          	sw	x13,8(x14)
    1090:	00812403          	lw	x8,8(x2)
    1094:	00c12083          	lw	x1,12(x2)
    1098:	00e5a423          	sw	x14,8(x11)
    109c:	00048513          	addi	x10,x9,0
    10a0:	00412483          	lw	x9,4(x2)
    10a4:	00e6a623          	sw	x14,12(x13)
    10a8:	01010113          	addi	x2,x2,16
    10ac:	3010506f          	jal	x0,6bac <__malloc_unlock>
    10b0:	00008067          	jalr	x0,0(x1)
    10b4:	00d787b3          	add	x15,x15,x13
    10b8:	00011897          	auipc	x17,0x11
    10bc:	52c88893          	addi	x17,x17,1324 # 125e4 <__malloc_av_+0x8>
    10c0:	00862683          	lw	x13,8(x12)
    10c4:	0d168a63          	beq	x13,x17,1198 <_free_r+0x264>
    10c8:	00c62503          	lw	x10,12(x12)
    10cc:	0017e593          	ori	x11,x15,1
    10d0:	00f70633          	add	x12,x14,x15
    10d4:	00a6a623          	sw	x10,12(x13)
    10d8:	00d52423          	sw	x13,8(x10)
    10dc:	00b72223          	sw	x11,4(x14)
    10e0:	00f62023          	sw	x15,0(x12)
    10e4:	ee9ff06f          	jal	x0,fcc <_free_r+0x98>
    10e8:	12051a63          	bne	x10,x0,121c <_free_r+0x2e8>
    10ec:	00862583          	lw	x11,8(x12)
    10f0:	00c62603          	lw	x12,12(x12)
    10f4:	00f686b3          	add	x13,x13,x15
    10f8:	0016e793          	ori	x15,x13,1
    10fc:	00c5a623          	sw	x12,12(x11)
    1100:	00b62423          	sw	x11,8(x12)
    1104:	00f72223          	sw	x15,4(x14)
    1108:	00d70733          	add	x14,x14,x13
    110c:	00d72023          	sw	x13,0(x14)
    1110:	f01ff06f          	jal	x0,1010 <_free_r+0xdc>
    1114:	00d786b3          	add	x13,x15,x13
    1118:	02059063          	bne	x11,x0,1138 <_free_r+0x204>
    111c:	ff842583          	lw	x11,-8(x8)
    1120:	40b70733          	sub	x14,x14,x11
    1124:	00c72783          	lw	x15,12(x14)
    1128:	00872603          	lw	x12,8(x14)
    112c:	00b686b3          	add	x13,x13,x11
    1130:	00f62623          	sw	x15,12(x12)
    1134:	00c7a423          	sw	x12,8(x15) # 1008 <_free_r+0xd4>
    1138:	0016e793          	ori	x15,x13,1
    113c:	00f72223          	sw	x15,4(x14)
    1140:	00e82423          	sw	x14,8(x16)
    1144:	f0c1a783          	lw	x15,-244(x3) # 12bbc <__malloc_trim_threshold>
    1148:	ecf6e4e3          	bltu	x13,x15,1010 <_free_r+0xdc>
    114c:	f241a583          	lw	x11,-220(x3) # 12bd4 <__malloc_top_pad>
    1150:	00048513          	addi	x10,x9,0
    1154:	ca9ff0ef          	jal	x1,dfc <_malloc_trim_r>
    1158:	eb9ff06f          	jal	x0,1010 <_free_r+0xdc>
    115c:	00d787b3          	add	x15,x15,x13
    1160:	f61ff06f          	jal	x0,10c0 <_free_r+0x18c>
    1164:	01400613          	addi	x12,x0,20
    1168:	02d67063          	bgeu	x12,x13,1188 <_free_r+0x254>
    116c:	05400613          	addi	x12,x0,84
    1170:	06d66463          	bltu	x12,x13,11d8 <_free_r+0x2a4>
    1174:	00c7d693          	srli	x13,x15,0xc
    1178:	06f68593          	addi	x11,x13,111
    117c:	06e68613          	addi	x12,x13,110
    1180:	00359593          	slli	x11,x11,0x3
    1184:	ed9ff06f          	jal	x0,105c <_free_r+0x128>
    1188:	05c68593          	addi	x11,x13,92
    118c:	05b68613          	addi	x12,x13,91
    1190:	00359593          	slli	x11,x11,0x3
    1194:	ec9ff06f          	jal	x0,105c <_free_r+0x128>
    1198:	00e82a23          	sw	x14,20(x16)
    119c:	00e82823          	sw	x14,16(x16)
    11a0:	0017e693          	ori	x13,x15,1
    11a4:	01172623          	sw	x17,12(x14)
    11a8:	01172423          	sw	x17,8(x14)
    11ac:	00d72223          	sw	x13,4(x14)
    11b0:	00f70733          	add	x14,x14,x15
    11b4:	00f72023          	sw	x15,0(x14)
    11b8:	e59ff06f          	jal	x0,1010 <_free_r+0xdc>
    11bc:	00482503          	lw	x10,4(x16)
    11c0:	40265613          	srai	x12,x12,0x2
    11c4:	00100793          	addi	x15,x0,1
    11c8:	00c797b3          	sll	x15,x15,x12
    11cc:	00a7e7b3          	or	x15,x15,x10
    11d0:	00f82223          	sw	x15,4(x16)
    11d4:	eb5ff06f          	jal	x0,1088 <_free_r+0x154>
    11d8:	15400613          	addi	x12,x0,340
    11dc:	00d66c63          	bltu	x12,x13,11f4 <_free_r+0x2c0>
    11e0:	00f7d693          	srli	x13,x15,0xf
    11e4:	07868593          	addi	x11,x13,120
    11e8:	07768613          	addi	x12,x13,119
    11ec:	00359593          	slli	x11,x11,0x3
    11f0:	e6dff06f          	jal	x0,105c <_free_r+0x128>
    11f4:	55400613          	addi	x12,x0,1364
    11f8:	00d66c63          	bltu	x12,x13,1210 <_free_r+0x2dc>
    11fc:	0127d693          	srli	x13,x15,0x12
    1200:	07d68593          	addi	x11,x13,125
    1204:	07c68613          	addi	x12,x13,124
    1208:	00359593          	slli	x11,x11,0x3
    120c:	e51ff06f          	jal	x0,105c <_free_r+0x128>
    1210:	3f800593          	addi	x11,x0,1016
    1214:	07e00613          	addi	x12,x0,126
    1218:	e45ff06f          	jal	x0,105c <_free_r+0x128>
    121c:	0017e693          	ori	x13,x15,1
    1220:	00d72223          	sw	x13,4(x14)
    1224:	00f62023          	sw	x15,0(x12)
    1228:	de9ff06f          	jal	x0,1010 <_free_r+0xdc>

0000122c <__sread>:
    122c:	ff010113          	addi	x2,x2,-16
    1230:	00812423          	sw	x8,8(x2)
    1234:	00058413          	addi	x8,x11,0
    1238:	00e59583          	lh	x11,14(x11)
    123c:	00112623          	sw	x1,12(x2)
    1240:	5ac060ef          	jal	x1,77ec <_read_r>
    1244:	02054063          	blt	x10,x0,1264 <__sread+0x38>
    1248:	05042783          	lw	x15,80(x8)
    124c:	00c12083          	lw	x1,12(x2)
    1250:	00a787b3          	add	x15,x15,x10
    1254:	04f42823          	sw	x15,80(x8)
    1258:	00812403          	lw	x8,8(x2)
    125c:	01010113          	addi	x2,x2,16
    1260:	00008067          	jalr	x0,0(x1)
    1264:	00c45783          	lhu	x15,12(x8)
    1268:	fffff737          	lui	x14,0xfffff
    126c:	fff70713          	addi	x14,x14,-1 # ffffefff <__heap_end+0xffbfefff>
    1270:	00e7f7b3          	and	x15,x15,x14
    1274:	00c12083          	lw	x1,12(x2)
    1278:	00f41623          	sh	x15,12(x8)
    127c:	00812403          	lw	x8,8(x2)
    1280:	01010113          	addi	x2,x2,16
    1284:	00008067          	jalr	x0,0(x1)

00001288 <__seofread>:
    1288:	00000513          	addi	x10,x0,0
    128c:	00008067          	jalr	x0,0(x1)

00001290 <__swrite>:
    1290:	00c59783          	lh	x15,12(x11)
    1294:	fe010113          	addi	x2,x2,-32
    1298:	00812c23          	sw	x8,24(x2)
    129c:	00912a23          	sw	x9,20(x2)
    12a0:	01212823          	sw	x18,16(x2)
    12a4:	01312623          	sw	x19,12(x2)
    12a8:	00112e23          	sw	x1,28(x2)
    12ac:	1007f713          	andi	x14,x15,256
    12b0:	00058413          	addi	x8,x11,0
    12b4:	00050493          	addi	x9,x10,0
    12b8:	00060913          	addi	x18,x12,0
    12bc:	00068993          	addi	x19,x13,0
    12c0:	04071063          	bne	x14,x0,1300 <__swrite+0x70>
    12c4:	fffff737          	lui	x14,0xfffff
    12c8:	fff70713          	addi	x14,x14,-1 # ffffefff <__heap_end+0xffbfefff>
    12cc:	00e7f7b3          	and	x15,x15,x14
    12d0:	00e41583          	lh	x11,14(x8)
    12d4:	00f41623          	sh	x15,12(x8)
    12d8:	01812403          	lw	x8,24(x2)
    12dc:	01c12083          	lw	x1,28(x2)
    12e0:	00098693          	addi	x13,x19,0
    12e4:	00090613          	addi	x12,x18,0
    12e8:	00c12983          	lw	x19,12(x2)
    12ec:	01012903          	lw	x18,16(x2)
    12f0:	00048513          	addi	x10,x9,0
    12f4:	01412483          	lw	x9,20(x2)
    12f8:	02010113          	addi	x2,x2,32
    12fc:	5d40006f          	jal	x0,18d0 <_write_r>
    1300:	00e59583          	lh	x11,14(x11)
    1304:	00200693          	addi	x13,x0,2
    1308:	00000613          	addi	x12,x0,0
    130c:	484060ef          	jal	x1,7790 <_lseek_r>
    1310:	00c41783          	lh	x15,12(x8)
    1314:	fb1ff06f          	jal	x0,12c4 <__swrite+0x34>

00001318 <__sseek>:
    1318:	ff010113          	addi	x2,x2,-16
    131c:	00812423          	sw	x8,8(x2)
    1320:	00058413          	addi	x8,x11,0
    1324:	00e59583          	lh	x11,14(x11)
    1328:	00112623          	sw	x1,12(x2)
    132c:	464060ef          	jal	x1,7790 <_lseek_r>
    1330:	fff00713          	addi	x14,x0,-1
    1334:	00c41783          	lh	x15,12(x8)
    1338:	02e50263          	beq	x10,x14,135c <__sseek+0x44>
    133c:	00001737          	lui	x14,0x1
    1340:	00e7e7b3          	or	x15,x15,x14
    1344:	00c12083          	lw	x1,12(x2)
    1348:	04a42823          	sw	x10,80(x8)
    134c:	00f41623          	sh	x15,12(x8)
    1350:	00812403          	lw	x8,8(x2)
    1354:	01010113          	addi	x2,x2,16
    1358:	00008067          	jalr	x0,0(x1)
    135c:	fffff737          	lui	x14,0xfffff
    1360:	fff70713          	addi	x14,x14,-1 # ffffefff <__heap_end+0xffbfefff>
    1364:	00e7f7b3          	and	x15,x15,x14
    1368:	00c12083          	lw	x1,12(x2)
    136c:	00f41623          	sh	x15,12(x8)
    1370:	00812403          	lw	x8,8(x2)
    1374:	01010113          	addi	x2,x2,16
    1378:	00008067          	jalr	x0,0(x1)

0000137c <__sclose>:
    137c:	00e59583          	lh	x11,14(x11)
    1380:	0310506f          	jal	x0,6bb0 <_close_r>

00001384 <_sbrk_r>:
    1384:	ff010113          	addi	x2,x2,-16
    1388:	00812423          	sw	x8,8(x2)
    138c:	00050413          	addi	x8,x10,0
    1390:	00058513          	addi	x10,x11,0
    1394:	f001aa23          	sw	x0,-236(x3) # 12bc4 <errno>
    1398:	00112623          	sw	x1,12(x2)
    139c:	87cff0ef          	jal	x1,418 <_sbrk>
    13a0:	fff00793          	addi	x15,x0,-1
    13a4:	00f50a63          	beq	x10,x15,13b8 <_sbrk_r+0x34>
    13a8:	00c12083          	lw	x1,12(x2)
    13ac:	00812403          	lw	x8,8(x2)
    13b0:	01010113          	addi	x2,x2,16
    13b4:	00008067          	jalr	x0,0(x1)
    13b8:	f141a783          	lw	x15,-236(x3) # 12bc4 <errno>
    13bc:	fe0786e3          	beq	x15,x0,13a8 <_sbrk_r+0x24>
    13c0:	00c12083          	lw	x1,12(x2)
    13c4:	00f42023          	sw	x15,0(x8)
    13c8:	00812403          	lw	x8,8(x2)
    13cc:	01010113          	addi	x2,x2,16
    13d0:	00008067          	jalr	x0,0(x1)

000013d4 <__sfvwrite_r>:
    13d4:	00862783          	lw	x15,8(x12)
    13d8:	26078c63          	beq	x15,x0,1650 <__sfvwrite_r+0x27c>
    13dc:	00c59683          	lh	x13,12(x11)
    13e0:	fd010113          	addi	x2,x2,-48
    13e4:	02812423          	sw	x8,40(x2)
    13e8:	01412c23          	sw	x20,24(x2)
    13ec:	01612823          	sw	x22,16(x2)
    13f0:	02112623          	sw	x1,44(x2)
    13f4:	0086f793          	andi	x15,x13,8
    13f8:	00060b13          	addi	x22,x12,0
    13fc:	00050a13          	addi	x20,x10,0
    1400:	00058413          	addi	x8,x11,0
    1404:	08078e63          	beq	x15,x0,14a0 <__sfvwrite_r+0xcc>
    1408:	0105a783          	lw	x15,16(x11)
    140c:	08078a63          	beq	x15,x0,14a0 <__sfvwrite_r+0xcc>
    1410:	02912223          	sw	x9,36(x2)
    1414:	03212023          	sw	x18,32(x2)
    1418:	01312e23          	sw	x19,28(x2)
    141c:	01512a23          	sw	x21,20(x2)
    1420:	0026f793          	andi	x15,x13,2
    1424:	000b2483          	lw	x9,0(x22)
    1428:	0a078463          	beq	x15,x0,14d0 <__sfvwrite_r+0xfc>
    142c:	02442783          	lw	x15,36(x8)
    1430:	01c42583          	lw	x11,28(x8)
    1434:	80000ab7          	lui	x21,0x80000
    1438:	00000993          	addi	x19,x0,0
    143c:	00000913          	addi	x18,x0,0
    1440:	c00a8a93          	addi	x21,x21,-1024 # 7ffffc00 <__heap_end+0x7fbffc00>
    1444:	00098613          	addi	x12,x19,0
    1448:	000a0513          	addi	x10,x20,0
    144c:	04090263          	beq	x18,x0,1490 <__sfvwrite_r+0xbc>
    1450:	00090693          	addi	x13,x18,0
    1454:	012af463          	bgeu	x21,x18,145c <__sfvwrite_r+0x88>
    1458:	000a8693          	addi	x13,x21,0
    145c:	000780e7          	jalr	x1,0(x15)
    1460:	44a05663          	bge	x0,x10,18ac <__sfvwrite_r+0x4d8>
    1464:	008b2783          	lw	x15,8(x22)
    1468:	00a989b3          	add	x19,x19,x10
    146c:	40a90933          	sub	x18,x18,x10
    1470:	40a787b3          	sub	x15,x15,x10
    1474:	00fb2423          	sw	x15,8(x22)
    1478:	1a078663          	beq	x15,x0,1624 <__sfvwrite_r+0x250>
    147c:	02442783          	lw	x15,36(x8)
    1480:	01c42583          	lw	x11,28(x8)
    1484:	00098613          	addi	x12,x19,0
    1488:	000a0513          	addi	x10,x20,0
    148c:	fc0912e3          	bne	x18,x0,1450 <__sfvwrite_r+0x7c>
    1490:	0004a983          	lw	x19,0(x9)
    1494:	0044a903          	lw	x18,4(x9)
    1498:	00848493          	addi	x9,x9,8
    149c:	fa9ff06f          	jal	x0,1444 <__sfvwrite_r+0x70>
    14a0:	00040593          	addi	x11,x8,0
    14a4:	000a0513          	addi	x10,x20,0
    14a8:	240050ef          	jal	x1,66e8 <__swsetup_r>
    14ac:	2c051063          	bne	x10,x0,176c <__sfvwrite_r+0x398>
    14b0:	00c41683          	lh	x13,12(x8)
    14b4:	02912223          	sw	x9,36(x2)
    14b8:	03212023          	sw	x18,32(x2)
    14bc:	01312e23          	sw	x19,28(x2)
    14c0:	01512a23          	sw	x21,20(x2)
    14c4:	0026f793          	andi	x15,x13,2
    14c8:	000b2483          	lw	x9,0(x22)
    14cc:	f60790e3          	bne	x15,x0,142c <__sfvwrite_r+0x58>
    14d0:	01712623          	sw	x23,12(x2)
    14d4:	01812423          	sw	x24,8(x2)
    14d8:	0016f793          	andi	x15,x13,1
    14dc:	16079e63          	bne	x15,x0,1658 <__sfvwrite_r+0x284>
    14e0:	00042783          	lw	x15,0(x8)
    14e4:	00842703          	lw	x14,8(x8)
    14e8:	80000ab7          	lui	x21,0x80000
    14ec:	01912223          	sw	x25,4(x2)
    14f0:	00000b93          	addi	x23,x0,0
    14f4:	00000993          	addi	x19,x0,0
    14f8:	fffa8a93          	addi	x21,x21,-1 # 7fffffff <__heap_end+0x7fbfffff>
    14fc:	00078513          	addi	x10,x15,0
    1500:	00070c13          	addi	x24,x14,0
    1504:	10098263          	beq	x19,x0,1608 <__sfvwrite_r+0x234>
    1508:	2006f613          	andi	x12,x13,512
    150c:	26060463          	beq	x12,x0,1774 <__sfvwrite_r+0x3a0>
    1510:	00070c93          	addi	x25,x14,0
    1514:	30e9e263          	bltu	x19,x14,1818 <__sfvwrite_r+0x444>
    1518:	4806f713          	andi	x14,x13,1152
    151c:	08070a63          	beq	x14,x0,15b0 <__sfvwrite_r+0x1dc>
    1520:	01442603          	lw	x12,20(x8)
    1524:	01042583          	lw	x11,16(x8)
    1528:	00161713          	slli	x14,x12,0x1
    152c:	00c70733          	add	x14,x14,x12
    1530:	40b78933          	sub	x18,x15,x11
    1534:	01f75c13          	srli	x24,x14,0x1f
    1538:	00ec0c33          	add	x24,x24,x14
    153c:	00190793          	addi	x15,x18,1
    1540:	401c5c13          	srai	x24,x24,0x1
    1544:	013787b3          	add	x15,x15,x19
    1548:	000c0613          	addi	x12,x24,0
    154c:	00fc7663          	bgeu	x24,x15,1558 <__sfvwrite_r+0x184>
    1550:	00078c13          	addi	x24,x15,0
    1554:	00078613          	addi	x12,x15,0
    1558:	4006f693          	andi	x13,x13,1024
    155c:	30068463          	beq	x13,x0,1864 <__sfvwrite_r+0x490>
    1560:	00060593          	addi	x11,x12,0
    1564:	000a0513          	addi	x10,x20,0
    1568:	470040ef          	jal	x1,59d8 <_malloc_r>
    156c:	00050c93          	addi	x25,x10,0
    1570:	34050263          	beq	x10,x0,18b4 <__sfvwrite_r+0x4e0>
    1574:	01042583          	lw	x11,16(x8)
    1578:	00090613          	addi	x12,x18,0
    157c:	73d040ef          	jal	x1,64b8 <memcpy>
    1580:	00c45783          	lhu	x15,12(x8)
    1584:	b7f7f793          	andi	x15,x15,-1153
    1588:	0807e793          	ori	x15,x15,128
    158c:	00f41623          	sh	x15,12(x8)
    1590:	012c8533          	add	x10,x25,x18
    1594:	412c07b3          	sub	x15,x24,x18
    1598:	01942823          	sw	x25,16(x8)
    159c:	01842a23          	sw	x24,20(x8)
    15a0:	00a42023          	sw	x10,0(x8)
    15a4:	00098c13          	addi	x24,x19,0
    15a8:	00f42423          	sw	x15,8(x8)
    15ac:	00098c93          	addi	x25,x19,0
    15b0:	000c8613          	addi	x12,x25,0
    15b4:	000b8593          	addi	x11,x23,0
    15b8:	5e5040ef          	jal	x1,639c <memmove>
    15bc:	00842703          	lw	x14,8(x8)
    15c0:	00042783          	lw	x15,0(x8)
    15c4:	00098913          	addi	x18,x19,0
    15c8:	41870733          	sub	x14,x14,x24
    15cc:	019787b3          	add	x15,x15,x25
    15d0:	00e42423          	sw	x14,8(x8)
    15d4:	00f42023          	sw	x15,0(x8)
    15d8:	00000993          	addi	x19,x0,0
    15dc:	008b2783          	lw	x15,8(x22)
    15e0:	012b8bb3          	add	x23,x23,x18
    15e4:	412787b3          	sub	x15,x15,x18
    15e8:	00fb2423          	sw	x15,8(x22)
    15ec:	02078663          	beq	x15,x0,1618 <__sfvwrite_r+0x244>
    15f0:	00042783          	lw	x15,0(x8)
    15f4:	00842703          	lw	x14,8(x8)
    15f8:	00c41683          	lh	x13,12(x8)
    15fc:	00078513          	addi	x10,x15,0
    1600:	00070c13          	addi	x24,x14,0
    1604:	f00992e3          	bne	x19,x0,1508 <__sfvwrite_r+0x134>
    1608:	0004ab83          	lw	x23,0(x9)
    160c:	0044a983          	lw	x19,4(x9)
    1610:	00848493          	addi	x9,x9,8
    1614:	ee9ff06f          	jal	x0,14fc <__sfvwrite_r+0x128>
    1618:	00c12b83          	lw	x23,12(x2)
    161c:	00812c03          	lw	x24,8(x2)
    1620:	00412c83          	lw	x25,4(x2)
    1624:	02412483          	lw	x9,36(x2)
    1628:	02012903          	lw	x18,32(x2)
    162c:	01c12983          	lw	x19,28(x2)
    1630:	01412a83          	lw	x21,20(x2)
    1634:	00000513          	addi	x10,x0,0
    1638:	02c12083          	lw	x1,44(x2)
    163c:	02812403          	lw	x8,40(x2)
    1640:	01812a03          	lw	x20,24(x2)
    1644:	01012b03          	lw	x22,16(x2)
    1648:	03010113          	addi	x2,x2,48
    164c:	00008067          	jalr	x0,0(x1)
    1650:	00000513          	addi	x10,x0,0
    1654:	00008067          	jalr	x0,0(x1)
    1658:	00000a93          	addi	x21,x0,0
    165c:	00000513          	addi	x10,x0,0
    1660:	00000c13          	addi	x24,x0,0
    1664:	00000993          	addi	x19,x0,0
    1668:	08098263          	beq	x19,x0,16ec <__sfvwrite_r+0x318>
    166c:	08050a63          	beq	x10,x0,1700 <__sfvwrite_r+0x32c>
    1670:	000a8793          	addi	x15,x21,0
    1674:	00098b93          	addi	x23,x19,0
    1678:	0137f463          	bgeu	x15,x19,1680 <__sfvwrite_r+0x2ac>
    167c:	00078b93          	addi	x23,x15,0
    1680:	00042503          	lw	x10,0(x8)
    1684:	01042783          	lw	x15,16(x8)
    1688:	00842903          	lw	x18,8(x8)
    168c:	01442683          	lw	x13,20(x8)
    1690:	00a7f663          	bgeu	x15,x10,169c <__sfvwrite_r+0x2c8>
    1694:	00d90933          	add	x18,x18,x13
    1698:	09794463          	blt	x18,x23,1720 <__sfvwrite_r+0x34c>
    169c:	18dbce63          	blt	x23,x13,1838 <__sfvwrite_r+0x464>
    16a0:	02442783          	lw	x15,36(x8)
    16a4:	01c42583          	lw	x11,28(x8)
    16a8:	000c0613          	addi	x12,x24,0
    16ac:	000a0513          	addi	x10,x20,0
    16b0:	000780e7          	jalr	x1,0(x15)
    16b4:	00050913          	addi	x18,x10,0
    16b8:	08a05863          	bge	x0,x10,1748 <__sfvwrite_r+0x374>
    16bc:	412a8ab3          	sub	x21,x21,x18
    16c0:	00100513          	addi	x10,x0,1
    16c4:	160a8063          	beq	x21,x0,1824 <__sfvwrite_r+0x450>
    16c8:	008b2783          	lw	x15,8(x22)
    16cc:	012c0c33          	add	x24,x24,x18
    16d0:	412989b3          	sub	x19,x19,x18
    16d4:	412787b3          	sub	x15,x15,x18
    16d8:	00fb2423          	sw	x15,8(x22)
    16dc:	f80796e3          	bne	x15,x0,1668 <__sfvwrite_r+0x294>
    16e0:	00c12b83          	lw	x23,12(x2)
    16e4:	00812c03          	lw	x24,8(x2)
    16e8:	f3dff06f          	jal	x0,1624 <__sfvwrite_r+0x250>
    16ec:	0044a983          	lw	x19,4(x9)
    16f0:	00048793          	addi	x15,x9,0
    16f4:	00848493          	addi	x9,x9,8
    16f8:	fe098ae3          	beq	x19,x0,16ec <__sfvwrite_r+0x318>
    16fc:	0007ac03          	lw	x24,0(x15)
    1700:	00098613          	addi	x12,x19,0
    1704:	00a00593          	addi	x11,x0,10
    1708:	000c0513          	addi	x10,x24,0
    170c:	29d040ef          	jal	x1,61a8 <memchr>
    1710:	18050863          	beq	x10,x0,18a0 <__sfvwrite_r+0x4cc>
    1714:	00150513          	addi	x10,x10,1
    1718:	41850ab3          	sub	x21,x10,x24
    171c:	f55ff06f          	jal	x0,1670 <__sfvwrite_r+0x29c>
    1720:	000c0593          	addi	x11,x24,0
    1724:	00090613          	addi	x12,x18,0
    1728:	475040ef          	jal	x1,639c <memmove>
    172c:	00042783          	lw	x15,0(x8)
    1730:	00040593          	addi	x11,x8,0
    1734:	000a0513          	addi	x10,x20,0
    1738:	012787b3          	add	x15,x15,x18
    173c:	00f42023          	sw	x15,0(x8)
    1740:	718050ef          	jal	x1,6e58 <_fflush_r>
    1744:	f6050ce3          	beq	x10,x0,16bc <__sfvwrite_r+0x2e8>
    1748:	00c41783          	lh	x15,12(x8)
    174c:	00c12b83          	lw	x23,12(x2)
    1750:	00812c03          	lw	x24,8(x2)
    1754:	02412483          	lw	x9,36(x2)
    1758:	02012903          	lw	x18,32(x2)
    175c:	01c12983          	lw	x19,28(x2)
    1760:	01412a83          	lw	x21,20(x2)
    1764:	0407e793          	ori	x15,x15,64
    1768:	00f41623          	sh	x15,12(x8)
    176c:	fff00513          	addi	x10,x0,-1
    1770:	ec9ff06f          	jal	x0,1638 <__sfvwrite_r+0x264>
    1774:	01042683          	lw	x13,16(x8)
    1778:	04f6e263          	bltu	x13,x15,17bc <__sfvwrite_r+0x3e8>
    177c:	01442603          	lw	x12,20(x8)
    1780:	02c9ee63          	bltu	x19,x12,17bc <__sfvwrite_r+0x3e8>
    1784:	00098793          	addi	x15,x19,0
    1788:	013af463          	bgeu	x21,x19,1790 <__sfvwrite_r+0x3bc>
    178c:	000a8793          	addi	x15,x21,0
    1790:	02c7e6b3          	rem	x13,x15,x12
    1794:	02442703          	lw	x14,36(x8)
    1798:	01c42583          	lw	x11,28(x8)
    179c:	000b8613          	addi	x12,x23,0
    17a0:	000a0513          	addi	x10,x20,0
    17a4:	40d786b3          	sub	x13,x15,x13
    17a8:	000700e7          	jalr	x1,0(x14)
    17ac:	00050913          	addi	x18,x10,0
    17b0:	04a05a63          	bge	x0,x10,1804 <__sfvwrite_r+0x430>
    17b4:	412989b3          	sub	x19,x19,x18
    17b8:	e25ff06f          	jal	x0,15dc <__sfvwrite_r+0x208>
    17bc:	00070913          	addi	x18,x14,0
    17c0:	00e9f463          	bgeu	x19,x14,17c8 <__sfvwrite_r+0x3f4>
    17c4:	00098913          	addi	x18,x19,0
    17c8:	00078513          	addi	x10,x15,0
    17cc:	00090613          	addi	x12,x18,0
    17d0:	000b8593          	addi	x11,x23,0
    17d4:	3c9040ef          	jal	x1,639c <memmove>
    17d8:	00842703          	lw	x14,8(x8)
    17dc:	00042783          	lw	x15,0(x8)
    17e0:	41270733          	sub	x14,x14,x18
    17e4:	012787b3          	add	x15,x15,x18
    17e8:	00e42423          	sw	x14,8(x8)
    17ec:	00f42023          	sw	x15,0(x8)
    17f0:	fc0712e3          	bne	x14,x0,17b4 <__sfvwrite_r+0x3e0>
    17f4:	00040593          	addi	x11,x8,0
    17f8:	000a0513          	addi	x10,x20,0
    17fc:	65c050ef          	jal	x1,6e58 <_fflush_r>
    1800:	fa050ae3          	beq	x10,x0,17b4 <__sfvwrite_r+0x3e0>
    1804:	00c41783          	lh	x15,12(x8)
    1808:	00c12b83          	lw	x23,12(x2)
    180c:	00812c03          	lw	x24,8(x2)
    1810:	00412c83          	lw	x25,4(x2)
    1814:	f41ff06f          	jal	x0,1754 <__sfvwrite_r+0x380>
    1818:	00098c13          	addi	x24,x19,0
    181c:	00098c93          	addi	x25,x19,0
    1820:	d91ff06f          	jal	x0,15b0 <__sfvwrite_r+0x1dc>
    1824:	00040593          	addi	x11,x8,0
    1828:	000a0513          	addi	x10,x20,0
    182c:	62c050ef          	jal	x1,6e58 <_fflush_r>
    1830:	e8050ce3          	beq	x10,x0,16c8 <__sfvwrite_r+0x2f4>
    1834:	f15ff06f          	jal	x0,1748 <__sfvwrite_r+0x374>
    1838:	000b8613          	addi	x12,x23,0
    183c:	000c0593          	addi	x11,x24,0
    1840:	35d040ef          	jal	x1,639c <memmove>
    1844:	00842703          	lw	x14,8(x8)
    1848:	00042783          	lw	x15,0(x8)
    184c:	000b8913          	addi	x18,x23,0
    1850:	41770733          	sub	x14,x14,x23
    1854:	017787b3          	add	x15,x15,x23
    1858:	00e42423          	sw	x14,8(x8)
    185c:	00f42023          	sw	x15,0(x8)
    1860:	e5dff06f          	jal	x0,16bc <__sfvwrite_r+0x2e8>
    1864:	000a0513          	addi	x10,x20,0
    1868:	069050ef          	jal	x1,70d0 <_realloc_r>
    186c:	00050c93          	addi	x25,x10,0
    1870:	d20510e3          	bne	x10,x0,1590 <__sfvwrite_r+0x1bc>
    1874:	01042583          	lw	x11,16(x8)
    1878:	000a0513          	addi	x10,x20,0
    187c:	eb8ff0ef          	jal	x1,f34 <_free_r>
    1880:	00c41783          	lh	x15,12(x8)
    1884:	00c00713          	addi	x14,x0,12
    1888:	00c12b83          	lw	x23,12(x2)
    188c:	00812c03          	lw	x24,8(x2)
    1890:	00412c83          	lw	x25,4(x2)
    1894:	00ea2023          	sw	x14,0(x20)
    1898:	f7f7f793          	andi	x15,x15,-129
    189c:	eb9ff06f          	jal	x0,1754 <__sfvwrite_r+0x380>
    18a0:	00198793          	addi	x15,x19,1
    18a4:	00078a93          	addi	x21,x15,0
    18a8:	dcdff06f          	jal	x0,1674 <__sfvwrite_r+0x2a0>
    18ac:	00c41783          	lh	x15,12(x8)
    18b0:	ea5ff06f          	jal	x0,1754 <__sfvwrite_r+0x380>
    18b4:	00c00713          	addi	x14,x0,12
    18b8:	00c41783          	lh	x15,12(x8)
    18bc:	00c12b83          	lw	x23,12(x2)
    18c0:	00812c03          	lw	x24,8(x2)
    18c4:	00412c83          	lw	x25,4(x2)
    18c8:	00ea2023          	sw	x14,0(x20)
    18cc:	e89ff06f          	jal	x0,1754 <__sfvwrite_r+0x380>

000018d0 <_write_r>:
    18d0:	ff010113          	addi	x2,x2,-16
    18d4:	00058713          	addi	x14,x11,0
    18d8:	00812423          	sw	x8,8(x2)
    18dc:	00060593          	addi	x11,x12,0
    18e0:	00050413          	addi	x8,x10,0
    18e4:	00068613          	addi	x12,x13,0
    18e8:	00070513          	addi	x10,x14,0
    18ec:	f001aa23          	sw	x0,-236(x3) # 12bc4 <errno>
    18f0:	00112623          	sw	x1,12(x2)
    18f4:	af3fe0ef          	jal	x1,3e6 <_write>
    18f8:	fff00793          	addi	x15,x0,-1
    18fc:	00f50a63          	beq	x10,x15,1910 <_write_r+0x40>
    1900:	00c12083          	lw	x1,12(x2)
    1904:	00812403          	lw	x8,8(x2)
    1908:	01010113          	addi	x2,x2,16
    190c:	00008067          	jalr	x0,0(x1)
    1910:	f141a783          	lw	x15,-236(x3) # 12bc4 <errno>
    1914:	fe0786e3          	beq	x15,x0,1900 <_write_r+0x30>
    1918:	00c12083          	lw	x1,12(x2)
    191c:	00f42023          	sw	x15,0(x8)
    1920:	00812403          	lw	x8,8(x2)
    1924:	01010113          	addi	x2,x2,16
    1928:	00008067          	jalr	x0,0(x1)

0000192c <_fwalk_sglue>:
    192c:	fd010113          	addi	x2,x2,-48
    1930:	03212023          	sw	x18,32(x2)
    1934:	01312e23          	sw	x19,28(x2)
    1938:	01412c23          	sw	x20,24(x2)
    193c:	01512a23          	sw	x21,20(x2)
    1940:	01612823          	sw	x22,16(x2)
    1944:	01712623          	sw	x23,12(x2)
    1948:	02112623          	sw	x1,44(x2)
    194c:	02812423          	sw	x8,40(x2)
    1950:	02912223          	sw	x9,36(x2)
    1954:	00050b13          	addi	x22,x10,0
    1958:	00058b93          	addi	x23,x11,0
    195c:	00060a93          	addi	x21,x12,0
    1960:	00000a13          	addi	x20,x0,0
    1964:	00100993          	addi	x19,x0,1
    1968:	fff00913          	addi	x18,x0,-1
    196c:	004aa483          	lw	x9,4(x21)
    1970:	008aa403          	lw	x8,8(x21)
    1974:	fff48493          	addi	x9,x9,-1
    1978:	0204c863          	blt	x9,x0,19a8 <_fwalk_sglue+0x7c>
    197c:	00c45783          	lhu	x15,12(x8)
    1980:	00f9fe63          	bgeu	x19,x15,199c <_fwalk_sglue+0x70>
    1984:	00e41783          	lh	x15,14(x8)
    1988:	00040593          	addi	x11,x8,0
    198c:	000b0513          	addi	x10,x22,0
    1990:	01278663          	beq	x15,x18,199c <_fwalk_sglue+0x70>
    1994:	000b80e7          	jalr	x1,0(x23)
    1998:	00aa6a33          	or	x20,x20,x10
    199c:	fff48493          	addi	x9,x9,-1
    19a0:	06840413          	addi	x8,x8,104
    19a4:	fd249ce3          	bne	x9,x18,197c <_fwalk_sglue+0x50>
    19a8:	000aaa83          	lw	x21,0(x21)
    19ac:	fc0a90e3          	bne	x21,x0,196c <_fwalk_sglue+0x40>
    19b0:	02c12083          	lw	x1,44(x2)
    19b4:	02812403          	lw	x8,40(x2)
    19b8:	02412483          	lw	x9,36(x2)
    19bc:	02012903          	lw	x18,32(x2)
    19c0:	01c12983          	lw	x19,28(x2)
    19c4:	01412a83          	lw	x21,20(x2)
    19c8:	01012b03          	lw	x22,16(x2)
    19cc:	00c12b83          	lw	x23,12(x2)
    19d0:	000a0513          	addi	x10,x20,0
    19d4:	01812a03          	lw	x20,24(x2)
    19d8:	03010113          	addi	x2,x2,48
    19dc:	00008067          	jalr	x0,0(x1)

000019e0 <_vfprintf_r>:
    19e0:	e3010113          	addi	x2,x2,-464
    19e4:	1c112623          	sw	x1,460(x2)
    19e8:	1c812423          	sw	x8,456(x2)
    19ec:	1c912223          	sw	x9,452(x2)
    19f0:	1d212023          	sw	x18,448(x2)
    19f4:	00058493          	addi	x9,x11,0
    19f8:	00060913          	addi	x18,x12,0
    19fc:	00d12a23          	sw	x13,20(x2)
    1a00:	00050413          	addi	x8,x10,0
    1a04:	00a12423          	sw	x10,8(x2)
    1a08:	071040ef          	jal	x1,6278 <_localeconv_r>
    1a0c:	00052703          	lw	x14,0(x10)
    1a10:	00070513          	addi	x10,x14,0
    1a14:	02e12623          	sw	x14,44(x2)
    1a18:	445040ef          	jal	x1,665c <strlen>
    1a1c:	02a12423          	sw	x10,40(x2)
    1a20:	0c012823          	sw	x0,208(x2)
    1a24:	0c012a23          	sw	x0,212(x2)
    1a28:	0c012c23          	sw	x0,216(x2)
    1a2c:	0c012e23          	sw	x0,220(x2)
    1a30:	00040863          	beq	x8,x0,1a40 <_vfprintf_r+0x60>
    1a34:	03442703          	lw	x14,52(x8)
    1a38:	00071463          	bne	x14,x0,1a40 <_vfprintf_r+0x60>
    1a3c:	1250106f          	jal	x0,3360 <_vfprintf_r+0x1980>
    1a40:	00c49703          	lh	x14,12(x9)
    1a44:	01271693          	slli	x13,x14,0x12
    1a48:	0206c663          	blt	x13,x0,1a74 <_vfprintf_r+0x94>
    1a4c:	0644a683          	lw	x13,100(x9)
    1a50:	00002637          	lui	x12,0x2
    1a54:	00c76733          	or	x14,x14,x12
    1a58:	ffffe637          	lui	x12,0xffffe
    1a5c:	01071713          	slli	x14,x14,0x10
    1a60:	fff60613          	addi	x12,x12,-1 # ffffdfff <__heap_end+0xffbfdfff>
    1a64:	41075713          	srai	x14,x14,0x10
    1a68:	00c6f6b3          	and	x13,x13,x12
    1a6c:	00e49623          	sh	x14,12(x9)
    1a70:	06d4a223          	sw	x13,100(x9)
    1a74:	00877693          	andi	x13,x14,8
    1a78:	2e068e63          	beq	x13,x0,1d74 <_vfprintf_r+0x394>
    1a7c:	0104a683          	lw	x13,16(x9)
    1a80:	2e068a63          	beq	x13,x0,1d74 <_vfprintf_r+0x394>
    1a84:	01a77713          	andi	x14,x14,26
    1a88:	00a00693          	addi	x13,x0,10
    1a8c:	30d70663          	beq	x14,x13,1d98 <_vfprintf_r+0x3b8>
    1a90:	1b312e23          	sw	x19,444(x2)
    1a94:	1b412c23          	sw	x20,440(x2)
    1a98:	1ba12023          	sw	x26,416(x2)
    1a9c:	1b512a23          	sw	x21,436(x2)
    1aa0:	1b612823          	sw	x22,432(x2)
    1aa4:	1b712623          	sw	x23,428(x2)
    1aa8:	1b812423          	sw	x24,424(x2)
    1aac:	1b912223          	sw	x25,420(x2)
    1ab0:	19b12e23          	sw	x27,412(x2)
    1ab4:	00090d13          	addi	x26,x18,0
    1ab8:	000d4703          	lbu	x14,0(x26)
    1abc:	0ec10993          	addi	x19,x2,236
    1ac0:	0d312223          	sw	x19,196(x2)
    1ac4:	0c012623          	sw	x0,204(x2)
    1ac8:	0c012423          	sw	x0,200(x2)
    1acc:	00012e23          	sw	x0,28(x2)
    1ad0:	02012823          	sw	x0,48(x2)
    1ad4:	02012c23          	sw	x0,56(x2)
    1ad8:	04012023          	sw	x0,64(x2)
    1adc:	04012223          	sw	x0,68(x2)
    1ae0:	02012e23          	sw	x0,60(x2)
    1ae4:	00012623          	sw	x0,12(x2)
    1ae8:	01000413          	addi	x8,x0,16
    1aec:	00098a13          	addi	x20,x19,0
    1af0:	22070463          	beq	x14,x0,1d18 <_vfprintf_r+0x338>
    1af4:	000d0a93          	addi	x21,x26,0
    1af8:	02500693          	addi	x13,x0,37
    1afc:	3cd70063          	beq	x14,x13,1ebc <_vfprintf_r+0x4dc>
    1b00:	001ac703          	lbu	x14,1(x21)
    1b04:	001a8a93          	addi	x21,x21,1
    1b08:	fe071ae3          	bne	x14,x0,1afc <_vfprintf_r+0x11c>
    1b0c:	41aa8933          	sub	x18,x21,x26
    1b10:	21aa8463          	beq	x21,x26,1d18 <_vfprintf_r+0x338>
    1b14:	0cc12683          	lw	x13,204(x2)
    1b18:	0c812703          	lw	x14,200(x2)
    1b1c:	01aa2023          	sw	x26,0(x20)
    1b20:	012686b3          	add	x13,x13,x18
    1b24:	00170713          	addi	x14,x14,1
    1b28:	012a2223          	sw	x18,4(x20)
    1b2c:	0cd12623          	sw	x13,204(x2)
    1b30:	0ce12423          	sw	x14,200(x2)
    1b34:	00700693          	addi	x13,x0,7
    1b38:	008a0a13          	addi	x20,x20,8
    1b3c:	38e6c863          	blt	x13,x14,1ecc <_vfprintf_r+0x4ec>
    1b40:	00c12783          	lw	x15,12(x2)
    1b44:	000ac703          	lbu	x14,0(x21)
    1b48:	012787b3          	add	x15,x15,x18
    1b4c:	00f12623          	sw	x15,12(x2)
    1b50:	1c070463          	beq	x14,x0,1d18 <_vfprintf_r+0x338>
    1b54:	001ac883          	lbu	x17,1(x21)
    1b58:	0a0103a3          	sb	x0,167(x2)
    1b5c:	001a8a93          	addi	x21,x21,1
    1b60:	fff00b13          	addi	x22,x0,-1
    1b64:	00000c93          	addi	x25,x0,0
    1b68:	00000b93          	addi	x23,x0,0
    1b6c:	05a00913          	addi	x18,x0,90
    1b70:	001a8a93          	addi	x21,x21,1
    1b74:	fe088793          	addi	x15,x17,-32
    1b78:	04f96a63          	bltu	x18,x15,1bcc <_vfprintf_r+0x1ec>
    1b7c:	00010717          	auipc	x14,0x10
    1b80:	19470713          	addi	x14,x14,404 # 11d10 <no_exception_handler_msg+0xb4>
    1b84:	00279793          	slli	x15,x15,0x2
    1b88:	00e787b3          	add	x15,x15,x14
    1b8c:	0007a783          	lw	x15,0(x15)
    1b90:	00e787b3          	add	x15,x15,x14
    1b94:	00078067          	jalr	x0,0(x15)
    1b98:	00000c93          	addi	x25,x0,0
    1b9c:	fd088793          	addi	x15,x17,-48
    1ba0:	00900693          	addi	x13,x0,9
    1ba4:	000ac883          	lbu	x17,0(x21)
    1ba8:	002c9713          	slli	x14,x25,0x2
    1bac:	01970cb3          	add	x25,x14,x25
    1bb0:	001c9c93          	slli	x25,x25,0x1
    1bb4:	01978cb3          	add	x25,x15,x25
    1bb8:	fd088793          	addi	x15,x17,-48
    1bbc:	001a8a93          	addi	x21,x21,1
    1bc0:	fef6f2e3          	bgeu	x13,x15,1ba4 <_vfprintf_r+0x1c4>
    1bc4:	fe088793          	addi	x15,x17,-32
    1bc8:	faf97ae3          	bgeu	x18,x15,1b7c <_vfprintf_r+0x19c>
    1bcc:	14088663          	beq	x17,x0,1d18 <_vfprintf_r+0x338>
    1bd0:	13110623          	sb	x17,300(x2)
    1bd4:	0a0103a3          	sb	x0,167(x2)
    1bd8:	00100d93          	addi	x27,x0,1
    1bdc:	00100913          	addi	x18,x0,1
    1be0:	12c10d13          	addi	x26,x2,300
    1be4:	00012823          	sw	x0,16(x2)
    1be8:	00000b13          	addi	x22,x0,0
    1bec:	02012223          	sw	x0,36(x2)
    1bf0:	02012023          	sw	x0,32(x2)
    1bf4:	00012c23          	sw	x0,24(x2)
    1bf8:	002bf293          	andi	x5,x23,2
    1bfc:	00028463          	beq	x5,x0,1c04 <_vfprintf_r+0x224>
    1c00:	002d8d93          	addi	x27,x27,2
    1c04:	084bff93          	andi	x31,x23,132
    1c08:	0cc12603          	lw	x12,204(x2)
    1c0c:	000f9663          	bne	x31,x0,1c18 <_vfprintf_r+0x238>
    1c10:	41bc8733          	sub	x14,x25,x27
    1c14:	4ae046e3          	blt	x0,x14,28c0 <_vfprintf_r+0xee0>
    1c18:	0a714703          	lbu	x14,167(x2)
    1c1c:	02070a63          	beq	x14,x0,1c50 <_vfprintf_r+0x270>
    1c20:	0c812703          	lw	x14,200(x2)
    1c24:	0a710593          	addi	x11,x2,167
    1c28:	00ba2023          	sw	x11,0(x20)
    1c2c:	00160613          	addi	x12,x12,1
    1c30:	00100593          	addi	x11,x0,1
    1c34:	00170713          	addi	x14,x14,1
    1c38:	00ba2223          	sw	x11,4(x20)
    1c3c:	0cc12623          	sw	x12,204(x2)
    1c40:	0ce12423          	sw	x14,200(x2)
    1c44:	00700593          	addi	x11,x0,7
    1c48:	008a0a13          	addi	x20,x20,8
    1c4c:	3ae5cc63          	blt	x11,x14,2004 <_vfprintf_r+0x624>
    1c50:	02028a63          	beq	x5,x0,1c84 <_vfprintf_r+0x2a4>
    1c54:	0c812703          	lw	x14,200(x2)
    1c58:	00200593          	addi	x11,x0,2
    1c5c:	00260613          	addi	x12,x12,2
    1c60:	00170713          	addi	x14,x14,1
    1c64:	0a810793          	addi	x15,x2,168
    1c68:	00ba2223          	sw	x11,4(x20)
    1c6c:	00fa2023          	sw	x15,0(x20)
    1c70:	0cc12623          	sw	x12,204(x2)
    1c74:	0ce12423          	sw	x14,200(x2)
    1c78:	00700593          	addi	x11,x0,7
    1c7c:	008a0a13          	addi	x20,x20,8
    1c80:	54e5c6e3          	blt	x11,x14,29cc <_vfprintf_r+0xfec>
    1c84:	08000713          	addi	x14,x0,128
    1c88:	22ef82e3          	beq	x31,x14,26ac <_vfprintf_r+0xccc>
    1c8c:	412b0b33          	sub	x22,x22,x18
    1c90:	31604ce3          	blt	x0,x22,27a8 <_vfprintf_r+0xdc8>
    1c94:	100bf713          	andi	x14,x23,256
    1c98:	0c071ce3          	bne	x14,x0,2570 <_vfprintf_r+0xb90>
    1c9c:	0c812783          	lw	x15,200(x2)
    1ca0:	01260633          	add	x12,x12,x18
    1ca4:	01aa2023          	sw	x26,0(x20)
    1ca8:	00178793          	addi	x15,x15,1
    1cac:	012a2223          	sw	x18,4(x20)
    1cb0:	0cc12623          	sw	x12,204(x2)
    1cb4:	0cf12423          	sw	x15,200(x2)
    1cb8:	00700713          	addi	x14,x0,7
    1cbc:	48f74463          	blt	x14,x15,2144 <_vfprintf_r+0x764>
    1cc0:	008a0a13          	addi	x20,x20,8
    1cc4:	004bfe13          	andi	x28,x23,4
    1cc8:	000e0663          	beq	x28,x0,1cd4 <_vfprintf_r+0x2f4>
    1ccc:	41bc8933          	sub	x18,x25,x27
    1cd0:	532046e3          	blt	x0,x18,29fc <_vfprintf_r+0x101c>
    1cd4:	000c8313          	addi	x6,x25,0
    1cd8:	01bcd463          	bge	x25,x27,1ce0 <_vfprintf_r+0x300>
    1cdc:	000d8313          	addi	x6,x27,0
    1ce0:	00c12783          	lw	x15,12(x2)
    1ce4:	006787b3          	add	x15,x15,x6
    1ce8:	00f12623          	sw	x15,12(x2)
    1cec:	3a0610e3          	bne	x12,x0,288c <_vfprintf_r+0xeac>
    1cf0:	01012783          	lw	x15,16(x2)
    1cf4:	0c012423          	sw	x0,200(x2)
    1cf8:	00078863          	beq	x15,x0,1d08 <_vfprintf_r+0x328>
    1cfc:	01012583          	lw	x11,16(x2)
    1d00:	00812503          	lw	x10,8(x2)
    1d04:	a30ff0ef          	jal	x1,f34 <_free_r>
    1d08:	00098a13          	addi	x20,x19,0
    1d0c:	000a8d13          	addi	x26,x21,0
    1d10:	000d4703          	lbu	x14,0(x26)
    1d14:	de0710e3          	bne	x14,x0,1af4 <_vfprintf_r+0x114>
    1d18:	0cc12783          	lw	x15,204(x2)
    1d1c:	00078463          	beq	x15,x0,1d24 <_vfprintf_r+0x344>
    1d20:	3e10106f          	jal	x0,3900 <_vfprintf_r+0x1f20>
    1d24:	00c4d783          	lhu	x15,12(x9)
    1d28:	1bc12983          	lw	x19,444(x2)
    1d2c:	1b812a03          	lw	x20,440(x2)
    1d30:	0407f793          	andi	x15,x15,64
    1d34:	1b412a83          	lw	x21,436(x2)
    1d38:	1b012b03          	lw	x22,432(x2)
    1d3c:	1ac12b83          	lw	x23,428(x2)
    1d40:	1a812c03          	lw	x24,424(x2)
    1d44:	1a412c83          	lw	x25,420(x2)
    1d48:	1a012d03          	lw	x26,416(x2)
    1d4c:	19c12d83          	lw	x27,412(x2)
    1d50:	00078463          	beq	x15,x0,1d58 <_vfprintf_r+0x378>
    1d54:	3680206f          	jal	x0,40bc <_vfprintf_r+0x26dc>
    1d58:	1cc12083          	lw	x1,460(x2)
    1d5c:	1c812403          	lw	x8,456(x2)
    1d60:	00c12503          	lw	x10,12(x2)
    1d64:	1c412483          	lw	x9,452(x2)
    1d68:	1c012903          	lw	x18,448(x2)
    1d6c:	1d010113          	addi	x2,x2,464
    1d70:	00008067          	jalr	x0,0(x1)
    1d74:	00812503          	lw	x10,8(x2)
    1d78:	00048593          	addi	x11,x9,0
    1d7c:	16d040ef          	jal	x1,66e8 <__swsetup_r>
    1d80:	00050463          	beq	x10,x0,1d88 <_vfprintf_r+0x3a8>
    1d84:	3380206f          	jal	x0,40bc <_vfprintf_r+0x26dc>
    1d88:	00c49703          	lh	x14,12(x9)
    1d8c:	00a00693          	addi	x13,x0,10
    1d90:	01a77713          	andi	x14,x14,26
    1d94:	ced71ee3          	bne	x14,x13,1a90 <_vfprintf_r+0xb0>
    1d98:	00e49703          	lh	x14,14(x9)
    1d9c:	ce074ae3          	blt	x14,x0,1a90 <_vfprintf_r+0xb0>
    1da0:	01412683          	lw	x13,20(x2)
    1da4:	00812503          	lw	x10,8(x2)
    1da8:	00090613          	addi	x12,x18,0
    1dac:	00048593          	addi	x11,x9,0
    1db0:	55c020ef          	jal	x1,430c <__sbprintf>
    1db4:	00a12623          	sw	x10,12(x2)
    1db8:	fa1ff06f          	jal	x0,1d58 <_vfprintf_r+0x378>
    1dbc:	000ac883          	lbu	x17,0(x21)
    1dc0:	db1ff06f          	jal	x0,1b70 <_vfprintf_r+0x190>
    1dc4:	000ac883          	lbu	x17,0(x21)
    1dc8:	020beb93          	ori	x23,x23,32
    1dcc:	da5ff06f          	jal	x0,1b70 <_vfprintf_r+0x190>
    1dd0:	010beb93          	ori	x23,x23,16
    1dd4:	020bf793          	andi	x15,x23,32
    1dd8:	3a078e63          	beq	x15,x0,2194 <_vfprintf_r+0x7b4>
    1ddc:	01412783          	lw	x15,20(x2)
    1de0:	00778c13          	addi	x24,x15,7
    1de4:	ff8c7c13          	andi	x24,x24,-8
    1de8:	004c2783          	lw	x15,4(x24)
    1dec:	000c2903          	lw	x18,0(x24)
    1df0:	008c0713          	addi	x14,x24,8
    1df4:	00e12a23          	sw	x14,20(x2)
    1df8:	00078d93          	addi	x27,x15,0
    1dfc:	3c07c663          	blt	x15,x0,21c8 <_vfprintf_r+0x7e8>
    1e00:	000b8f93          	addi	x31,x23,0
    1e04:	4e0b4863          	blt	x22,x0,22f4 <_vfprintf_r+0x914>
    1e08:	01b967b3          	or	x15,x18,x27
    1e0c:	f7fbff93          	andi	x31,x23,-129
    1e10:	4e079263          	bne	x15,x0,22f4 <_vfprintf_r+0x914>
    1e14:	4e0b1663          	bne	x22,x0,2300 <_vfprintf_r+0x920>
    1e18:	00000913          	addi	x18,x0,0
    1e1c:	000f8b93          	addi	x23,x31,0
    1e20:	19010d13          	addi	x26,x2,400
    1e24:	0a714703          	lbu	x14,167(x2)
    1e28:	000b0d93          	addi	x27,x22,0
    1e2c:	012b5463          	bge	x22,x18,1e34 <_vfprintf_r+0x454>
    1e30:	00090d93          	addi	x27,x18,0
    1e34:	00012823          	sw	x0,16(x2)
    1e38:	02012223          	sw	x0,36(x2)
    1e3c:	02012023          	sw	x0,32(x2)
    1e40:	00012c23          	sw	x0,24(x2)
    1e44:	da070ae3          	beq	x14,x0,1bf8 <_vfprintf_r+0x218>
    1e48:	001d8d93          	addi	x27,x27,1
    1e4c:	dadff06f          	jal	x0,1bf8 <_vfprintf_r+0x218>
    1e50:	010beb93          	ori	x23,x23,16
    1e54:	020bf793          	andi	x15,x23,32
    1e58:	30078663          	beq	x15,x0,2164 <_vfprintf_r+0x784>
    1e5c:	01412783          	lw	x15,20(x2)
    1e60:	00778c13          	addi	x24,x15,7
    1e64:	ff8c7c13          	andi	x24,x24,-8
    1e68:	000c2903          	lw	x18,0(x24)
    1e6c:	004c2d83          	lw	x27,4(x24)
    1e70:	008c0793          	addi	x15,x24,8
    1e74:	00f12a23          	sw	x15,20(x2)
    1e78:	bffbff93          	andi	x31,x23,-1025
    1e7c:	00000793          	addi	x15,x0,0
    1e80:	00000713          	addi	x14,x0,0
    1e84:	0ae103a3          	sb	x14,167(x2)
    1e88:	360b4263          	blt	x22,x0,21ec <_vfprintf_r+0x80c>
    1e8c:	01b96733          	or	x14,x18,x27
    1e90:	f7fffb93          	andi	x23,x31,-129
    1e94:	220712e3          	bne	x14,x0,28b8 <_vfprintf_r+0xed8>
    1e98:	660b1e63          	bne	x22,x0,2514 <_vfprintf_r+0xb34>
    1e9c:	660790e3          	bne	x15,x0,2cfc <_vfprintf_r+0x131c>
    1ea0:	001ff913          	andi	x18,x31,1
    1ea4:	19010d13          	addi	x26,x2,400
    1ea8:	f6090ee3          	beq	x18,x0,1e24 <_vfprintf_r+0x444>
    1eac:	03000793          	addi	x15,x0,48
    1eb0:	18f107a3          	sb	x15,399(x2)
    1eb4:	18f10d13          	addi	x26,x2,399
    1eb8:	f6dff06f          	jal	x0,1e24 <_vfprintf_r+0x444>
    1ebc:	41aa8933          	sub	x18,x21,x26
    1ec0:	c5aa9ae3          	bne	x21,x26,1b14 <_vfprintf_r+0x134>
    1ec4:	000ac703          	lbu	x14,0(x21)
    1ec8:	c89ff06f          	jal	x0,1b50 <_vfprintf_r+0x170>
    1ecc:	00812503          	lw	x10,8(x2)
    1ed0:	0c410613          	addi	x12,x2,196
    1ed4:	00048593          	addi	x11,x9,0
    1ed8:	624020ef          	jal	x1,44fc <__sprint_r>
    1edc:	e40514e3          	bne	x10,x0,1d24 <_vfprintf_r+0x344>
    1ee0:	00098a13          	addi	x20,x19,0
    1ee4:	c5dff06f          	jal	x0,1b40 <_vfprintf_r+0x160>
    1ee8:	008bf713          	andi	x14,x23,8
    1eec:	68071ee3          	bne	x14,x0,2d88 <_vfprintf_r+0x13a8>
    1ef0:	01412783          	lw	x15,20(x2)
    1ef4:	09010513          	addi	x10,x2,144
    1ef8:	01112823          	sw	x17,16(x2)
    1efc:	00778c13          	addi	x24,x15,7
    1f00:	ff8c7c13          	andi	x24,x24,-8
    1f04:	000c2583          	lw	x11,0(x24)
    1f08:	004c2603          	lw	x12,4(x24)
    1f0c:	008c0793          	addi	x15,x24,8
    1f10:	00f12a23          	sw	x15,20(x2)
    1f14:	6200f0ef          	jal	x1,11534 <__extenddftf2>
    1f18:	09012583          	lw	x11,144(x2)
    1f1c:	09412603          	lw	x12,148(x2)
    1f20:	09812683          	lw	x13,152(x2)
    1f24:	09c12703          	lw	x14,156(x2)
    1f28:	01012883          	lw	x17,16(x2)
    1f2c:	0d010513          	addi	x10,x2,208
    1f30:	01112823          	sw	x17,16(x2)
    1f34:	0ce12e23          	sw	x14,220(x2)
    1f38:	0cb12823          	sw	x11,208(x2)
    1f3c:	0cc12a23          	sw	x12,212(x2)
    1f40:	0cd12c23          	sw	x13,216(x2)
    1f44:	58d050ef          	jal	x1,7cd0 <_ldcheck>
    1f48:	0aa12623          	sw	x10,172(x2)
    1f4c:	00200713          	addi	x14,x0,2
    1f50:	01012883          	lw	x17,16(x2)
    1f54:	00e51463          	bne	x10,x14,1f5c <_vfprintf_r+0x57c>
    1f58:	4480106f          	jal	x0,33a0 <_vfprintf_r+0x19c0>
    1f5c:	00100713          	addi	x14,x0,1
    1f60:	00e51463          	bne	x10,x14,1f68 <_vfprintf_r+0x588>
    1f64:	5ac0106f          	jal	x0,3510 <_vfprintf_r+0x1b30>
    1f68:	06100713          	addi	x14,x0,97
    1f6c:	00e89463          	bne	x17,x14,1f74 <_vfprintf_r+0x594>
    1f70:	7f10006f          	jal	x0,2f60 <_vfprintf_r+0x1580>
    1f74:	04100713          	addi	x14,x0,65
    1f78:	05800793          	addi	x15,x0,88
    1f7c:	00e89463          	bne	x17,x14,1f84 <_vfprintf_r+0x5a4>
    1f80:	7e50006f          	jal	x0,2f64 <_vfprintf_r+0x1584>
    1f84:	fff00713          	addi	x14,x0,-1
    1f88:	00eb1463          	bne	x22,x14,1f90 <_vfprintf_r+0x5b0>
    1f8c:	1c40206f          	jal	x0,4150 <_vfprintf_r+0x2770>
    1f90:	fdf8f713          	andi	x14,x17,-33
    1f94:	04700693          	addi	x13,x0,71
    1f98:	00012823          	sw	x0,16(x2)
    1f9c:	00d71663          	bne	x14,x13,1fa8 <_vfprintf_r+0x5c8>
    1fa0:	000b1463          	bne	x22,x0,1fa8 <_vfprintf_r+0x5c8>
    1fa4:	00100b13          	addi	x22,x0,1
    1fa8:	0dc12c03          	lw	x24,220(x2)
    1fac:	100be793          	ori	x15,x23,256
    1fb0:	04f12423          	sw	x15,72(x2)
    1fb4:	02012a23          	sw	x0,52(x2)
    1fb8:	0d012f83          	lw	x31,208(x2)
    1fbc:	0d412f03          	lw	x30,212(x2)
    1fc0:	0d812e83          	lw	x29,216(x2)
    1fc4:	000c5a63          	bge	x24,x0,1fd8 <_vfprintf_r+0x5f8>
    1fc8:	80000737          	lui	x14,0x80000
    1fcc:	02d00793          	addi	x15,x0,45
    1fd0:	01874c33          	xor	x24,x14,x24
    1fd4:	02f12a23          	sw	x15,52(x2)
    1fd8:	fbf88713          	addi	x14,x17,-65
    1fdc:	02500693          	addi	x13,x0,37
    1fe0:	00e6f463          	bgeu	x13,x14,1fe8 <_vfprintf_r+0x608>
    1fe4:	7cd0006f          	jal	x0,2fb0 <_vfprintf_r+0x15d0>
    1fe8:	00010697          	auipc	x13,0x10
    1fec:	e9468693          	addi	x13,x13,-364 # 11e7c <no_exception_handler_msg+0x220>
    1ff0:	00271713          	slli	x14,x14,0x2
    1ff4:	00d70733          	add	x14,x14,x13
    1ff8:	00072703          	lw	x14,0(x14) # 80000000 <__heap_end+0x7fc00000>
    1ffc:	00d70733          	add	x14,x14,x13
    2000:	00070067          	jalr	x0,0(x14)
    2004:	00812503          	lw	x10,8(x2)
    2008:	0c410613          	addi	x12,x2,196
    200c:	00048593          	addi	x11,x9,0
    2010:	05112623          	sw	x17,76(x2)
    2014:	05f12423          	sw	x31,72(x2)
    2018:	02512a23          	sw	x5,52(x2)
    201c:	4e0020ef          	jal	x1,44fc <__sprint_r>
    2020:	080510e3          	bne	x10,x0,28a0 <_vfprintf_r+0xec0>
    2024:	0cc12603          	lw	x12,204(x2)
    2028:	04c12883          	lw	x17,76(x2)
    202c:	04812f83          	lw	x31,72(x2)
    2030:	03412283          	lw	x5,52(x2)
    2034:	00098a13          	addi	x20,x19,0
    2038:	c19ff06f          	jal	x0,1c50 <_vfprintf_r+0x270>
    203c:	0c812903          	lw	x18,200(x2)
    2040:	01c12783          	lw	x15,28(x2)
    2044:	00100713          	addi	x14,x0,1
    2048:	01aa2023          	sw	x26,0(x20)
    204c:	00160c13          	addi	x24,x12,1
    2050:	00190913          	addi	x18,x18,1
    2054:	008a0b13          	addi	x22,x20,8
    2058:	3af750e3          	bge	x14,x15,2bf8 <_vfprintf_r+0x1218>
    205c:	00100713          	addi	x14,x0,1
    2060:	00ea2223          	sw	x14,4(x20)
    2064:	0d812623          	sw	x24,204(x2)
    2068:	0d212423          	sw	x18,200(x2)
    206c:	00700713          	addi	x14,x0,7
    2070:	01275463          	bge	x14,x18,2078 <_vfprintf_r+0x698>
    2074:	1040106f          	jal	x0,3178 <_vfprintf_r+0x1798>
    2078:	02812783          	lw	x15,40(x2)
    207c:	02c12703          	lw	x14,44(x2)
    2080:	00190913          	addi	x18,x18,1
    2084:	00fc0c33          	add	x24,x24,x15
    2088:	00eb2023          	sw	x14,0(x22)
    208c:	00fb2223          	sw	x15,4(x22)
    2090:	0d812623          	sw	x24,204(x2)
    2094:	0d212423          	sw	x18,200(x2)
    2098:	00700713          	addi	x14,x0,7
    209c:	008b0b13          	addi	x22,x22,8
    20a0:	01275463          	bge	x14,x18,20a8 <_vfprintf_r+0x6c8>
    20a4:	0f80106f          	jal	x0,319c <_vfprintf_r+0x17bc>
    20a8:	0d012703          	lw	x14,208(x2)
    20ac:	01c12783          	lw	x15,28(x2)
    20b0:	08010593          	addi	x11,x2,128
    20b4:	08e12823          	sw	x14,144(x2)
    20b8:	0d412703          	lw	x14,212(x2)
    20bc:	09010513          	addi	x10,x2,144
    20c0:	08012023          	sw	x0,128(x2)
    20c4:	08e12a23          	sw	x14,148(x2)
    20c8:	0d812703          	lw	x14,216(x2)
    20cc:	08012223          	sw	x0,132(x2)
    20d0:	08012423          	sw	x0,136(x2)
    20d4:	08e12c23          	sw	x14,152(x2)
    20d8:	0dc12703          	lw	x14,220(x2)
    20dc:	08012623          	sw	x0,140(x2)
    20e0:	fff78a13          	addi	x20,x15,-1
    20e4:	08e12e23          	sw	x14,156(x2)
    20e8:	49c0c0ef          	jal	x1,e584 <__eqtf2>
    20ec:	340506e3          	beq	x10,x0,2c38 <_vfprintf_r+0x1258>
    20f0:	001d0793          	addi	x15,x26,1
    20f4:	00190913          	addi	x18,x18,1
    20f8:	014c0c33          	add	x24,x24,x20
    20fc:	00fb2023          	sw	x15,0(x22)
    2100:	014b2223          	sw	x20,4(x22)
    2104:	0d812623          	sw	x24,204(x2)
    2108:	0d212423          	sw	x18,200(x2)
    210c:	00700793          	addi	x15,x0,7
    2110:	008b0b13          	addi	x22,x22,8
    2114:	3127c0e3          	blt	x15,x18,2c14 <_vfprintf_r+0x1234>
    2118:	03812683          	lw	x13,56(x2)
    211c:	0b410713          	addi	x14,x2,180
    2120:	00190793          	addi	x15,x18,1
    2124:	01868633          	add	x12,x13,x24
    2128:	00eb2023          	sw	x14,0(x22)
    212c:	00db2223          	sw	x13,4(x22)
    2130:	0cc12623          	sw	x12,204(x2)
    2134:	0cf12423          	sw	x15,200(x2)
    2138:	00700713          	addi	x14,x0,7
    213c:	008b0a13          	addi	x20,x22,8
    2140:	b8f752e3          	bge	x14,x15,1cc4 <_vfprintf_r+0x2e4>
    2144:	00812503          	lw	x10,8(x2)
    2148:	0c410613          	addi	x12,x2,196
    214c:	00048593          	addi	x11,x9,0
    2150:	3ac020ef          	jal	x1,44fc <__sprint_r>
    2154:	74051663          	bne	x10,x0,28a0 <_vfprintf_r+0xec0>
    2158:	0cc12603          	lw	x12,204(x2)
    215c:	00098a13          	addi	x20,x19,0
    2160:	b65ff06f          	jal	x0,1cc4 <_vfprintf_r+0x2e4>
    2164:	01412703          	lw	x14,20(x2)
    2168:	010bf793          	andi	x15,x23,16
    216c:	00072903          	lw	x18,0(x14)
    2170:	00470c13          	addi	x24,x14,4
    2174:	3e0796e3          	bne	x15,x0,2d60 <_vfprintf_r+0x1380>
    2178:	040bf793          	andi	x15,x23,64
    217c:	3c078ee3          	beq	x15,x0,2d58 <_vfprintf_r+0x1378>
    2180:	01091913          	slli	x18,x18,0x10
    2184:	01095913          	srli	x18,x18,0x10
    2188:	00000d93          	addi	x27,x0,0
    218c:	01812a23          	sw	x24,20(x2)
    2190:	ce9ff06f          	jal	x0,1e78 <_vfprintf_r+0x498>
    2194:	01412703          	lw	x14,20(x2)
    2198:	010bf793          	andi	x15,x23,16
    219c:	00072903          	lw	x18,0(x14)
    21a0:	00470c13          	addi	x24,x14,4
    21a4:	3a0792e3          	bne	x15,x0,2d48 <_vfprintf_r+0x1368>
    21a8:	040bf793          	andi	x15,x23,64
    21ac:	38078ae3          	beq	x15,x0,2d40 <_vfprintf_r+0x1360>
    21b0:	01091913          	slli	x18,x18,0x10
    21b4:	41095913          	srai	x18,x18,0x10
    21b8:	41f95d93          	srai	x27,x18,0x1f
    21bc:	000d8793          	addi	x15,x27,0
    21c0:	01812a23          	sw	x24,20(x2)
    21c4:	c207dee3          	bge	x15,x0,1e00 <_vfprintf_r+0x420>
    21c8:	02d00713          	addi	x14,x0,45
    21cc:	012037b3          	sltu	x15,x0,x18
    21d0:	41b00db3          	sub	x27,x0,x27
    21d4:	0ae103a3          	sb	x14,167(x2)
    21d8:	40fd8db3          	sub	x27,x27,x15
    21dc:	41200933          	sub	x18,x0,x18
    21e0:	000b8f93          	addi	x31,x23,0
    21e4:	00100793          	addi	x15,x0,1
    21e8:	ca0b52e3          	bge	x22,x0,1e8c <_vfprintf_r+0x4ac>
    21ec:	00100713          	addi	x14,x0,1
    21f0:	10e78263          	beq	x15,x14,22f4 <_vfprintf_r+0x914>
    21f4:	00200713          	addi	x14,x0,2
    21f8:	32e78a63          	beq	x15,x14,252c <_vfprintf_r+0xb4c>
    21fc:	19010d13          	addi	x26,x2,400
    2200:	01dd9793          	slli	x15,x27,0x1d
    2204:	00797713          	andi	x14,x18,7
    2208:	00395913          	srli	x18,x18,0x3
    220c:	03070713          	addi	x14,x14,48
    2210:	0127e933          	or	x18,x15,x18
    2214:	003ddd93          	srli	x27,x27,0x3
    2218:	feed0fa3          	sb	x14,-1(x26)
    221c:	01b967b3          	or	x15,x18,x27
    2220:	000d0613          	addi	x12,x26,0
    2224:	fffd0d13          	addi	x26,x26,-1
    2228:	fc079ce3          	bne	x15,x0,2200 <_vfprintf_r+0x820>
    222c:	001ff693          	andi	x13,x31,1
    2230:	32068863          	beq	x13,x0,2560 <_vfprintf_r+0xb80>
    2234:	03000693          	addi	x13,x0,48
    2238:	32d70463          	beq	x14,x13,2560 <_vfprintf_r+0xb80>
    223c:	ffe60613          	addi	x12,x12,-2
    2240:	19010793          	addi	x15,x2,400
    2244:	fedd0fa3          	sb	x13,-1(x26)
    2248:	40c78933          	sub	x18,x15,x12
    224c:	000f8b93          	addi	x23,x31,0
    2250:	00060d13          	addi	x26,x12,0
    2254:	bd1ff06f          	jal	x0,1e24 <_vfprintf_r+0x444>
    2258:	01412703          	lw	x14,20(x2)
    225c:	0a0103a3          	sb	x0,167(x2)
    2260:	00100d93          	addi	x27,x0,1
    2264:	00072783          	lw	x15,0(x14)
    2268:	00470713          	addi	x14,x14,4
    226c:	00e12a23          	sw	x14,20(x2)
    2270:	12f10623          	sb	x15,300(x2)
    2274:	00100913          	addi	x18,x0,1
    2278:	12c10d13          	addi	x26,x2,300
    227c:	969ff06f          	jal	x0,1be4 <_vfprintf_r+0x204>
    2280:	01412783          	lw	x15,20(x2)
    2284:	0a0103a3          	sb	x0,167(x2)
    2288:	0007ad03          	lw	x26,0(x15)
    228c:	00478c13          	addi	x24,x15,4
    2290:	3e0d04e3          	beq	x26,x0,2e78 <_vfprintf_r+0x1498>
    2294:	000b5463          	bge	x22,x0,229c <_vfprintf_r+0x8bc>
    2298:	2300106f          	jal	x0,34c8 <_vfprintf_r+0x1ae8>
    229c:	000b0613          	addi	x12,x22,0
    22a0:	00000593          	addi	x11,x0,0
    22a4:	000d0513          	addi	x10,x26,0
    22a8:	01112a23          	sw	x17,20(x2)
    22ac:	6fd030ef          	jal	x1,61a8 <memchr>
    22b0:	00a12823          	sw	x10,16(x2)
    22b4:	0a714703          	lbu	x14,167(x2)
    22b8:	01412883          	lw	x17,20(x2)
    22bc:	00051463          	bne	x10,x0,22c4 <_vfprintf_r+0x8e4>
    22c0:	43d0106f          	jal	x0,3efc <_vfprintf_r+0x251c>
    22c4:	41a50933          	sub	x18,x10,x26
    22c8:	fff94693          	xori	x13,x18,-1
    22cc:	41f6d693          	srai	x13,x13,0x1f
    22d0:	01812a23          	sw	x24,20(x2)
    22d4:	00012823          	sw	x0,16(x2)
    22d8:	02012223          	sw	x0,36(x2)
    22dc:	02012023          	sw	x0,32(x2)
    22e0:	00012c23          	sw	x0,24(x2)
    22e4:	00d97db3          	and	x27,x18,x13
    22e8:	00000b13          	addi	x22,x0,0
    22ec:	b4071ee3          	bne	x14,x0,1e48 <_vfprintf_r+0x468>
    22f0:	909ff06f          	jal	x0,1bf8 <_vfprintf_r+0x218>
    22f4:	6e0d90e3          	bne	x27,x0,31d4 <_vfprintf_r+0x17f4>
    22f8:	00900793          	addi	x15,x0,9
    22fc:	6d27ece3          	bltu	x15,x18,31d4 <_vfprintf_r+0x17f4>
    2300:	03090913          	addi	x18,x18,48
    2304:	192107a3          	sb	x18,399(x2)
    2308:	000f8b93          	addi	x23,x31,0
    230c:	00100913          	addi	x18,x0,1
    2310:	18f10d13          	addi	x26,x2,399
    2314:	b11ff06f          	jal	x0,1e24 <_vfprintf_r+0x444>
    2318:	01412783          	lw	x15,20(x2)
    231c:	0007ac83          	lw	x25,0(x15)
    2320:	00478793          	addi	x15,x15,4
    2324:	1e0cdae3          	bge	x25,x0,2d18 <_vfprintf_r+0x1338>
    2328:	41900cb3          	sub	x25,x0,x25
    232c:	00f12a23          	sw	x15,20(x2)
    2330:	000ac883          	lbu	x17,0(x21)
    2334:	004beb93          	ori	x23,x23,4
    2338:	839ff06f          	jal	x0,1b70 <_vfprintf_r+0x190>
    233c:	010bef93          	ori	x31,x23,16
    2340:	020ff793          	andi	x15,x31,32
    2344:	180782e3          	beq	x15,x0,2cc8 <_vfprintf_r+0x12e8>
    2348:	01412783          	lw	x15,20(x2)
    234c:	00778c13          	addi	x24,x15,7
    2350:	ff8c7c13          	andi	x24,x24,-8
    2354:	008c0793          	addi	x15,x24,8
    2358:	00f12a23          	sw	x15,20(x2)
    235c:	000c2903          	lw	x18,0(x24)
    2360:	004c2d83          	lw	x27,4(x24)
    2364:	00100793          	addi	x15,x0,1
    2368:	b19ff06f          	jal	x0,1e80 <_vfprintf_r+0x4a0>
    236c:	02b00793          	addi	x15,x0,43
    2370:	000ac883          	lbu	x17,0(x21)
    2374:	0af103a3          	sb	x15,167(x2)
    2378:	ff8ff06f          	jal	x0,1b70 <_vfprintf_r+0x190>
    237c:	01412703          	lw	x14,20(x2)
    2380:	000087b7          	lui	x15,0x8
    2384:	83078793          	addi	x15,x15,-2000 # 7830 <_read_r+0x44>
    2388:	0af11423          	sh	x15,168(x2)
    238c:	00470793          	addi	x15,x14,4
    2390:	00f12a23          	sw	x15,20(x2)
    2394:	0000f797          	auipc	x15,0xf
    2398:	72078793          	addi	x15,x15,1824 # 11ab4 <__clzsi2+0x338>
    239c:	02f12823          	sw	x15,48(x2)
    23a0:	00072903          	lw	x18,0(x14)
    23a4:	00000d93          	addi	x27,x0,0
    23a8:	002bef93          	ori	x31,x23,2
    23ac:	00200793          	addi	x15,x0,2
    23b0:	07800893          	addi	x17,x0,120
    23b4:	acdff06f          	jal	x0,1e80 <_vfprintf_r+0x4a0>
    23b8:	01412683          	lw	x13,20(x2)
    23bc:	020bf793          	andi	x15,x23,32
    23c0:	00468713          	addi	x14,x13,4
    23c4:	1a0794e3          	bne	x15,x0,2d6c <_vfprintf_r+0x138c>
    23c8:	010bf793          	andi	x15,x23,16
    23cc:	00078463          	beq	x15,x0,23d4 <_vfprintf_r+0x9f4>
    23d0:	05c0106f          	jal	x0,342c <_vfprintf_r+0x1a4c>
    23d4:	040bf793          	andi	x15,x23,64
    23d8:	00078463          	beq	x15,x0,23e0 <_vfprintf_r+0xa00>
    23dc:	50c0106f          	jal	x0,38e8 <_vfprintf_r+0x1f08>
    23e0:	200bfe13          	andi	x28,x23,512
    23e4:	000e1463          	bne	x28,x0,23ec <_vfprintf_r+0xa0c>
    23e8:	0440106f          	jal	x0,342c <_vfprintf_r+0x1a4c>
    23ec:	01412783          	lw	x15,20(x2)
    23f0:	00c12683          	lw	x13,12(x2)
    23f4:	00e12a23          	sw	x14,20(x2)
    23f8:	0007a783          	lw	x15,0(x15)
    23fc:	00d78023          	sb	x13,0(x15)
    2400:	000a8d13          	addi	x26,x21,0
    2404:	90dff06f          	jal	x0,1d10 <_vfprintf_r+0x330>
    2408:	000ac883          	lbu	x17,0(x21)
    240c:	06c00793          	addi	x15,x0,108
    2410:	22f884e3          	beq	x17,x15,2e38 <_vfprintf_r+0x1458>
    2414:	010beb93          	ori	x23,x23,16
    2418:	f58ff06f          	jal	x0,1b70 <_vfprintf_r+0x190>
    241c:	000ac883          	lbu	x17,0(x21)
    2420:	06800793          	addi	x15,x0,104
    2424:	24f882e3          	beq	x17,x15,2e68 <_vfprintf_r+0x1488>
    2428:	040beb93          	ori	x23,x23,64
    242c:	f44ff06f          	jal	x0,1b70 <_vfprintf_r+0x190>
    2430:	000ac883          	lbu	x17,0(x21)
    2434:	008beb93          	ori	x23,x23,8
    2438:	f38ff06f          	jal	x0,1b70 <_vfprintf_r+0x190>
    243c:	00812c03          	lw	x24,8(x2)
    2440:	000c0513          	addi	x10,x24,0
    2444:	635030ef          	jal	x1,6278 <_localeconv_r>
    2448:	00452783          	lw	x15,4(x10)
    244c:	00078513          	addi	x10,x15,0
    2450:	02f12e23          	sw	x15,60(x2)
    2454:	208040ef          	jal	x1,665c <strlen>
    2458:	00050793          	addi	x15,x10,0
    245c:	000c0513          	addi	x10,x24,0
    2460:	04f12223          	sw	x15,68(x2)
    2464:	00078c13          	addi	x24,x15,0
    2468:	611030ef          	jal	x1,6278 <_localeconv_r>
    246c:	00852703          	lw	x14,8(x10)
    2470:	000ac883          	lbu	x17,0(x21)
    2474:	04e12023          	sw	x14,64(x2)
    2478:	ee0c0c63          	beq	x24,x0,1b70 <_vfprintf_r+0x190>
    247c:	ee070a63          	beq	x14,x0,1b70 <_vfprintf_r+0x190>
    2480:	00074783          	lbu	x15,0(x14)
    2484:	ee078663          	beq	x15,x0,1b70 <_vfprintf_r+0x190>
    2488:	400beb93          	ori	x23,x23,1024
    248c:	ee4ff06f          	jal	x0,1b70 <_vfprintf_r+0x190>
    2490:	000ac883          	lbu	x17,0(x21)
    2494:	001beb93          	ori	x23,x23,1
    2498:	ed8ff06f          	jal	x0,1b70 <_vfprintf_r+0x190>
    249c:	0a714783          	lbu	x15,167(x2)
    24a0:	000ac883          	lbu	x17,0(x21)
    24a4:	ec079663          	bne	x15,x0,1b70 <_vfprintf_r+0x190>
    24a8:	02000793          	addi	x15,x0,32
    24ac:	0af103a3          	sb	x15,167(x2)
    24b0:	ec0ff06f          	jal	x0,1b70 <_vfprintf_r+0x190>
    24b4:	000ac883          	lbu	x17,0(x21)
    24b8:	080beb93          	ori	x23,x23,128
    24bc:	eb4ff06f          	jal	x0,1b70 <_vfprintf_r+0x190>
    24c0:	000ac883          	lbu	x17,0(x21)
    24c4:	02a00793          	addi	x15,x0,42
    24c8:	001a8693          	addi	x13,x21,1
    24cc:	00f89463          	bne	x17,x15,24d4 <_vfprintf_r+0xaf4>
    24d0:	5a90106f          	jal	x0,4278 <_vfprintf_r+0x2898>
    24d4:	fd088793          	addi	x15,x17,-48
    24d8:	00900713          	addi	x14,x0,9
    24dc:	00000b13          	addi	x22,x0,0
    24e0:	00900613          	addi	x12,x0,9
    24e4:	02f76463          	bltu	x14,x15,250c <_vfprintf_r+0xb2c>
    24e8:	0006c883          	lbu	x17,0(x13)
    24ec:	002b1713          	slli	x14,x22,0x2
    24f0:	01670b33          	add	x22,x14,x22
    24f4:	001b1b13          	slli	x22,x22,0x1
    24f8:	00fb0b33          	add	x22,x22,x15
    24fc:	fd088793          	addi	x15,x17,-48
    2500:	00168693          	addi	x13,x13,1
    2504:	fef672e3          	bgeu	x12,x15,24e8 <_vfprintf_r+0xb08>
    2508:	0a0b48e3          	blt	x22,x0,2db8 <_vfprintf_r+0x13d8>
    250c:	00068a93          	addi	x21,x13,0
    2510:	e64ff06f          	jal	x0,1b74 <_vfprintf_r+0x194>
    2514:	00100713          	addi	x14,x0,1
    2518:	00e79463          	bne	x15,x14,2520 <_vfprintf_r+0xb40>
    251c:	3ad0106f          	jal	x0,40c8 <_vfprintf_r+0x26e8>
    2520:	00200713          	addi	x14,x0,2
    2524:	000b8f93          	addi	x31,x23,0
    2528:	cce79ae3          	bne	x15,x14,21fc <_vfprintf_r+0x81c>
    252c:	03012683          	lw	x13,48(x2)
    2530:	19010d13          	addi	x26,x2,400
    2534:	00f97793          	andi	x15,x18,15
    2538:	00f687b3          	add	x15,x13,x15
    253c:	0007c703          	lbu	x14,0(x15)
    2540:	00495913          	srli	x18,x18,0x4
    2544:	01cd9793          	slli	x15,x27,0x1c
    2548:	0127e933          	or	x18,x15,x18
    254c:	004ddd93          	srli	x27,x27,0x4
    2550:	feed0fa3          	sb	x14,-1(x26)
    2554:	01b967b3          	or	x15,x18,x27
    2558:	fffd0d13          	addi	x26,x26,-1
    255c:	fc079ce3          	bne	x15,x0,2534 <_vfprintf_r+0xb54>
    2560:	19010793          	addi	x15,x2,400
    2564:	41a78933          	sub	x18,x15,x26
    2568:	000f8b93          	addi	x23,x31,0
    256c:	8b9ff06f          	jal	x0,1e24 <_vfprintf_r+0x444>
    2570:	06500713          	addi	x14,x0,101
    2574:	ad1754e3          	bge	x14,x17,203c <_vfprintf_r+0x65c>
    2578:	0d012703          	lw	x14,208(x2)
    257c:	08010593          	addi	x11,x2,128
    2580:	09010513          	addi	x10,x2,144
    2584:	08e12823          	sw	x14,144(x2)
    2588:	0d412703          	lw	x14,212(x2)
    258c:	02c12a23          	sw	x12,52(x2)
    2590:	08012023          	sw	x0,128(x2)
    2594:	08e12a23          	sw	x14,148(x2)
    2598:	0d812703          	lw	x14,216(x2)
    259c:	08012223          	sw	x0,132(x2)
    25a0:	08012423          	sw	x0,136(x2)
    25a4:	08e12c23          	sw	x14,152(x2)
    25a8:	0dc12703          	lw	x14,220(x2)
    25ac:	08012623          	sw	x0,140(x2)
    25b0:	08e12e23          	sw	x14,156(x2)
    25b4:	7d10b0ef          	jal	x1,e584 <__eqtf2>
    25b8:	03412603          	lw	x12,52(x2)
    25bc:	4e051863          	bne	x10,x0,2aac <_vfprintf_r+0x10cc>
    25c0:	0c812783          	lw	x15,200(x2)
    25c4:	0000f717          	auipc	x14,0xf
    25c8:	52070713          	addi	x14,x14,1312 # 11ae4 <__clzsi2+0x368>
    25cc:	00ea2023          	sw	x14,0(x20)
    25d0:	00160613          	addi	x12,x12,1
    25d4:	00100713          	addi	x14,x0,1
    25d8:	00178793          	addi	x15,x15,1
    25dc:	00ea2223          	sw	x14,4(x20)
    25e0:	0cc12623          	sw	x12,204(x2)
    25e4:	0cf12423          	sw	x15,200(x2)
    25e8:	00700713          	addi	x14,x0,7
    25ec:	008a0a13          	addi	x20,x20,8
    25f0:	56f74ee3          	blt	x14,x15,336c <_vfprintf_r+0x198c>
    25f4:	0ac12783          	lw	x15,172(x2)
    25f8:	01c12703          	lw	x14,28(x2)
    25fc:	70e7d663          	bge	x15,x14,2d08 <_vfprintf_r+0x1328>
    2600:	02c12783          	lw	x15,44(x2)
    2604:	02812703          	lw	x14,40(x2)
    2608:	008a0a13          	addi	x20,x20,8
    260c:	fefa2c23          	sw	x15,-8(x20)
    2610:	0c812783          	lw	x15,200(x2)
    2614:	00e60633          	add	x12,x12,x14
    2618:	feea2e23          	sw	x14,-4(x20)
    261c:	00178793          	addi	x15,x15,1
    2620:	0cc12623          	sw	x12,204(x2)
    2624:	0cf12423          	sw	x15,200(x2)
    2628:	00700713          	addi	x14,x0,7
    262c:	00f74ee3          	blt	x14,x15,2e48 <_vfprintf_r+0x1468>
    2630:	01c12783          	lw	x15,28(x2)
    2634:	fff78913          	addi	x18,x15,-1
    2638:	e9205663          	bge	x0,x18,1cc4 <_vfprintf_r+0x2e4>
    263c:	00010817          	auipc	x16,0x10
    2640:	8e880813          	addi	x16,x16,-1816 # 11f24 <zeroes.0>
    2644:	01000713          	addi	x14,x0,16
    2648:	0c812783          	lw	x15,200(x2)
    264c:	01000b13          	addi	x22,x0,16
    2650:	00700c13          	addi	x24,x0,7
    2654:	00080d13          	addi	x26,x16,0
    2658:	01274863          	blt	x14,x18,2668 <_vfprintf_r+0xc88>
    265c:	5350006f          	jal	x0,3390 <_vfprintf_r+0x19b0>
    2660:	ff090913          	addi	x18,x18,-16
    2664:	532b54e3          	bge	x22,x18,338c <_vfprintf_r+0x19ac>
    2668:	01060613          	addi	x12,x12,16
    266c:	00178793          	addi	x15,x15,1
    2670:	01aa2023          	sw	x26,0(x20)
    2674:	016a2223          	sw	x22,4(x20)
    2678:	0cc12623          	sw	x12,204(x2)
    267c:	0cf12423          	sw	x15,200(x2)
    2680:	008a0a13          	addi	x20,x20,8
    2684:	fcfc5ee3          	bge	x24,x15,2660 <_vfprintf_r+0xc80>
    2688:	00812503          	lw	x10,8(x2)
    268c:	0c410613          	addi	x12,x2,196
    2690:	00048593          	addi	x11,x9,0
    2694:	669010ef          	jal	x1,44fc <__sprint_r>
    2698:	20051463          	bne	x10,x0,28a0 <_vfprintf_r+0xec0>
    269c:	0cc12603          	lw	x12,204(x2)
    26a0:	0c812783          	lw	x15,200(x2)
    26a4:	00098a13          	addi	x20,x19,0
    26a8:	fb9ff06f          	jal	x0,2660 <_vfprintf_r+0xc80>
    26ac:	41bc8c33          	sub	x24,x25,x27
    26b0:	dd805e63          	bge	x0,x24,1c8c <_vfprintf_r+0x2ac>
    26b4:	01000513          	addi	x10,x0,16
    26b8:	0c812583          	lw	x11,200(x2)
    26bc:	00010817          	auipc	x16,0x10
    26c0:	86880813          	addi	x16,x16,-1944 # 11f24 <zeroes.0>
    26c4:	09855c63          	bge	x10,x24,275c <_vfprintf_r+0xd7c>
    26c8:	000c0713          	addi	x14,x24,0
    26cc:	000a0793          	addi	x15,x20,0
    26d0:	00090c13          	addi	x24,x18,0
    26d4:	01000e93          	addi	x29,x0,16
    26d8:	00700f93          	addi	x31,x0,7
    26dc:	03112a23          	sw	x17,52(x2)
    26e0:	00080a13          	addi	x20,x16,0
    26e4:	00070913          	addi	x18,x14,0
    26e8:	00c0006f          	jal	x0,26f4 <_vfprintf_r+0xd14>
    26ec:	ff090913          	addi	x18,x18,-16
    26f0:	052eda63          	bge	x29,x18,2744 <_vfprintf_r+0xd64>
    26f4:	01060613          	addi	x12,x12,16
    26f8:	00158593          	addi	x11,x11,1
    26fc:	0147a023          	sw	x20,0(x15)
    2700:	01d7a223          	sw	x29,4(x15)
    2704:	0cc12623          	sw	x12,204(x2)
    2708:	0cb12423          	sw	x11,200(x2)
    270c:	00878793          	addi	x15,x15,8
    2710:	fcbfdee3          	bge	x31,x11,26ec <_vfprintf_r+0xd0c>
    2714:	00812503          	lw	x10,8(x2)
    2718:	0c410613          	addi	x12,x2,196
    271c:	00048593          	addi	x11,x9,0
    2720:	5dd010ef          	jal	x1,44fc <__sprint_r>
    2724:	16051e63          	bne	x10,x0,28a0 <_vfprintf_r+0xec0>
    2728:	01000e93          	addi	x29,x0,16
    272c:	ff090913          	addi	x18,x18,-16
    2730:	0cc12603          	lw	x12,204(x2)
    2734:	0c812583          	lw	x11,200(x2)
    2738:	00098793          	addi	x15,x19,0
    273c:	00700f93          	addi	x31,x0,7
    2740:	fb2ecae3          	blt	x29,x18,26f4 <_vfprintf_r+0xd14>
    2744:	03412883          	lw	x17,52(x2)
    2748:	00090713          	addi	x14,x18,0
    274c:	000a0813          	addi	x16,x20,0
    2750:	000c0913          	addi	x18,x24,0
    2754:	00078a13          	addi	x20,x15,0
    2758:	00070c13          	addi	x24,x14,0
    275c:	01860633          	add	x12,x12,x24
    2760:	00158593          	addi	x11,x11,1
    2764:	010a2023          	sw	x16,0(x20)
    2768:	018a2223          	sw	x24,4(x20)
    276c:	0cc12623          	sw	x12,204(x2)
    2770:	0cb12423          	sw	x11,200(x2)
    2774:	00700713          	addi	x14,x0,7
    2778:	008a0a13          	addi	x20,x20,8
    277c:	d0b75863          	bge	x14,x11,1c8c <_vfprintf_r+0x2ac>
    2780:	00812503          	lw	x10,8(x2)
    2784:	0c410613          	addi	x12,x2,196
    2788:	00048593          	addi	x11,x9,0
    278c:	03112a23          	sw	x17,52(x2)
    2790:	56d010ef          	jal	x1,44fc <__sprint_r>
    2794:	10051663          	bne	x10,x0,28a0 <_vfprintf_r+0xec0>
    2798:	0cc12603          	lw	x12,204(x2)
    279c:	03412883          	lw	x17,52(x2)
    27a0:	00098a13          	addi	x20,x19,0
    27a4:	ce8ff06f          	jal	x0,1c8c <_vfprintf_r+0x2ac>
    27a8:	0c812583          	lw	x11,200(x2)
    27ac:	0000f817          	auipc	x16,0xf
    27b0:	77880813          	addi	x16,x16,1912 # 11f24 <zeroes.0>
    27b4:	09645663          	bge	x8,x22,2840 <_vfprintf_r+0xe60>
    27b8:	000a0793          	addi	x15,x20,0
    27bc:	00700c13          	addi	x24,x0,7
    27c0:	00090a13          	addi	x20,x18,0
    27c4:	03112a23          	sw	x17,52(x2)
    27c8:	000b0913          	addi	x18,x22,0
    27cc:	00080b13          	addi	x22,x16,0
    27d0:	00c0006f          	jal	x0,27dc <_vfprintf_r+0xdfc>
    27d4:	ff090913          	addi	x18,x18,-16
    27d8:	05245a63          	bge	x8,x18,282c <_vfprintf_r+0xe4c>
    27dc:	01060613          	addi	x12,x12,16
    27e0:	00158593          	addi	x11,x11,1
    27e4:	0000f717          	auipc	x14,0xf
    27e8:	74070713          	addi	x14,x14,1856 # 11f24 <zeroes.0>
    27ec:	00e7a023          	sw	x14,0(x15)
    27f0:	0087a223          	sw	x8,4(x15)
    27f4:	0cc12623          	sw	x12,204(x2)
    27f8:	0cb12423          	sw	x11,200(x2)
    27fc:	00878793          	addi	x15,x15,8
    2800:	fcbc5ae3          	bge	x24,x11,27d4 <_vfprintf_r+0xdf4>
    2804:	00812503          	lw	x10,8(x2)
    2808:	0c410613          	addi	x12,x2,196
    280c:	00048593          	addi	x11,x9,0
    2810:	4ed010ef          	jal	x1,44fc <__sprint_r>
    2814:	08051663          	bne	x10,x0,28a0 <_vfprintf_r+0xec0>
    2818:	ff090913          	addi	x18,x18,-16
    281c:	0cc12603          	lw	x12,204(x2)
    2820:	0c812583          	lw	x11,200(x2)
    2824:	00098793          	addi	x15,x19,0
    2828:	fb244ae3          	blt	x8,x18,27dc <_vfprintf_r+0xdfc>
    282c:	03412883          	lw	x17,52(x2)
    2830:	000b0813          	addi	x16,x22,0
    2834:	00090b13          	addi	x22,x18,0
    2838:	000a0913          	addi	x18,x20,0
    283c:	00078a13          	addi	x20,x15,0
    2840:	01660633          	add	x12,x12,x22
    2844:	00158593          	addi	x11,x11,1
    2848:	010a2023          	sw	x16,0(x20)
    284c:	016a2223          	sw	x22,4(x20)
    2850:	0cc12623          	sw	x12,204(x2)
    2854:	0cb12423          	sw	x11,200(x2)
    2858:	00700713          	addi	x14,x0,7
    285c:	008a0a13          	addi	x20,x20,8
    2860:	c2b75a63          	bge	x14,x11,1c94 <_vfprintf_r+0x2b4>
    2864:	00812503          	lw	x10,8(x2)
    2868:	0c410613          	addi	x12,x2,196
    286c:	00048593          	addi	x11,x9,0
    2870:	03112a23          	sw	x17,52(x2)
    2874:	489010ef          	jal	x1,44fc <__sprint_r>
    2878:	02051463          	bne	x10,x0,28a0 <_vfprintf_r+0xec0>
    287c:	0cc12603          	lw	x12,204(x2)
    2880:	03412883          	lw	x17,52(x2)
    2884:	00098a13          	addi	x20,x19,0
    2888:	c0cff06f          	jal	x0,1c94 <_vfprintf_r+0x2b4>
    288c:	00812503          	lw	x10,8(x2)
    2890:	0c410613          	addi	x12,x2,196
    2894:	00048593          	addi	x11,x9,0
    2898:	465010ef          	jal	x1,44fc <__sprint_r>
    289c:	c4050a63          	beq	x10,x0,1cf0 <_vfprintf_r+0x310>
    28a0:	01012383          	lw	x7,16(x2)
    28a4:	c8038063          	beq	x7,x0,1d24 <_vfprintf_r+0x344>
    28a8:	00812503          	lw	x10,8(x2)
    28ac:	00038593          	addi	x11,x7,0
    28b0:	e84fe0ef          	jal	x1,f34 <_free_r>
    28b4:	c70ff06f          	jal	x0,1d24 <_vfprintf_r+0x344>
    28b8:	000b8f93          	addi	x31,x23,0
    28bc:	931ff06f          	jal	x0,21ec <_vfprintf_r+0x80c>
    28c0:	01000513          	addi	x10,x0,16
    28c4:	0c812583          	lw	x11,200(x2)
    28c8:	0000fc17          	auipc	x24,0xf
    28cc:	64cc0c13          	addi	x24,x24,1612 # 11f14 <blanks.1>
    28d0:	0ae55063          	bge	x10,x14,2970 <_vfprintf_r+0xf90>
    28d4:	000a0793          	addi	x15,x20,0
    28d8:	01000813          	addi	x16,x0,16
    28dc:	000c0a13          	addi	x20,x24,0
    28e0:	00700393          	addi	x7,x0,7
    28e4:	00090c13          	addi	x24,x18,0
    28e8:	02512a23          	sw	x5,52(x2)
    28ec:	05f12423          	sw	x31,72(x2)
    28f0:	05112623          	sw	x17,76(x2)
    28f4:	00070913          	addi	x18,x14,0
    28f8:	00c0006f          	jal	x0,2904 <_vfprintf_r+0xf24>
    28fc:	ff090913          	addi	x18,x18,-16
    2900:	05285a63          	bge	x16,x18,2954 <_vfprintf_r+0xf74>
    2904:	01060613          	addi	x12,x12,16
    2908:	00158593          	addi	x11,x11,1
    290c:	0147a023          	sw	x20,0(x15)
    2910:	0107a223          	sw	x16,4(x15)
    2914:	0cc12623          	sw	x12,204(x2)
    2918:	0cb12423          	sw	x11,200(x2)
    291c:	00878793          	addi	x15,x15,8
    2920:	fcb3dee3          	bge	x7,x11,28fc <_vfprintf_r+0xf1c>
    2924:	00812503          	lw	x10,8(x2)
    2928:	0c410613          	addi	x12,x2,196
    292c:	00048593          	addi	x11,x9,0
    2930:	3cd010ef          	jal	x1,44fc <__sprint_r>
    2934:	f60516e3          	bne	x10,x0,28a0 <_vfprintf_r+0xec0>
    2938:	01000813          	addi	x16,x0,16
    293c:	ff090913          	addi	x18,x18,-16
    2940:	0cc12603          	lw	x12,204(x2)
    2944:	0c812583          	lw	x11,200(x2)
    2948:	00098793          	addi	x15,x19,0
    294c:	00700393          	addi	x7,x0,7
    2950:	fb284ae3          	blt	x16,x18,2904 <_vfprintf_r+0xf24>
    2954:	03412283          	lw	x5,52(x2)
    2958:	04812f83          	lw	x31,72(x2)
    295c:	04c12883          	lw	x17,76(x2)
    2960:	00090713          	addi	x14,x18,0
    2964:	000c0913          	addi	x18,x24,0
    2968:	000a0c13          	addi	x24,x20,0
    296c:	00078a13          	addi	x20,x15,0
    2970:	00e60633          	add	x12,x12,x14
    2974:	00158593          	addi	x11,x11,1
    2978:	00ea2223          	sw	x14,4(x20)
    297c:	018a2023          	sw	x24,0(x20)
    2980:	0cc12623          	sw	x12,204(x2)
    2984:	0cb12423          	sw	x11,200(x2)
    2988:	00700713          	addi	x14,x0,7
    298c:	008a0a13          	addi	x20,x20,8
    2990:	a8b75463          	bge	x14,x11,1c18 <_vfprintf_r+0x238>
    2994:	00812503          	lw	x10,8(x2)
    2998:	0c410613          	addi	x12,x2,196
    299c:	00048593          	addi	x11,x9,0
    29a0:	05112623          	sw	x17,76(x2)
    29a4:	05f12423          	sw	x31,72(x2)
    29a8:	02512a23          	sw	x5,52(x2)
    29ac:	351010ef          	jal	x1,44fc <__sprint_r>
    29b0:	ee0518e3          	bne	x10,x0,28a0 <_vfprintf_r+0xec0>
    29b4:	0cc12603          	lw	x12,204(x2)
    29b8:	04c12883          	lw	x17,76(x2)
    29bc:	04812f83          	lw	x31,72(x2)
    29c0:	03412283          	lw	x5,52(x2)
    29c4:	00098a13          	addi	x20,x19,0
    29c8:	a50ff06f          	jal	x0,1c18 <_vfprintf_r+0x238>
    29cc:	00812503          	lw	x10,8(x2)
    29d0:	0c410613          	addi	x12,x2,196
    29d4:	00048593          	addi	x11,x9,0
    29d8:	05112423          	sw	x17,72(x2)
    29dc:	03f12a23          	sw	x31,52(x2)
    29e0:	31d010ef          	jal	x1,44fc <__sprint_r>
    29e4:	ea051ee3          	bne	x10,x0,28a0 <_vfprintf_r+0xec0>
    29e8:	0cc12603          	lw	x12,204(x2)
    29ec:	04812883          	lw	x17,72(x2)
    29f0:	03412f83          	lw	x31,52(x2)
    29f4:	00098a13          	addi	x20,x19,0
    29f8:	a8cff06f          	jal	x0,1c84 <_vfprintf_r+0x2a4>
    29fc:	01000713          	addi	x14,x0,16
    2a00:	0c812783          	lw	x15,200(x2)
    2a04:	0000fc17          	auipc	x24,0xf
    2a08:	510c0c13          	addi	x24,x24,1296 # 11f14 <blanks.1>
    2a0c:	07275263          	bge	x14,x18,2a70 <_vfprintf_r+0x1090>
    2a10:	00812d03          	lw	x26,8(x2)
    2a14:	01000b13          	addi	x22,x0,16
    2a18:	00700b93          	addi	x23,x0,7
    2a1c:	00c0006f          	jal	x0,2a28 <_vfprintf_r+0x1048>
    2a20:	ff090913          	addi	x18,x18,-16
    2a24:	052b5663          	bge	x22,x18,2a70 <_vfprintf_r+0x1090>
    2a28:	01060613          	addi	x12,x12,16
    2a2c:	00178793          	addi	x15,x15,1
    2a30:	018a2023          	sw	x24,0(x20)
    2a34:	016a2223          	sw	x22,4(x20)
    2a38:	0cc12623          	sw	x12,204(x2)
    2a3c:	0cf12423          	sw	x15,200(x2)
    2a40:	008a0a13          	addi	x20,x20,8
    2a44:	fcfbdee3          	bge	x23,x15,2a20 <_vfprintf_r+0x1040>
    2a48:	0c410613          	addi	x12,x2,196
    2a4c:	00048593          	addi	x11,x9,0
    2a50:	000d0513          	addi	x10,x26,0
    2a54:	2a9010ef          	jal	x1,44fc <__sprint_r>
    2a58:	e40514e3          	bne	x10,x0,28a0 <_vfprintf_r+0xec0>
    2a5c:	ff090913          	addi	x18,x18,-16
    2a60:	0cc12603          	lw	x12,204(x2)
    2a64:	0c812783          	lw	x15,200(x2)
    2a68:	00098a13          	addi	x20,x19,0
    2a6c:	fb2b4ee3          	blt	x22,x18,2a28 <_vfprintf_r+0x1048>
    2a70:	01260633          	add	x12,x12,x18
    2a74:	00178793          	addi	x15,x15,1
    2a78:	018a2023          	sw	x24,0(x20)
    2a7c:	012a2223          	sw	x18,4(x20)
    2a80:	0cc12623          	sw	x12,204(x2)
    2a84:	0cf12423          	sw	x15,200(x2)
    2a88:	00700713          	addi	x14,x0,7
    2a8c:	a4f75463          	bge	x14,x15,1cd4 <_vfprintf_r+0x2f4>
    2a90:	00812503          	lw	x10,8(x2)
    2a94:	0c410613          	addi	x12,x2,196
    2a98:	00048593          	addi	x11,x9,0
    2a9c:	261010ef          	jal	x1,44fc <__sprint_r>
    2aa0:	e00510e3          	bne	x10,x0,28a0 <_vfprintf_r+0xec0>
    2aa4:	0cc12603          	lw	x12,204(x2)
    2aa8:	a2cff06f          	jal	x0,1cd4 <_vfprintf_r+0x2f4>
    2aac:	0ac12583          	lw	x11,172(x2)
    2ab0:	02b058e3          	bge	x0,x11,32e0 <_vfprintf_r+0x1900>
    2ab4:	01812783          	lw	x15,24(x2)
    2ab8:	01c12703          	lw	x14,28(x2)
    2abc:	00078b13          	addi	x22,x15,0
    2ac0:	2ef74663          	blt	x14,x15,2dac <_vfprintf_r+0x13cc>
    2ac4:	03605663          	bge	x0,x22,2af0 <_vfprintf_r+0x1110>
    2ac8:	0c812703          	lw	x14,200(x2)
    2acc:	01660633          	add	x12,x12,x22
    2ad0:	01aa2023          	sw	x26,0(x20)
    2ad4:	00170713          	addi	x14,x14,1
    2ad8:	016a2223          	sw	x22,4(x20)
    2adc:	0cc12623          	sw	x12,204(x2)
    2ae0:	0ce12423          	sw	x14,200(x2)
    2ae4:	00700593          	addi	x11,x0,7
    2ae8:	008a0a13          	addi	x20,x20,8
    2aec:	58e5cce3          	blt	x11,x14,3884 <_vfprintf_r+0x1ea4>
    2af0:	fffb4713          	xori	x14,x22,-1
    2af4:	01812783          	lw	x15,24(x2)
    2af8:	41f75713          	srai	x14,x14,0x1f
    2afc:	00eb7b33          	and	x22,x22,x14
    2b00:	41678b33          	sub	x22,x15,x22
    2b04:	39604a63          	blt	x0,x22,2e98 <_vfprintf_r+0x14b8>
    2b08:	01812783          	lw	x15,24(x2)
    2b0c:	400bf713          	andi	x14,x23,1024
    2b10:	00fd0c33          	add	x24,x26,x15
    2b14:	26071ce3          	bne	x14,x0,358c <_vfprintf_r+0x1bac>
    2b18:	0ac12583          	lw	x11,172(x2)
    2b1c:	01c12783          	lw	x15,28(x2)
    2b20:	3ef5c663          	blt	x11,x15,2f0c <_vfprintf_r+0x152c>
    2b24:	001bf713          	andi	x14,x23,1
    2b28:	3e071263          	bne	x14,x0,2f0c <_vfprintf_r+0x152c>
    2b2c:	01c12703          	lw	x14,28(x2)
    2b30:	00ed07b3          	add	x15,x26,x14
    2b34:	40b705b3          	sub	x11,x14,x11
    2b38:	41878b33          	sub	x22,x15,x24
    2b3c:	0165d463          	bge	x11,x22,2b44 <_vfprintf_r+0x1164>
    2b40:	00058b13          	addi	x22,x11,0
    2b44:	03605863          	bge	x0,x22,2b74 <_vfprintf_r+0x1194>
    2b48:	0c812703          	lw	x14,200(x2)
    2b4c:	01660633          	add	x12,x12,x22
    2b50:	018a2023          	sw	x24,0(x20)
    2b54:	00170713          	addi	x14,x14,1
    2b58:	016a2223          	sw	x22,4(x20)
    2b5c:	0cc12623          	sw	x12,204(x2)
    2b60:	0ce12423          	sw	x14,200(x2)
    2b64:	00700793          	addi	x15,x0,7
    2b68:	008a0a13          	addi	x20,x20,8
    2b6c:	00e7d463          	bge	x15,x14,2b74 <_vfprintf_r+0x1194>
    2b70:	3b40106f          	jal	x0,3f24 <_vfprintf_r+0x2544>
    2b74:	fffb4713          	xori	x14,x22,-1
    2b78:	41f75713          	srai	x14,x14,0x1f
    2b7c:	00eb77b3          	and	x15,x22,x14
    2b80:	40f58933          	sub	x18,x11,x15
    2b84:	95205063          	bge	x0,x18,1cc4 <_vfprintf_r+0x2e4>
    2b88:	0000f817          	auipc	x16,0xf
    2b8c:	39c80813          	addi	x16,x16,924 # 11f24 <zeroes.0>
    2b90:	01000713          	addi	x14,x0,16
    2b94:	0c812783          	lw	x15,200(x2)
    2b98:	01000b13          	addi	x22,x0,16
    2b9c:	00700c13          	addi	x24,x0,7
    2ba0:	00080d13          	addi	x26,x16,0
    2ba4:	01274863          	blt	x14,x18,2bb4 <_vfprintf_r+0x11d4>
    2ba8:	7e80006f          	jal	x0,3390 <_vfprintf_r+0x19b0>
    2bac:	ff090913          	addi	x18,x18,-16
    2bb0:	7d2b5e63          	bge	x22,x18,338c <_vfprintf_r+0x19ac>
    2bb4:	01060613          	addi	x12,x12,16
    2bb8:	00178793          	addi	x15,x15,1
    2bbc:	01aa2023          	sw	x26,0(x20)
    2bc0:	016a2223          	sw	x22,4(x20)
    2bc4:	0cc12623          	sw	x12,204(x2)
    2bc8:	0cf12423          	sw	x15,200(x2)
    2bcc:	008a0a13          	addi	x20,x20,8
    2bd0:	fcfc5ee3          	bge	x24,x15,2bac <_vfprintf_r+0x11cc>
    2bd4:	00812503          	lw	x10,8(x2)
    2bd8:	0c410613          	addi	x12,x2,196
    2bdc:	00048593          	addi	x11,x9,0
    2be0:	11d010ef          	jal	x1,44fc <__sprint_r>
    2be4:	ca051ee3          	bne	x10,x0,28a0 <_vfprintf_r+0xec0>
    2be8:	0cc12603          	lw	x12,204(x2)
    2bec:	0c812783          	lw	x15,200(x2)
    2bf0:	00098a13          	addi	x20,x19,0
    2bf4:	fb9ff06f          	jal	x0,2bac <_vfprintf_r+0x11cc>
    2bf8:	001bf593          	andi	x11,x23,1
    2bfc:	c6059063          	bne	x11,x0,205c <_vfprintf_r+0x67c>
    2c00:	00ea2223          	sw	x14,4(x20)
    2c04:	0d812623          	sw	x24,204(x2)
    2c08:	0d212423          	sw	x18,200(x2)
    2c0c:	00700793          	addi	x15,x0,7
    2c10:	d127d463          	bge	x15,x18,2118 <_vfprintf_r+0x738>
    2c14:	00812503          	lw	x10,8(x2)
    2c18:	0c410613          	addi	x12,x2,196
    2c1c:	00048593          	addi	x11,x9,0
    2c20:	0dd010ef          	jal	x1,44fc <__sprint_r>
    2c24:	c6051ee3          	bne	x10,x0,28a0 <_vfprintf_r+0xec0>
    2c28:	0cc12c03          	lw	x24,204(x2)
    2c2c:	0c812903          	lw	x18,200(x2)
    2c30:	00098b13          	addi	x22,x19,0
    2c34:	ce4ff06f          	jal	x0,2118 <_vfprintf_r+0x738>
    2c38:	01c12703          	lw	x14,28(x2)
    2c3c:	00100793          	addi	x15,x0,1
    2c40:	cce7dc63          	bge	x15,x14,2118 <_vfprintf_r+0x738>
    2c44:	01100793          	addi	x15,x0,17
    2c48:	0000f817          	auipc	x16,0xf
    2c4c:	2dc80813          	addi	x16,x16,732 # 11f24 <zeroes.0>
    2c50:	00e7d4e3          	bge	x15,x14,3458 <_vfprintf_r+0x1a78>
    2c54:	00048713          	addi	x14,x9,0
    2c58:	01512c23          	sw	x21,24(x2)
    2c5c:	000a0493          	addi	x9,x20,0
    2c60:	01000793          	addi	x15,x0,16
    2c64:	00700d13          	addi	x26,x0,7
    2c68:	00080a93          	addi	x21,x16,0
    2c6c:	00070a13          	addi	x20,x14,0
    2c70:	00c0006f          	jal	x0,2c7c <_vfprintf_r+0x129c>
    2c74:	ff048493          	addi	x9,x9,-16
    2c78:	7c97d663          	bge	x15,x9,3444 <_vfprintf_r+0x1a64>
    2c7c:	010c0c13          	addi	x24,x24,16
    2c80:	00190913          	addi	x18,x18,1
    2c84:	015b2023          	sw	x21,0(x22)
    2c88:	00fb2223          	sw	x15,4(x22)
    2c8c:	0d812623          	sw	x24,204(x2)
    2c90:	0d212423          	sw	x18,200(x2)
    2c94:	008b0b13          	addi	x22,x22,8
    2c98:	fd2d5ee3          	bge	x26,x18,2c74 <_vfprintf_r+0x1294>
    2c9c:	00812503          	lw	x10,8(x2)
    2ca0:	0c410613          	addi	x12,x2,196
    2ca4:	000a0593          	addi	x11,x20,0
    2ca8:	055010ef          	jal	x1,44fc <__sprint_r>
    2cac:	00050463          	beq	x10,x0,2cb4 <_vfprintf_r+0x12d4>
    2cb0:	35c0106f          	jal	x0,400c <_vfprintf_r+0x262c>
    2cb4:	0cc12c03          	lw	x24,204(x2)
    2cb8:	0c812903          	lw	x18,200(x2)
    2cbc:	00098b13          	addi	x22,x19,0
    2cc0:	01000793          	addi	x15,x0,16
    2cc4:	fb1ff06f          	jal	x0,2c74 <_vfprintf_r+0x1294>
    2cc8:	01412703          	lw	x14,20(x2)
    2ccc:	010ff793          	andi	x15,x31,16
    2cd0:	00072903          	lw	x18,0(x14)
    2cd4:	00470c13          	addi	x24,x14,4
    2cd8:	04079c63          	bne	x15,x0,2d30 <_vfprintf_r+0x1350>
    2cdc:	040ff793          	andi	x15,x31,64
    2ce0:	04078263          	beq	x15,x0,2d24 <_vfprintf_r+0x1344>
    2ce4:	01091913          	slli	x18,x18,0x10
    2ce8:	01095913          	srli	x18,x18,0x10
    2cec:	00000d93          	addi	x27,x0,0
    2cf0:	01812a23          	sw	x24,20(x2)
    2cf4:	00100793          	addi	x15,x0,1
    2cf8:	988ff06f          	jal	x0,1e80 <_vfprintf_r+0x4a0>
    2cfc:	00000913          	addi	x18,x0,0
    2d00:	19010d13          	addi	x26,x2,400
    2d04:	920ff06f          	jal	x0,1e24 <_vfprintf_r+0x444>
    2d08:	001bf793          	andi	x15,x23,1
    2d0c:	00079463          	bne	x15,x0,2d14 <_vfprintf_r+0x1334>
    2d10:	fb5fe06f          	jal	x0,1cc4 <_vfprintf_r+0x2e4>
    2d14:	8edff06f          	jal	x0,2600 <_vfprintf_r+0xc20>
    2d18:	000ac883          	lbu	x17,0(x21)
    2d1c:	00f12a23          	sw	x15,20(x2)
    2d20:	e51fe06f          	jal	x0,1b70 <_vfprintf_r+0x190>
    2d24:	200ff793          	andi	x15,x31,512
    2d28:	00078463          	beq	x15,x0,2d30 <_vfprintf_r+0x1350>
    2d2c:	0ff97913          	andi	x18,x18,255
    2d30:	00000d93          	addi	x27,x0,0
    2d34:	01812a23          	sw	x24,20(x2)
    2d38:	00100793          	addi	x15,x0,1
    2d3c:	944ff06f          	jal	x0,1e80 <_vfprintf_r+0x4a0>
    2d40:	200bf793          	andi	x15,x23,512
    2d44:	36079ee3          	bne	x15,x0,38c0 <_vfprintf_r+0x1ee0>
    2d48:	41f95d93          	srai	x27,x18,0x1f
    2d4c:	000d8793          	addi	x15,x27,0
    2d50:	01812a23          	sw	x24,20(x2)
    2d54:	8a8ff06f          	jal	x0,1dfc <_vfprintf_r+0x41c>
    2d58:	200bf793          	andi	x15,x23,512
    2d5c:	34079ae3          	bne	x15,x0,38b0 <_vfprintf_r+0x1ed0>
    2d60:	00000d93          	addi	x27,x0,0
    2d64:	01812a23          	sw	x24,20(x2)
    2d68:	910ff06f          	jal	x0,1e78 <_vfprintf_r+0x498>
    2d6c:	00c12603          	lw	x12,12(x2)
    2d70:	0006a783          	lw	x15,0(x13)
    2d74:	00e12a23          	sw	x14,20(x2)
    2d78:	41f65693          	srai	x13,x12,0x1f
    2d7c:	00c7a023          	sw	x12,0(x15)
    2d80:	00d7a223          	sw	x13,4(x15)
    2d84:	e7cff06f          	jal	x0,2400 <_vfprintf_r+0xa20>
    2d88:	01412783          	lw	x15,20(x2)
    2d8c:	0007a703          	lw	x14,0(x15)
    2d90:	00478793          	addi	x15,x15,4
    2d94:	00f12a23          	sw	x15,20(x2)
    2d98:	00072583          	lw	x11,0(x14)
    2d9c:	00472603          	lw	x12,4(x14)
    2da0:	00872683          	lw	x13,8(x14)
    2da4:	00c72703          	lw	x14,12(x14)
    2da8:	984ff06f          	jal	x0,1f2c <_vfprintf_r+0x54c>
    2dac:	00070b13          	addi	x22,x14,0
    2db0:	d1604ce3          	blt	x0,x22,2ac8 <_vfprintf_r+0x10e8>
    2db4:	d3dff06f          	jal	x0,2af0 <_vfprintf_r+0x1110>
    2db8:	fff00b13          	addi	x22,x0,-1
    2dbc:	00068a93          	addi	x21,x13,0
    2dc0:	db5fe06f          	jal	x0,1b74 <_vfprintf_r+0x194>
    2dc4:	000b8f93          	addi	x31,x23,0
    2dc8:	d78ff06f          	jal	x0,2340 <_vfprintf_r+0x960>
    2dcc:	0000f797          	auipc	x15,0xf
    2dd0:	cfc78793          	addi	x15,x15,-772 # 11ac8 <__clzsi2+0x34c>
    2dd4:	02f12823          	sw	x15,48(x2)
    2dd8:	020bf793          	andi	x15,x23,32
    2ddc:	36078663          	beq	x15,x0,3148 <_vfprintf_r+0x1768>
    2de0:	01412783          	lw	x15,20(x2)
    2de4:	00778c13          	addi	x24,x15,7
    2de8:	ff8c7c13          	andi	x24,x24,-8
    2dec:	000c2903          	lw	x18,0(x24)
    2df0:	004c2d83          	lw	x27,4(x24)
    2df4:	008c0793          	addi	x15,x24,8
    2df8:	00f12a23          	sw	x15,20(x2)
    2dfc:	001bf793          	andi	x15,x23,1
    2e00:	00078e63          	beq	x15,x0,2e1c <_vfprintf_r+0x143c>
    2e04:	01b967b3          	or	x15,x18,x27
    2e08:	00078a63          	beq	x15,x0,2e1c <_vfprintf_r+0x143c>
    2e0c:	03000793          	addi	x15,x0,48
    2e10:	0af10423          	sb	x15,168(x2)
    2e14:	0b1104a3          	sb	x17,169(x2)
    2e18:	002beb93          	ori	x23,x23,2
    2e1c:	bffbff93          	andi	x31,x23,-1025
    2e20:	00200793          	addi	x15,x0,2
    2e24:	85cff06f          	jal	x0,1e80 <_vfprintf_r+0x4a0>
    2e28:	0000f797          	auipc	x15,0xf
    2e2c:	c8c78793          	addi	x15,x15,-884 # 11ab4 <__clzsi2+0x338>
    2e30:	02f12823          	sw	x15,48(x2)
    2e34:	fa5ff06f          	jal	x0,2dd8 <_vfprintf_r+0x13f8>
    2e38:	001ac883          	lbu	x17,1(x21)
    2e3c:	020beb93          	ori	x23,x23,32
    2e40:	001a8a93          	addi	x21,x21,1
    2e44:	d2dfe06f          	jal	x0,1b70 <_vfprintf_r+0x190>
    2e48:	00812503          	lw	x10,8(x2)
    2e4c:	0c410613          	addi	x12,x2,196
    2e50:	00048593          	addi	x11,x9,0
    2e54:	6a8010ef          	jal	x1,44fc <__sprint_r>
    2e58:	a40514e3          	bne	x10,x0,28a0 <_vfprintf_r+0xec0>
    2e5c:	0cc12603          	lw	x12,204(x2)
    2e60:	00098a13          	addi	x20,x19,0
    2e64:	fccff06f          	jal	x0,2630 <_vfprintf_r+0xc50>
    2e68:	001ac883          	lbu	x17,1(x21)
    2e6c:	200beb93          	ori	x23,x23,512
    2e70:	001a8a93          	addi	x21,x21,1
    2e74:	cfdfe06f          	jal	x0,1b70 <_vfprintf_r+0x190>
    2e78:	00600793          	addi	x15,x0,6
    2e7c:	000b0913          	addi	x18,x22,0
    2e80:	2367e4e3          	bltu	x15,x22,38a8 <_vfprintf_r+0x1ec8>
    2e84:	00090d93          	addi	x27,x18,0
    2e88:	01812a23          	sw	x24,20(x2)
    2e8c:	0000fd17          	auipc	x26,0xf
    2e90:	c50d0d13          	addi	x26,x26,-944 # 11adc <__clzsi2+0x360>
    2e94:	d51fe06f          	jal	x0,1be4 <_vfprintf_r+0x204>
    2e98:	01000593          	addi	x11,x0,16
    2e9c:	0c812703          	lw	x14,200(x2)
    2ea0:	0000f817          	auipc	x16,0xf
    2ea4:	08480813          	addi	x16,x16,132 # 11f24 <zeroes.0>
    2ea8:	6b65d063          	bge	x11,x22,3548 <_vfprintf_r+0x1b68>
    2eac:	000a0793          	addi	x15,x20,0
    2eb0:	01000c13          	addi	x24,x0,16
    2eb4:	00700913          	addi	x18,x0,7
    2eb8:	00080a13          	addi	x20,x16,0
    2ebc:	00c0006f          	jal	x0,2ec8 <_vfprintf_r+0x14e8>
    2ec0:	ff0b0b13          	addi	x22,x22,-16
    2ec4:	676c5e63          	bge	x24,x22,3540 <_vfprintf_r+0x1b60>
    2ec8:	01060613          	addi	x12,x12,16
    2ecc:	00170713          	addi	x14,x14,1
    2ed0:	0147a023          	sw	x20,0(x15)
    2ed4:	0187a223          	sw	x24,4(x15)
    2ed8:	0cc12623          	sw	x12,204(x2)
    2edc:	0ce12423          	sw	x14,200(x2)
    2ee0:	00878793          	addi	x15,x15,8
    2ee4:	fce95ee3          	bge	x18,x14,2ec0 <_vfprintf_r+0x14e0>
    2ee8:	00812503          	lw	x10,8(x2)
    2eec:	0c410613          	addi	x12,x2,196
    2ef0:	00048593          	addi	x11,x9,0
    2ef4:	608010ef          	jal	x1,44fc <__sprint_r>
    2ef8:	9a0514e3          	bne	x10,x0,28a0 <_vfprintf_r+0xec0>
    2efc:	0cc12603          	lw	x12,204(x2)
    2f00:	0c812703          	lw	x14,200(x2)
    2f04:	00098793          	addi	x15,x19,0
    2f08:	fb9ff06f          	jal	x0,2ec0 <_vfprintf_r+0x14e0>
    2f0c:	02c12703          	lw	x14,44(x2)
    2f10:	02812783          	lw	x15,40(x2)
    2f14:	00700513          	addi	x10,x0,7
    2f18:	00ea2023          	sw	x14,0(x20)
    2f1c:	0c812703          	lw	x14,200(x2)
    2f20:	00f60633          	add	x12,x12,x15
    2f24:	00fa2223          	sw	x15,4(x20)
    2f28:	00170713          	addi	x14,x14,1
    2f2c:	0cc12623          	sw	x12,204(x2)
    2f30:	0ce12423          	sw	x14,200(x2)
    2f34:	008a0a13          	addi	x20,x20,8
    2f38:	bee55ae3          	bge	x10,x14,2b2c <_vfprintf_r+0x114c>
    2f3c:	00812503          	lw	x10,8(x2)
    2f40:	0c410613          	addi	x12,x2,196
    2f44:	00048593          	addi	x11,x9,0
    2f48:	5b4010ef          	jal	x1,44fc <__sprint_r>
    2f4c:	94051ae3          	bne	x10,x0,28a0 <_vfprintf_r+0xec0>
    2f50:	0ac12583          	lw	x11,172(x2)
    2f54:	0cc12603          	lw	x12,204(x2)
    2f58:	00098a13          	addi	x20,x19,0
    2f5c:	bd1ff06f          	jal	x0,2b2c <_vfprintf_r+0x114c>
    2f60:	07800793          	addi	x15,x0,120
    2f64:	03000713          	addi	x14,x0,48
    2f68:	0ae10423          	sb	x14,168(x2)
    2f6c:	0af104a3          	sb	x15,169(x2)
    2f70:	06300713          	addi	x14,x0,99
    2f74:	00012823          	sw	x0,16(x2)
    2f78:	002beb93          	ori	x23,x23,2
    2f7c:	12c10d13          	addi	x26,x2,300
    2f80:	01674463          	blt	x14,x22,2f88 <_vfprintf_r+0x15a8>
    2f84:	824ff06f          	jal	x0,1fa8 <_vfprintf_r+0x5c8>
    2f88:	00812503          	lw	x10,8(x2)
    2f8c:	001b0593          	addi	x11,x22,1
    2f90:	01112823          	sw	x17,16(x2)
    2f94:	245020ef          	jal	x1,59d8 <_malloc_r>
    2f98:	01012883          	lw	x17,16(x2)
    2f9c:	00050d13          	addi	x26,x10,0
    2fa0:	00051463          	bne	x10,x0,2fa8 <_vfprintf_r+0x15c8>
    2fa4:	3440106f          	jal	x0,42e8 <_vfprintf_r+0x2908>
    2fa8:	00a12823          	sw	x10,16(x2)
    2fac:	ffdfe06f          	jal	x0,1fa8 <_vfprintf_r+0x5c8>
    2fb0:	00812503          	lw	x10,8(x2)
    2fb4:	09010913          	addi	x18,x2,144
    2fb8:	0ac10713          	addi	x14,x2,172
    2fbc:	0bc10813          	addi	x16,x2,188
    2fc0:	0b010793          	addi	x15,x2,176
    2fc4:	000b0693          	addi	x13,x22,0
    2fc8:	00200613          	addi	x12,x0,2
    2fcc:	00090593          	addi	x11,x18,0
    2fd0:	03112223          	sw	x17,36(x2)
    2fd4:	09f12823          	sw	x31,144(x2)
    2fd8:	03f12023          	sw	x31,32(x2)
    2fdc:	09e12a23          	sw	x30,148(x2)
    2fe0:	01e12e23          	sw	x30,28(x2)
    2fe4:	09d12c23          	sw	x29,152(x2)
    2fe8:	01d12c23          	sw	x29,24(x2)
    2fec:	09812e23          	sw	x24,156(x2)
    2ff0:	1f5040ef          	jal	x1,79e4 <_ldtoa_r>
    2ff4:	001bf713          	andi	x14,x23,1
    2ff8:	01812e83          	lw	x29,24(x2)
    2ffc:	01c12f03          	lw	x30,28(x2)
    3000:	02012f83          	lw	x31,32(x2)
    3004:	02412883          	lw	x17,36(x2)
    3008:	00050d13          	addi	x26,x10,0
    300c:	12071ee3          	bne	x14,x0,3948 <_vfprintf_r+0x1f68>
    3010:	0ac12783          	lw	x15,172(x2)
    3014:	00f12c23          	sw	x15,24(x2)
    3018:	0bc12783          	lw	x15,188(x2)
    301c:	40a787b3          	sub	x15,x15,x10
    3020:	00f12e23          	sw	x15,28(x2)
    3024:	01812783          	lw	x15,24(x2)
    3028:	ffd00713          	addi	x14,x0,-3
    302c:	00e7c463          	blt	x15,x14,3034 <_vfprintf_r+0x1654>
    3030:	62fb5ce3          	bge	x22,x15,3e68 <_vfprintf_r+0x2488>
    3034:	01812783          	lw	x15,24(x2)
    3038:	ffe88893          	addi	x17,x17,-2
    303c:	fff78713          	addi	x14,x15,-1
    3040:	0ae12623          	sw	x14,172(x2)
    3044:	0ff8f693          	andi	x13,x17,255
    3048:	00000613          	addi	x12,x0,0
    304c:	0ad10a23          	sb	x13,180(x2)
    3050:	02b00693          	addi	x13,x0,43
    3054:	00075a63          	bge	x14,x0,3068 <_vfprintf_r+0x1688>
    3058:	01812783          	lw	x15,24(x2)
    305c:	00100713          	addi	x14,x0,1
    3060:	02d00693          	addi	x13,x0,45
    3064:	40f70733          	sub	x14,x14,x15
    3068:	0ad10aa3          	sb	x13,181(x2)
    306c:	00900693          	addi	x13,x0,9
    3070:	00e6c463          	blt	x13,x14,3078 <_vfprintf_r+0x1698>
    3074:	0ac0106f          	jal	x0,4120 <_vfprintf_r+0x2740>
    3078:	0c310813          	addi	x16,x2,195
    307c:	00080e93          	addi	x29,x16,0
    3080:	00a00613          	addi	x12,x0,10
    3084:	06300f13          	addi	x30,x0,99
    3088:	02c767b3          	rem	x15,x14,x12
    308c:	000e8513          	addi	x10,x29,0
    3090:	00070693          	addi	x13,x14,0
    3094:	fffe8e93          	addi	x29,x29,-1
    3098:	03078793          	addi	x15,x15,48
    309c:	fef50fa3          	sb	x15,-1(x10)
    30a0:	02c74733          	div	x14,x14,x12
    30a4:	fedf42e3          	blt	x30,x13,3088 <_vfprintf_r+0x16a8>
    30a8:	03070713          	addi	x14,x14,48
    30ac:	ffe50693          	addi	x13,x10,-2
    30b0:	feee8fa3          	sb	x14,-1(x29)
    30b4:	0106e463          	bltu	x13,x16,30bc <_vfprintf_r+0x16dc>
    30b8:	2180106f          	jal	x0,42d0 <_vfprintf_r+0x28f0>
    30bc:	0b610613          	addi	x12,x2,182
    30c0:	0006c783          	lbu	x15,0(x13)
    30c4:	00168693          	addi	x13,x13,1
    30c8:	00160613          	addi	x12,x12,1
    30cc:	fef60fa3          	sb	x15,-1(x12)
    30d0:	ff0698e3          	bne	x13,x16,30c0 <_vfprintf_r+0x16e0>
    30d4:	19010793          	addi	x15,x2,400
    30d8:	40a78733          	sub	x14,x15,x10
    30dc:	f3770793          	addi	x15,x14,-201
    30e0:	02f12c23          	sw	x15,56(x2)
    30e4:	01c12783          	lw	x15,28(x2)
    30e8:	03812683          	lw	x13,56(x2)
    30ec:	00100713          	addi	x14,x0,1
    30f0:	00d78933          	add	x18,x15,x13
    30f4:	00f74463          	blt	x14,x15,30fc <_vfprintf_r+0x171c>
    30f8:	0640106f          	jal	x0,415c <_vfprintf_r+0x277c>
    30fc:	02812783          	lw	x15,40(x2)
    3100:	00f90933          	add	x18,x18,x15
    3104:	fff94693          	xori	x13,x18,-1
    3108:	bffbfe13          	andi	x28,x23,-1025
    310c:	41f6d693          	srai	x13,x13,0x1f
    3110:	100e6793          	ori	x15,x28,256
    3114:	04f12423          	sw	x15,72(x2)
    3118:	00d97db3          	and	x27,x18,x13
    311c:	02012223          	sw	x0,36(x2)
    3120:	02012023          	sw	x0,32(x2)
    3124:	00012c23          	sw	x0,24(x2)
    3128:	03412783          	lw	x15,52(x2)
    312c:	520782e3          	beq	x15,x0,3e50 <_vfprintf_r+0x2470>
    3130:	02d00713          	addi	x14,x0,45
    3134:	04812b83          	lw	x23,72(x2)
    3138:	0ae103a3          	sb	x14,167(x2)
    313c:	00000b13          	addi	x22,x0,0
    3140:	001d8d93          	addi	x27,x27,1
    3144:	ab5fe06f          	jal	x0,1bf8 <_vfprintf_r+0x218>
    3148:	01412703          	lw	x14,20(x2)
    314c:	010bf793          	andi	x15,x23,16
    3150:	00072903          	lw	x18,0(x14)
    3154:	00470c13          	addi	x24,x14,4
    3158:	06079863          	bne	x15,x0,31c8 <_vfprintf_r+0x17e8>
    315c:	040bf793          	andi	x15,x23,64
    3160:	06078063          	beq	x15,x0,31c0 <_vfprintf_r+0x17e0>
    3164:	01091913          	slli	x18,x18,0x10
    3168:	01095913          	srli	x18,x18,0x10
    316c:	00000d93          	addi	x27,x0,0
    3170:	01812a23          	sw	x24,20(x2)
    3174:	c89ff06f          	jal	x0,2dfc <_vfprintf_r+0x141c>
    3178:	00812503          	lw	x10,8(x2)
    317c:	0c410613          	addi	x12,x2,196
    3180:	00048593          	addi	x11,x9,0
    3184:	378010ef          	jal	x1,44fc <__sprint_r>
    3188:	f0051c63          	bne	x10,x0,28a0 <_vfprintf_r+0xec0>
    318c:	0cc12c03          	lw	x24,204(x2)
    3190:	0c812903          	lw	x18,200(x2)
    3194:	00098b13          	addi	x22,x19,0
    3198:	ee1fe06f          	jal	x0,2078 <_vfprintf_r+0x698>
    319c:	00812503          	lw	x10,8(x2)
    31a0:	0c410613          	addi	x12,x2,196
    31a4:	00048593          	addi	x11,x9,0
    31a8:	354010ef          	jal	x1,44fc <__sprint_r>
    31ac:	ee051a63          	bne	x10,x0,28a0 <_vfprintf_r+0xec0>
    31b0:	0cc12c03          	lw	x24,204(x2)
    31b4:	0c812903          	lw	x18,200(x2)
    31b8:	00098b13          	addi	x22,x19,0
    31bc:	eedfe06f          	jal	x0,20a8 <_vfprintf_r+0x6c8>
    31c0:	200bf793          	andi	x15,x23,512
    31c4:	70079a63          	bne	x15,x0,38d8 <_vfprintf_r+0x1ef8>
    31c8:	00000d93          	addi	x27,x0,0
    31cc:	01812a23          	sw	x24,20(x2)
    31d0:	c2dff06f          	jal	x0,2dfc <_vfprintf_r+0x141c>
    31d4:	ccccd837          	lui	x16,0xccccd
    31d8:	ccccdc37          	lui	x24,0xccccd
    31dc:	04012703          	lw	x14,64(x2)
    31e0:	400ffe93          	andi	x29,x31,1024
    31e4:	00000613          	addi	x12,x0,0
    31e8:	19010593          	addi	x11,x2,400
    31ec:	00500e13          	addi	x28,x0,5
    31f0:	ccd80813          	addi	x16,x16,-819 # cccccccd <__heap_end+0xcc8ccccd>
    31f4:	cccc0c13          	addi	x24,x24,-820 # cccccccc <__heap_end+0xcc8ccccc>
    31f8:	0ff00b93          	addi	x23,x0,255
    31fc:	0540006f          	jal	x0,3250 <_vfprintf_r+0x1870>
    3200:	012d37b3          	sltu	x15,x26,x18
    3204:	00fd07b3          	add	x15,x26,x15
    3208:	03c7f7b3          	remu	x15,x15,x28
    320c:	40f907b3          	sub	x15,x18,x15
    3210:	00f935b3          	sltu	x11,x18,x15
    3214:	40bd85b3          	sub	x11,x27,x11
    3218:	03878333          	mul	x6,x15,x24
    321c:	030585b3          	mul	x11,x11,x16
    3220:	0307b533          	mulhu	x10,x15,x16
    3224:	006585b3          	add	x11,x11,x6
    3228:	030787b3          	mul	x15,x15,x16
    322c:	00a585b3          	add	x11,x11,x10
    3230:	01f59513          	slli	x10,x11,0x1f
    3234:	0015d593          	srli	x11,x11,0x1
    3238:	0017d793          	srli	x15,x15,0x1
    323c:	00f567b3          	or	x15,x10,x15
    3240:	600d8863          	beq	x27,x0,3850 <_vfprintf_r+0x1e70>
    3244:	00058d93          	addi	x27,x11,0
    3248:	00078913          	addi	x18,x15,0
    324c:	00068593          	addi	x11,x13,0
    3250:	01b90d33          	add	x26,x18,x27
    3254:	012d37b3          	sltu	x15,x26,x18
    3258:	00fd07b3          	add	x15,x26,x15
    325c:	03c7f7b3          	remu	x15,x15,x28
    3260:	fff58693          	addi	x13,x11,-1
    3264:	00160613          	addi	x12,x12,1
    3268:	40f907b3          	sub	x15,x18,x15
    326c:	00f93533          	sltu	x10,x18,x15
    3270:	40ad8533          	sub	x10,x27,x10
    3274:	0307b333          	mulhu	x6,x15,x16
    3278:	03050533          	mul	x10,x10,x16
    327c:	030787b3          	mul	x15,x15,x16
    3280:	00650533          	add	x10,x10,x6
    3284:	01f51513          	slli	x10,x10,0x1f
    3288:	0017d793          	srli	x15,x15,0x1
    328c:	00f567b3          	or	x15,x10,x15
    3290:	00279513          	slli	x10,x15,0x2
    3294:	00f507b3          	add	x15,x10,x15
    3298:	00179793          	slli	x15,x15,0x1
    329c:	40f907b3          	sub	x15,x18,x15
    32a0:	03078793          	addi	x15,x15,48
    32a4:	fef58fa3          	sb	x15,-1(x11)
    32a8:	f40e8ce3          	beq	x29,x0,3200 <_vfprintf_r+0x1820>
    32ac:	00074783          	lbu	x15,0(x14)
    32b0:	f4f618e3          	bne	x12,x15,3200 <_vfprintf_r+0x1820>
    32b4:	f57606e3          	beq	x12,x23,3200 <_vfprintf_r+0x1820>
    32b8:	4e0d9263          	bne	x27,x0,379c <_vfprintf_r+0x1dbc>
    32bc:	00900793          	addi	x15,x0,9
    32c0:	4d27ee63          	bltu	x15,x18,379c <_vfprintf_r+0x1dbc>
    32c4:	00068d13          	addi	x26,x13,0
    32c8:	19010793          	addi	x15,x2,400
    32cc:	00c12e23          	sw	x12,28(x2)
    32d0:	04e12023          	sw	x14,64(x2)
    32d4:	41a78933          	sub	x18,x15,x26
    32d8:	000f8b93          	addi	x23,x31,0
    32dc:	b49fe06f          	jal	x0,1e24 <_vfprintf_r+0x444>
    32e0:	0c812703          	lw	x14,200(x2)
    32e4:	0000f517          	auipc	x10,0xf
    32e8:	80050513          	addi	x10,x10,-2048 # 11ae4 <__clzsi2+0x368>
    32ec:	00aa2023          	sw	x10,0(x20)
    32f0:	00160613          	addi	x12,x12,1
    32f4:	00100513          	addi	x10,x0,1
    32f8:	00170713          	addi	x14,x14,1
    32fc:	00aa2223          	sw	x10,4(x20)
    3300:	0cc12623          	sw	x12,204(x2)
    3304:	0ce12423          	sw	x14,200(x2)
    3308:	00700513          	addi	x10,x0,7
    330c:	008a0a13          	addi	x20,x20,8
    3310:	54e54663          	blt	x10,x14,385c <_vfprintf_r+0x1e7c>
    3314:	14059a63          	bne	x11,x0,3468 <_vfprintf_r+0x1a88>
    3318:	01c12783          	lw	x15,28(x2)
    331c:	001bf713          	andi	x14,x23,1
    3320:	00f76733          	or	x14,x14,x15
    3324:	00071463          	bne	x14,x0,332c <_vfprintf_r+0x194c>
    3328:	99dfe06f          	jal	x0,1cc4 <_vfprintf_r+0x2e4>
    332c:	02c12703          	lw	x14,44(x2)
    3330:	02812783          	lw	x15,40(x2)
    3334:	00700593          	addi	x11,x0,7
    3338:	00ea2023          	sw	x14,0(x20)
    333c:	0c812703          	lw	x14,200(x2)
    3340:	00c78633          	add	x12,x15,x12
    3344:	00fa2223          	sw	x15,4(x20)
    3348:	00170713          	addi	x14,x14,1
    334c:	0cc12623          	sw	x12,204(x2)
    3350:	0ce12423          	sw	x14,200(x2)
    3354:	5ce5c463          	blt	x11,x14,391c <_vfprintf_r+0x1f3c>
    3358:	008a0a13          	addi	x20,x20,8
    335c:	1400006f          	jal	x0,349c <_vfprintf_r+0x1abc>
    3360:	00812503          	lw	x10,8(x2)
    3364:	a45fd0ef          	jal	x1,da8 <__sinit>
    3368:	ed8fe06f          	jal	x0,1a40 <_vfprintf_r+0x60>
    336c:	00812503          	lw	x10,8(x2)
    3370:	0c410613          	addi	x12,x2,196
    3374:	00048593          	addi	x11,x9,0
    3378:	184010ef          	jal	x1,44fc <__sprint_r>
    337c:	d2051263          	bne	x10,x0,28a0 <_vfprintf_r+0xec0>
    3380:	0cc12603          	lw	x12,204(x2)
    3384:	00098a13          	addi	x20,x19,0
    3388:	a6cff06f          	jal	x0,25f4 <_vfprintf_r+0xc14>
    338c:	000d0813          	addi	x16,x26,0
    3390:	01260633          	add	x12,x12,x18
    3394:	00178793          	addi	x15,x15,1
    3398:	010a2023          	sw	x16,0(x20)
    339c:	911fe06f          	jal	x0,1cac <_vfprintf_r+0x2cc>
    33a0:	0d012783          	lw	x15,208(x2)
    33a4:	08010593          	addi	x11,x2,128
    33a8:	09010513          	addi	x10,x2,144
    33ac:	08f12823          	sw	x15,144(x2)
    33b0:	0d412783          	lw	x15,212(x2)
    33b4:	08012023          	sw	x0,128(x2)
    33b8:	08012223          	sw	x0,132(x2)
    33bc:	08f12a23          	sw	x15,148(x2)
    33c0:	0d812783          	lw	x15,216(x2)
    33c4:	08012423          	sw	x0,136(x2)
    33c8:	08012623          	sw	x0,140(x2)
    33cc:	08f12c23          	sw	x15,152(x2)
    33d0:	0dc12783          	lw	x15,220(x2)
    33d4:	08f12e23          	sw	x15,156(x2)
    33d8:	3dc0b0ef          	jal	x1,e7b4 <__letf2>
    33dc:	01012883          	lw	x17,16(x2)
    33e0:	300546e3          	blt	x10,x0,3eec <_vfprintf_r+0x250c>
    33e4:	0a714703          	lbu	x14,167(x2)
    33e8:	04700693          	addi	x13,x0,71
    33ec:	0000ed17          	auipc	x26,0xe
    33f0:	6bcd0d13          	addi	x26,x26,1724 # 11aa8 <__clzsi2+0x32c>
    33f4:	0116c663          	blt	x13,x17,3400 <_vfprintf_r+0x1a20>
    33f8:	0000ed17          	auipc	x26,0xe
    33fc:	6acd0d13          	addi	x26,x26,1708 # 11aa4 <__clzsi2+0x328>
    3400:	00012823          	sw	x0,16(x2)
    3404:	02012223          	sw	x0,36(x2)
    3408:	02012023          	sw	x0,32(x2)
    340c:	00012c23          	sw	x0,24(x2)
    3410:	f7fbfb93          	andi	x23,x23,-129
    3414:	00300d93          	addi	x27,x0,3
    3418:	00300913          	addi	x18,x0,3
    341c:	00000b13          	addi	x22,x0,0
    3420:	00070463          	beq	x14,x0,3428 <_vfprintf_r+0x1a48>
    3424:	a25fe06f          	jal	x0,1e48 <_vfprintf_r+0x468>
    3428:	fd0fe06f          	jal	x0,1bf8 <_vfprintf_r+0x218>
    342c:	01412783          	lw	x15,20(x2)
    3430:	00c12683          	lw	x13,12(x2)
    3434:	0007a783          	lw	x15,0(x15)
    3438:	00d7a023          	sw	x13,0(x15)
    343c:	00e12a23          	sw	x14,20(x2)
    3440:	fc1fe06f          	jal	x0,2400 <_vfprintf_r+0xa20>
    3444:	000a8813          	addi	x16,x21,0
    3448:	01812a83          	lw	x21,24(x2)
    344c:	000a0793          	addi	x15,x20,0
    3450:	00048a13          	addi	x20,x9,0
    3454:	00078493          	addi	x9,x15,0
    3458:	014c0c33          	add	x24,x24,x20
    345c:	00190913          	addi	x18,x18,1
    3460:	010b2023          	sw	x16,0(x22)
    3464:	c9dfe06f          	jal	x0,2100 <_vfprintf_r+0x720>
    3468:	02c12703          	lw	x14,44(x2)
    346c:	02812783          	lw	x15,40(x2)
    3470:	00700513          	addi	x10,x0,7
    3474:	00ea2023          	sw	x14,0(x20)
    3478:	0c812703          	lw	x14,200(x2)
    347c:	00c78633          	add	x12,x15,x12
    3480:	00fa2223          	sw	x15,4(x20)
    3484:	00170713          	addi	x14,x14,1
    3488:	0cc12623          	sw	x12,204(x2)
    348c:	0ce12423          	sw	x14,200(x2)
    3490:	008a0a13          	addi	x20,x20,8
    3494:	48e54463          	blt	x10,x14,391c <_vfprintf_r+0x1f3c>
    3498:	2c05c6e3          	blt	x11,x0,3f64 <_vfprintf_r+0x2584>
    349c:	01c12783          	lw	x15,28(x2)
    34a0:	00170713          	addi	x14,x14,1
    34a4:	01aa2023          	sw	x26,0(x20)
    34a8:	00c78633          	add	x12,x15,x12
    34ac:	00fa2223          	sw	x15,4(x20)
    34b0:	0cc12623          	sw	x12,204(x2)
    34b4:	0ce12423          	sw	x14,200(x2)
    34b8:	00700793          	addi	x15,x0,7
    34bc:	00e7c463          	blt	x15,x14,34c4 <_vfprintf_r+0x1ae4>
    34c0:	801fe06f          	jal	x0,1cc0 <_vfprintf_r+0x2e0>
    34c4:	c81fe06f          	jal	x0,2144 <_vfprintf_r+0x764>
    34c8:	000d0513          	addi	x10,x26,0
    34cc:	03112a23          	sw	x17,52(x2)
    34d0:	18c030ef          	jal	x1,665c <strlen>
    34d4:	0a714703          	lbu	x14,167(x2)
    34d8:	fff54693          	xori	x13,x10,-1
    34dc:	41f6d693          	srai	x13,x13,0x1f
    34e0:	01812a23          	sw	x24,20(x2)
    34e4:	00012823          	sw	x0,16(x2)
    34e8:	02012223          	sw	x0,36(x2)
    34ec:	02012023          	sw	x0,32(x2)
    34f0:	00012c23          	sw	x0,24(x2)
    34f4:	03412883          	lw	x17,52(x2)
    34f8:	00050913          	addi	x18,x10,0
    34fc:	00d57db3          	and	x27,x10,x13
    3500:	00000b13          	addi	x22,x0,0
    3504:	00070463          	beq	x14,x0,350c <_vfprintf_r+0x1b2c>
    3508:	941fe06f          	jal	x0,1e48 <_vfprintf_r+0x468>
    350c:	eecfe06f          	jal	x0,1bf8 <_vfprintf_r+0x218>
    3510:	0dc12783          	lw	x15,220(x2)
    3514:	4007d063          	bge	x15,x0,3914 <_vfprintf_r+0x1f34>
    3518:	02d00793          	addi	x15,x0,45
    351c:	0af103a3          	sb	x15,167(x2)
    3520:	02d00713          	addi	x14,x0,45
    3524:	04700693          	addi	x13,x0,71
    3528:	0000ed17          	auipc	x26,0xe
    352c:	588d0d13          	addi	x26,x26,1416 # 11ab0 <__clzsi2+0x334>
    3530:	ed16c8e3          	blt	x13,x17,3400 <_vfprintf_r+0x1a20>
    3534:	0000ed17          	auipc	x26,0xe
    3538:	578d0d13          	addi	x26,x26,1400 # 11aac <__clzsi2+0x330>
    353c:	ec5ff06f          	jal	x0,3400 <_vfprintf_r+0x1a20>
    3540:	000a0813          	addi	x16,x20,0
    3544:	00078a13          	addi	x20,x15,0
    3548:	01660633          	add	x12,x12,x22
    354c:	00170713          	addi	x14,x14,1
    3550:	010a2023          	sw	x16,0(x20)
    3554:	016a2223          	sw	x22,4(x20)
    3558:	0cc12623          	sw	x12,204(x2)
    355c:	0ce12423          	sw	x14,200(x2)
    3560:	00700593          	addi	x11,x0,7
    3564:	008a0a13          	addi	x20,x20,8
    3568:	dae5d063          	bge	x11,x14,2b08 <_vfprintf_r+0x1128>
    356c:	00812503          	lw	x10,8(x2)
    3570:	0c410613          	addi	x12,x2,196
    3574:	00048593          	addi	x11,x9,0
    3578:	785000ef          	jal	x1,44fc <__sprint_r>
    357c:	b2051263          	bne	x10,x0,28a0 <_vfprintf_r+0xec0>
    3580:	0cc12603          	lw	x12,204(x2)
    3584:	00098a13          	addi	x20,x19,0
    3588:	d80ff06f          	jal	x0,2b08 <_vfprintf_r+0x1128>
    358c:	01c12783          	lw	x15,28(x2)
    3590:	03512a23          	sw	x21,52(x2)
    3594:	02012a83          	lw	x21,32(x2)
    3598:	00fd07b3          	add	x15,x26,x15
    359c:	05712423          	sw	x23,72(x2)
    35a0:	05912623          	sw	x25,76(x2)
    35a4:	03b12023          	sw	x27,32(x2)
    35a8:	02412d83          	lw	x27,36(x2)
    35ac:	03a12223          	sw	x26,36(x2)
    35b0:	000c0c93          	addi	x25,x24,0
    35b4:	00812903          	lw	x18,8(x2)
    35b8:	04412c03          	lw	x24,68(x2)
    35bc:	04012d03          	lw	x26,64(x2)
    35c0:	00700813          	addi	x16,x0,7
    35c4:	01000713          	addi	x14,x0,16
    35c8:	0000fb17          	auipc	x22,0xf
    35cc:	95cb0b13          	addi	x22,x22,-1700 # 11f24 <zeroes.0>
    35d0:	000a0593          	addi	x11,x20,0
    35d4:	00078b93          	addi	x23,x15,0
    35d8:	09505663          	bge	x0,x21,3664 <_vfprintf_r+0x1c84>
    35dc:	17b05063          	bge	x0,x27,373c <_vfprintf_r+0x1d5c>
    35e0:	fffd8d93          	addi	x27,x27,-1
    35e4:	03c12783          	lw	x15,60(x2)
    35e8:	01860633          	add	x12,x12,x24
    35ec:	0185a223          	sw	x24,4(x11)
    35f0:	00f5a023          	sw	x15,0(x11)
    35f4:	0c812783          	lw	x15,200(x2)
    35f8:	0cc12623          	sw	x12,204(x2)
    35fc:	00858593          	addi	x11,x11,8
    3600:	00178793          	addi	x15,x15,1
    3604:	0cf12423          	sw	x15,200(x2)
    3608:	14f84063          	blt	x16,x15,3748 <_vfprintf_r+0x1d68>
    360c:	000d4683          	lbu	x13,0(x26)
    3610:	419b8a33          	sub	x20,x23,x25
    3614:	0146d463          	bge	x13,x20,361c <_vfprintf_r+0x1c3c>
    3618:	00068a13          	addi	x20,x13,0
    361c:	03405663          	bge	x0,x20,3648 <_vfprintf_r+0x1c68>
    3620:	0c812683          	lw	x13,200(x2)
    3624:	01460633          	add	x12,x12,x20
    3628:	0195a023          	sw	x25,0(x11)
    362c:	00168693          	addi	x13,x13,1
    3630:	0145a223          	sw	x20,4(x11)
    3634:	0cc12623          	sw	x12,204(x2)
    3638:	0cd12423          	sw	x13,200(x2)
    363c:	12d84a63          	blt	x16,x13,3770 <_vfprintf_r+0x1d90>
    3640:	000d4683          	lbu	x13,0(x26)
    3644:	00858593          	addi	x11,x11,8
    3648:	fffa4513          	xori	x10,x20,-1
    364c:	41f55513          	srai	x10,x10,0x1f
    3650:	00aa77b3          	and	x15,x20,x10
    3654:	40f68a33          	sub	x20,x13,x15
    3658:	05404263          	blt	x0,x20,369c <_vfprintf_r+0x1cbc>
    365c:	00dc8cb3          	add	x25,x25,x13
    3660:	f7504ee3          	blt	x0,x21,35dc <_vfprintf_r+0x1bfc>
    3664:	f7b04ee3          	blt	x0,x27,35e0 <_vfprintf_r+0x1c00>
    3668:	01c12783          	lw	x15,28(x2)
    366c:	05a12023          	sw	x26,64(x2)
    3670:	02412d03          	lw	x26,36(x2)
    3674:	000c8c13          	addi	x24,x25,0
    3678:	03412a83          	lw	x21,52(x2)
    367c:	00fd0733          	add	x14,x26,x15
    3680:	04812b83          	lw	x23,72(x2)
    3684:	04c12c83          	lw	x25,76(x2)
    3688:	02012d83          	lw	x27,32(x2)
    368c:	00058a13          	addi	x20,x11,0
    3690:	c9877463          	bgeu	x14,x24,2b18 <_vfprintf_r+0x1138>
    3694:	00070c13          	addi	x24,x14,0
    3698:	c80ff06f          	jal	x0,2b18 <_vfprintf_r+0x1138>
    369c:	0c812683          	lw	x13,200(x2)
    36a0:	0000ff17          	auipc	x30,0xf
    36a4:	884f0f13          	addi	x30,x30,-1916 # 11f24 <zeroes.0>
    36a8:	07475463          	bge	x14,x20,3710 <_vfprintf_r+0x1d30>
    36ac:	01612c23          	sw	x22,24(x2)
    36b0:	00c0006f          	jal	x0,36bc <_vfprintf_r+0x1cdc>
    36b4:	ff0a0a13          	addi	x20,x20,-16
    36b8:	05475a63          	bge	x14,x20,370c <_vfprintf_r+0x1d2c>
    36bc:	01060613          	addi	x12,x12,16
    36c0:	00168693          	addi	x13,x13,1
    36c4:	0165a023          	sw	x22,0(x11)
    36c8:	00e5a223          	sw	x14,4(x11)
    36cc:	0cc12623          	sw	x12,204(x2)
    36d0:	0cd12423          	sw	x13,200(x2)
    36d4:	00858593          	addi	x11,x11,8
    36d8:	fcd85ee3          	bge	x16,x13,36b4 <_vfprintf_r+0x1cd4>
    36dc:	0c410613          	addi	x12,x2,196
    36e0:	00048593          	addi	x11,x9,0
    36e4:	00090513          	addi	x10,x18,0
    36e8:	615000ef          	jal	x1,44fc <__sprint_r>
    36ec:	9a051a63          	bne	x10,x0,28a0 <_vfprintf_r+0xec0>
    36f0:	01000713          	addi	x14,x0,16
    36f4:	ff0a0a13          	addi	x20,x20,-16
    36f8:	0cc12603          	lw	x12,204(x2)
    36fc:	0c812683          	lw	x13,200(x2)
    3700:	00098593          	addi	x11,x19,0
    3704:	00700813          	addi	x16,x0,7
    3708:	fb474ae3          	blt	x14,x20,36bc <_vfprintf_r+0x1cdc>
    370c:	01812f03          	lw	x30,24(x2)
    3710:	01460633          	add	x12,x12,x20
    3714:	00168693          	addi	x13,x13,1
    3718:	01e5a023          	sw	x30,0(x11)
    371c:	0145a223          	sw	x20,4(x11)
    3720:	0cc12623          	sw	x12,204(x2)
    3724:	0cd12423          	sw	x13,200(x2)
    3728:	78d84863          	blt	x16,x13,3eb8 <_vfprintf_r+0x24d8>
    372c:	000d4683          	lbu	x13,0(x26)
    3730:	00858593          	addi	x11,x11,8
    3734:	00dc8cb3          	add	x25,x25,x13
    3738:	f29ff06f          	jal	x0,3660 <_vfprintf_r+0x1c80>
    373c:	fffd0d13          	addi	x26,x26,-1
    3740:	fffa8a93          	addi	x21,x21,-1
    3744:	ea1ff06f          	jal	x0,35e4 <_vfprintf_r+0x1c04>
    3748:	0c410613          	addi	x12,x2,196
    374c:	00048593          	addi	x11,x9,0
    3750:	00090513          	addi	x10,x18,0
    3754:	5a9000ef          	jal	x1,44fc <__sprint_r>
    3758:	94051463          	bne	x10,x0,28a0 <_vfprintf_r+0xec0>
    375c:	0cc12603          	lw	x12,204(x2)
    3760:	00098593          	addi	x11,x19,0
    3764:	01000713          	addi	x14,x0,16
    3768:	00700813          	addi	x16,x0,7
    376c:	ea1ff06f          	jal	x0,360c <_vfprintf_r+0x1c2c>
    3770:	0c410613          	addi	x12,x2,196
    3774:	00048593          	addi	x11,x9,0
    3778:	00090513          	addi	x10,x18,0
    377c:	581000ef          	jal	x1,44fc <__sprint_r>
    3780:	92051063          	bne	x10,x0,28a0 <_vfprintf_r+0xec0>
    3784:	000d4683          	lbu	x13,0(x26)
    3788:	0cc12603          	lw	x12,204(x2)
    378c:	00098593          	addi	x11,x19,0
    3790:	01000713          	addi	x14,x0,16
    3794:	00700813          	addi	x16,x0,7
    3798:	eb1ff06f          	jal	x0,3648 <_vfprintf_r+0x1c68>
    379c:	04412783          	lw	x15,68(x2)
    37a0:	03c12583          	lw	x11,60(x2)
    37a4:	03d12223          	sw	x29,36(x2)
    37a8:	40f686b3          	sub	x13,x13,x15
    37ac:	00078613          	addi	x12,x15,0
    37b0:	00068513          	addi	x10,x13,0
    37b4:	02e12023          	sw	x14,32(x2)
    37b8:	01f12e23          	sw	x31,28(x2)
    37bc:	01112c23          	sw	x17,24(x2)
    37c0:	00d12823          	sw	x13,16(x2)
    37c4:	67d030ef          	jal	x1,7640 <strncpy>
    37c8:	012d37b3          	sltu	x15,x26,x18
    37cc:	00500613          	addi	x12,x0,5
    37d0:	00fd07b3          	add	x15,x26,x15
    37d4:	02c7f7b3          	remu	x15,x15,x12
    37d8:	02012703          	lw	x14,32(x2)
    37dc:	ccccd537          	lui	x10,0xccccd
    37e0:	ccccd337          	lui	x6,0xccccd
    37e4:	00174583          	lbu	x11,1(x14)
    37e8:	ccd50513          	addi	x10,x10,-819 # cccccccd <__heap_end+0xcc8ccccd>
    37ec:	ccc30313          	addi	x6,x6,-820 # cccccccc <__heap_end+0xcc8ccccc>
    37f0:	00b035b3          	sltu	x11,x0,x11
    37f4:	00b70733          	add	x14,x14,x11
    37f8:	01012683          	lw	x13,16(x2)
    37fc:	01812883          	lw	x17,24(x2)
    3800:	01c12f83          	lw	x31,28(x2)
    3804:	02412e83          	lw	x29,36(x2)
    3808:	00000613          	addi	x12,x0,0
    380c:	00500e13          	addi	x28,x0,5
    3810:	40f907b3          	sub	x15,x18,x15
    3814:	00f935b3          	sltu	x11,x18,x15
    3818:	40bd85b3          	sub	x11,x27,x11
    381c:	02a585b3          	mul	x11,x11,x10
    3820:	02678333          	mul	x6,x15,x6
    3824:	02a7bf33          	mulhu	x30,x15,x10
    3828:	006585b3          	add	x11,x11,x6
    382c:	02a78533          	mul	x10,x15,x10
    3830:	01e585b3          	add	x11,x11,x30
    3834:	01f59793          	slli	x15,x11,0x1f
    3838:	0015d593          	srli	x11,x11,0x1
    383c:	00155513          	srli	x10,x10,0x1
    3840:	00a7e7b3          	or	x15,x15,x10
    3844:	ccccd537          	lui	x10,0xccccd
    3848:	ccd50813          	addi	x16,x10,-819 # cccccccd <__heap_end+0xcc8ccccd>
    384c:	9f9ff06f          	jal	x0,3244 <_vfprintf_r+0x1864>
    3850:	00900513          	addi	x10,x0,9
    3854:	9f2568e3          	bltu	x10,x18,3244 <_vfprintf_r+0x1864>
    3858:	a6dff06f          	jal	x0,32c4 <_vfprintf_r+0x18e4>
    385c:	00812503          	lw	x10,8(x2)
    3860:	0c410613          	addi	x12,x2,196
    3864:	00048593          	addi	x11,x9,0
    3868:	495000ef          	jal	x1,44fc <__sprint_r>
    386c:	00050463          	beq	x10,x0,3874 <_vfprintf_r+0x1e94>
    3870:	830ff06f          	jal	x0,28a0 <_vfprintf_r+0xec0>
    3874:	0ac12583          	lw	x11,172(x2)
    3878:	0cc12603          	lw	x12,204(x2)
    387c:	00098a13          	addi	x20,x19,0
    3880:	a95ff06f          	jal	x0,3314 <_vfprintf_r+0x1934>
    3884:	00812503          	lw	x10,8(x2)
    3888:	0c410613          	addi	x12,x2,196
    388c:	00048593          	addi	x11,x9,0
    3890:	46d000ef          	jal	x1,44fc <__sprint_r>
    3894:	00050463          	beq	x10,x0,389c <_vfprintf_r+0x1ebc>
    3898:	808ff06f          	jal	x0,28a0 <_vfprintf_r+0xec0>
    389c:	0cc12603          	lw	x12,204(x2)
    38a0:	00098a13          	addi	x20,x19,0
    38a4:	a4cff06f          	jal	x0,2af0 <_vfprintf_r+0x1110>
    38a8:	00600913          	addi	x18,x0,6
    38ac:	dd8ff06f          	jal	x0,2e84 <_vfprintf_r+0x14a4>
    38b0:	0ff97913          	andi	x18,x18,255
    38b4:	00000d93          	addi	x27,x0,0
    38b8:	01812a23          	sw	x24,20(x2)
    38bc:	dbcfe06f          	jal	x0,1e78 <_vfprintf_r+0x498>
    38c0:	01891913          	slli	x18,x18,0x18
    38c4:	41895913          	srai	x18,x18,0x18
    38c8:	41f95d93          	srai	x27,x18,0x1f
    38cc:	000d8793          	addi	x15,x27,0
    38d0:	01812a23          	sw	x24,20(x2)
    38d4:	d28fe06f          	jal	x0,1dfc <_vfprintf_r+0x41c>
    38d8:	0ff97913          	andi	x18,x18,255
    38dc:	00000d93          	addi	x27,x0,0
    38e0:	01812a23          	sw	x24,20(x2)
    38e4:	d18ff06f          	jal	x0,2dfc <_vfprintf_r+0x141c>
    38e8:	01412783          	lw	x15,20(x2)
    38ec:	00c12683          	lw	x13,12(x2)
    38f0:	00e12a23          	sw	x14,20(x2)
    38f4:	0007a783          	lw	x15,0(x15)
    38f8:	00d79023          	sh	x13,0(x15)
    38fc:	b05fe06f          	jal	x0,2400 <_vfprintf_r+0xa20>
    3900:	00812503          	lw	x10,8(x2)
    3904:	0c410613          	addi	x12,x2,196
    3908:	00048593          	addi	x11,x9,0
    390c:	3f1000ef          	jal	x1,44fc <__sprint_r>
    3910:	c14fe06f          	jal	x0,1d24 <_vfprintf_r+0x344>
    3914:	0a714703          	lbu	x14,167(x2)
    3918:	c0dff06f          	jal	x0,3524 <_vfprintf_r+0x1b44>
    391c:	00812503          	lw	x10,8(x2)
    3920:	0c410613          	addi	x12,x2,196
    3924:	00048593          	addi	x11,x9,0
    3928:	3d5000ef          	jal	x1,44fc <__sprint_r>
    392c:	00050463          	beq	x10,x0,3934 <_vfprintf_r+0x1f54>
    3930:	f71fe06f          	jal	x0,28a0 <_vfprintf_r+0xec0>
    3934:	0ac12583          	lw	x11,172(x2)
    3938:	0cc12603          	lw	x12,204(x2)
    393c:	0c812703          	lw	x14,200(x2)
    3940:	00098a13          	addi	x20,x19,0
    3944:	b55ff06f          	jal	x0,3498 <_vfprintf_r+0x1ab8>
    3948:	01650733          	add	x14,x10,x22
    394c:	04700613          	addi	x12,x0,71
    3950:	08010593          	addi	x11,x2,128
    3954:	00090513          	addi	x10,x18,0
    3958:	02c12023          	sw	x12,32(x2)
    395c:	00e12e23          	sw	x14,28(x2)
    3960:	01112c23          	sw	x17,24(x2)
    3964:	09f12823          	sw	x31,144(x2)
    3968:	09e12a23          	sw	x30,148(x2)
    396c:	09d12c23          	sw	x29,152(x2)
    3970:	09812e23          	sw	x24,156(x2)
    3974:	08012023          	sw	x0,128(x2)
    3978:	08012223          	sw	x0,132(x2)
    397c:	08012423          	sw	x0,136(x2)
    3980:	08012623          	sw	x0,140(x2)
    3984:	4010a0ef          	jal	x1,e584 <__eqtf2>
    3988:	01812883          	lw	x17,24(x2)
    398c:	01c12703          	lw	x14,28(x2)
    3990:	02012603          	lw	x12,32(x2)
    3994:	5c050063          	beq	x10,x0,3f54 <_vfprintf_r+0x2574>
    3998:	0bc12783          	lw	x15,188(x2)
    399c:	00e7fe63          	bgeu	x15,x14,39b8 <_vfprintf_r+0x1fd8>
    39a0:	03000593          	addi	x11,x0,48
    39a4:	00178693          	addi	x13,x15,1
    39a8:	0ad12e23          	sw	x13,188(x2)
    39ac:	00b78023          	sb	x11,0(x15)
    39b0:	0bc12783          	lw	x15,188(x2)
    39b4:	fee7e8e3          	bltu	x15,x14,39a4 <_vfprintf_r+0x1fc4>
    39b8:	0ac12703          	lw	x14,172(x2)
    39bc:	00e12c23          	sw	x14,24(x2)
    39c0:	41a787b3          	sub	x15,x15,x26
    39c4:	04700713          	addi	x14,x0,71
    39c8:	00f12e23          	sw	x15,28(x2)
    39cc:	e4e60c63          	beq	x12,x14,3024 <_vfprintf_r+0x1644>
    39d0:	04600713          	addi	x14,x0,70
    39d4:	6ce60463          	beq	x12,x14,409c <_vfprintf_r+0x26bc>
    39d8:	01812783          	lw	x15,24(x2)
    39dc:	fff78713          	addi	x14,x15,-1
    39e0:	e60ff06f          	jal	x0,3040 <_vfprintf_r+0x1660>
    39e4:	09010913          	addi	x18,x2,144
    39e8:	08010593          	addi	x11,x2,128
    39ec:	0ac10613          	addi	x12,x2,172
    39f0:	00090513          	addi	x10,x18,0
    39f4:	03112c23          	sw	x17,56(x2)
    39f8:	09f12023          	sw	x31,128(x2)
    39fc:	09e12223          	sw	x30,132(x2)
    3a00:	09d12423          	sw	x29,136(x2)
    3a04:	00b12c23          	sw	x11,24(x2)
    3a08:	09812623          	sw	x24,140(x2)
    3a0c:	52c030ef          	jal	x1,6f38 <frexpl>
    3a10:	09012803          	lw	x16,144(x2)
    3a14:	0000e717          	auipc	x14,0xe
    3a18:	52c70713          	addi	x14,x14,1324 # 11f40 <zeroes.0+0x1c>
    3a1c:	00072503          	lw	x10,0(x14)
    3a20:	09012023          	sw	x16,128(x2)
    3a24:	09412803          	lw	x16,148(x2)
    3a28:	00472603          	lw	x12,4(x14)
    3a2c:	00872683          	lw	x13,8(x14)
    3a30:	09012223          	sw	x16,132(x2)
    3a34:	09812803          	lw	x16,152(x2)
    3a38:	00c72703          	lw	x14,12(x14)
    3a3c:	01812583          	lw	x11,24(x2)
    3a40:	09012423          	sw	x16,136(x2)
    3a44:	09c12803          	lw	x16,156(x2)
    3a48:	06a12823          	sw	x10,112(x2)
    3a4c:	06c12a23          	sw	x12,116(x2)
    3a50:	00090513          	addi	x10,x18,0
    3a54:	07010613          	addi	x12,x2,112
    3a58:	09012623          	sw	x16,140(x2)
    3a5c:	06d12c23          	sw	x13,120(x2)
    3a60:	06e12e23          	sw	x14,124(x2)
    3a64:	6b10a0ef          	jal	x1,e914 <__multf3>
    3a68:	01812583          	lw	x11,24(x2)
    3a6c:	09012f03          	lw	x30,144(x2)
    3a70:	09412e83          	lw	x29,148(x2)
    3a74:	09812803          	lw	x16,152(x2)
    3a78:	00090513          	addi	x10,x18,0
    3a7c:	02b12223          	sw	x11,36(x2)
    3a80:	03e12023          	sw	x30,32(x2)
    3a84:	01d12e23          	sw	x29,28(x2)
    3a88:	01012c23          	sw	x16,24(x2)
    3a8c:	08012023          	sw	x0,128(x2)
    3a90:	08012223          	sw	x0,132(x2)
    3a94:	08012423          	sw	x0,136(x2)
    3a98:	08012623          	sw	x0,140(x2)
    3a9c:	2e90a0ef          	jal	x1,e584 <__eqtf2>
    3aa0:	09c12d83          	lw	x27,156(x2)
    3aa4:	01812803          	lw	x16,24(x2)
    3aa8:	01c12e83          	lw	x29,28(x2)
    3aac:	02012f03          	lw	x30,32(x2)
    3ab0:	02412583          	lw	x11,36(x2)
    3ab4:	03812883          	lw	x17,56(x2)
    3ab8:	00051663          	bne	x10,x0,3ac4 <_vfprintf_r+0x20e4>
    3abc:	00100713          	addi	x14,x0,1
    3ac0:	0ae12623          	sw	x14,172(x2)
    3ac4:	0000e797          	auipc	x15,0xe
    3ac8:	00478793          	addi	x15,x15,4 # 11ac8 <__clzsi2+0x34c>
    3acc:	06100713          	addi	x14,x0,97
    3ad0:	00f12c23          	sw	x15,24(x2)
    3ad4:	00e89863          	bne	x17,x14,3ae4 <_vfprintf_r+0x2104>
    3ad8:	0000e797          	auipc	x15,0xe
    3adc:	fdc78793          	addi	x15,x15,-36 # 11ab4 <__clzsi2+0x338>
    3ae0:	00f12c23          	sw	x15,24(x2)
    3ae4:	0000e717          	auipc	x14,0xe
    3ae8:	46c70713          	addi	x14,x14,1132 # 11f50 <zeroes.0+0x2c>
    3aec:	00072783          	lw	x15,0(x14)
    3af0:	03512c23          	sw	x21,56(x2)
    3af4:	05712623          	sw	x23,76(x2)
    3af8:	00f12e23          	sw	x15,28(x2)
    3afc:	00472783          	lw	x15,4(x14)
    3b00:	05412a23          	sw	x20,84(x2)
    3b04:	04912c23          	sw	x9,88(x2)
    3b08:	02f12023          	sw	x15,32(x2)
    3b0c:	00872783          	lw	x15,8(x14)
    3b10:	000d0a13          	addi	x20,x26,0
    3b14:	05a12e23          	sw	x26,92(x2)
    3b18:	02f12223          	sw	x15,36(x2)
    3b1c:	00c72783          	lw	x15,12(x14)
    3b20:	000d8c13          	addi	x24,x27,0
    3b24:	fffb0b13          	addi	x22,x22,-1
    3b28:	05112423          	sw	x17,72(x2)
    3b2c:	05912823          	sw	x25,80(x2)
    3b30:	00078d13          	addi	x26,x15,0
    3b34:	000e8a93          	addi	x21,x29,0
    3b38:	00080b93          	addi	x23,x16,0
    3b3c:	000f0d93          	addi	x27,x30,0
    3b40:	00058493          	addi	x9,x11,0
    3b44:	03c0006f          	jal	x0,3b80 <_vfprintf_r+0x21a0>
    3b48:	00048593          	addi	x11,x9,0
    3b4c:	00090513          	addi	x10,x18,0
    3b50:	09b12823          	sw	x27,144(x2)
    3b54:	09512a23          	sw	x21,148(x2)
    3b58:	09712c23          	sw	x23,152(x2)
    3b5c:	09812e23          	sw	x24,156(x2)
    3b60:	08012023          	sw	x0,128(x2)
    3b64:	08012223          	sw	x0,132(x2)
    3b68:	08012423          	sw	x0,136(x2)
    3b6c:	08012623          	sw	x0,140(x2)
    3b70:	fffb0c93          	addi	x25,x22,-1
    3b74:	2110a0ef          	jal	x1,e584 <__eqtf2>
    3b78:	68050063          	beq	x10,x0,41f8 <_vfprintf_r+0x2818>
    3b7c:	000c8b13          	addi	x22,x25,0
    3b80:	01c12783          	lw	x15,28(x2)
    3b84:	07010613          	addi	x12,x2,112
    3b88:	00048593          	addi	x11,x9,0
    3b8c:	06f12823          	sw	x15,112(x2)
    3b90:	02012783          	lw	x15,32(x2)
    3b94:	00090513          	addi	x10,x18,0
    3b98:	09b12023          	sw	x27,128(x2)
    3b9c:	06f12a23          	sw	x15,116(x2)
    3ba0:	02412783          	lw	x15,36(x2)
    3ba4:	09512223          	sw	x21,132(x2)
    3ba8:	09712423          	sw	x23,136(x2)
    3bac:	06f12c23          	sw	x15,120(x2)
    3bb0:	09812623          	sw	x24,140(x2)
    3bb4:	07a12e23          	sw	x26,124(x2)
    3bb8:	55d0a0ef          	jal	x1,e914 <__multf3>
    3bbc:	00090513          	addi	x10,x18,0
    3bc0:	7100d0ef          	jal	x1,112d0 <__fixtfsi>
    3bc4:	00050593          	addi	x11,x10,0
    3bc8:	00050c93          	addi	x25,x10,0
    3bcc:	00090513          	addi	x10,x18,0
    3bd0:	09012d83          	lw	x27,144(x2)
    3bd4:	09412c03          	lw	x24,148(x2)
    3bd8:	09812b83          	lw	x23,152(x2)
    3bdc:	09c12a83          	lw	x21,156(x2)
    3be0:	7f40d0ef          	jal	x1,113d4 <__floatsitf>
    3be4:	09012683          	lw	x13,144(x2)
    3be8:	06010613          	addi	x12,x2,96
    3bec:	07010593          	addi	x11,x2,112
    3bf0:	06d12023          	sw	x13,96(x2)
    3bf4:	09412683          	lw	x13,148(x2)
    3bf8:	00048513          	addi	x10,x9,0
    3bfc:	07b12823          	sw	x27,112(x2)
    3c00:	06d12223          	sw	x13,100(x2)
    3c04:	09812683          	lw	x13,152(x2)
    3c08:	07812a23          	sw	x24,116(x2)
    3c0c:	07712c23          	sw	x23,120(x2)
    3c10:	06d12423          	sw	x13,104(x2)
    3c14:	09c12683          	lw	x13,156(x2)
    3c18:	07512e23          	sw	x21,124(x2)
    3c1c:	06d12623          	sw	x13,108(x2)
    3c20:	6710b0ef          	jal	x1,fa90 <__subtf3>
    3c24:	01812783          	lw	x15,24(x2)
    3c28:	000a0f93          	addi	x31,x20,0
    3c2c:	001a0a13          	addi	x20,x20,1
    3c30:	019786b3          	add	x13,x15,x25
    3c34:	0006c603          	lbu	x12,0(x13)
    3c38:	08012d83          	lw	x27,128(x2)
    3c3c:	08412a83          	lw	x21,132(x2)
    3c40:	08812b83          	lw	x23,136(x2)
    3c44:	08c12c03          	lw	x24,140(x2)
    3c48:	fff00793          	addi	x15,x0,-1
    3c4c:	feca0fa3          	sb	x12,-1(x20)
    3c50:	eefb1ce3          	bne	x22,x15,3b48 <_vfprintf_r+0x2168>
    3c54:	0000e517          	auipc	x10,0xe
    3c58:	30c50513          	addi	x10,x10,780 # 11f60 <zeroes.0+0x3c>
    3c5c:	04812883          	lw	x17,72(x2)
    3c60:	00452283          	lw	x5,4(x10)
    3c64:	00852383          	lw	x7,8(x10)
    3c68:	00c52783          	lw	x15,12(x10)
    3c6c:	00052b03          	lw	x22,0(x10)
    3c70:	000d8f13          	addi	x30,x27,0
    3c74:	000a8e93          	addi	x29,x21,0
    3c78:	000b8813          	addi	x16,x23,0
    3c7c:	00048593          	addi	x11,x9,0
    3c80:	000c0d93          	addi	x27,x24,0
    3c84:	05c12d03          	lw	x26,92(x2)
    3c88:	03812a83          	lw	x21,56(x2)
    3c8c:	04c12b83          	lw	x23,76(x2)
    3c90:	05812483          	lw	x9,88(x2)
    3c94:	03112023          	sw	x17,32(x2)
    3c98:	01f12e23          	sw	x31,28(x2)
    3c9c:	05912e23          	sw	x25,92(x2)
    3ca0:	000a0c13          	addi	x24,x20,0
    3ca4:	05012c83          	lw	x25,80(x2)
    3ca8:	05412a03          	lw	x20,84(x2)
    3cac:	09e12823          	sw	x30,144(x2)
    3cb0:	05e12c23          	sw	x30,88(x2)
    3cb4:	09d12a23          	sw	x29,148(x2)
    3cb8:	05d12a23          	sw	x29,84(x2)
    3cbc:	09012c23          	sw	x16,152(x2)
    3cc0:	05012823          	sw	x16,80(x2)
    3cc4:	09b12e23          	sw	x27,156(x2)
    3cc8:	09612023          	sw	x22,128(x2)
    3ccc:	08512223          	sw	x5,132(x2)
    3cd0:	04512623          	sw	x5,76(x2)
    3cd4:	08712423          	sw	x7,136(x2)
    3cd8:	04712423          	sw	x7,72(x2)
    3cdc:	08f12623          	sw	x15,140(x2)
    3ce0:	02f12c23          	sw	x15,56(x2)
    3ce4:	02b12223          	sw	x11,36(x2)
    3ce8:	00090513          	addi	x10,x18,0
    3cec:	1690a0ef          	jal	x1,e654 <__getf2>
    3cf0:	01c12f83          	lw	x31,28(x2)
    3cf4:	02012883          	lw	x17,32(x2)
    3cf8:	02a04863          	blt	x0,x10,3d28 <_vfprintf_r+0x2348>
    3cfc:	02412583          	lw	x11,36(x2)
    3d00:	00090513          	addi	x10,x18,0
    3d04:	01112e23          	sw	x17,28(x2)
    3d08:	03f12023          	sw	x31,32(x2)
    3d0c:	0790a0ef          	jal	x1,e584 <__eqtf2>
    3d10:	01c12883          	lw	x17,28(x2)
    3d14:	04051e63          	bne	x10,x0,3d70 <_vfprintf_r+0x2390>
    3d18:	05c12703          	lw	x14,92(x2)
    3d1c:	02012f83          	lw	x31,32(x2)
    3d20:	00177693          	andi	x13,x14,1
    3d24:	04068663          	beq	x13,x0,3d70 <_vfprintf_r+0x2390>
    3d28:	01812783          	lw	x15,24(x2)
    3d2c:	0bf12e23          	sw	x31,188(x2)
    3d30:	fffc4603          	lbu	x12,-1(x24)
    3d34:	00f7c583          	lbu	x11,15(x15)
    3d38:	000c0693          	addi	x13,x24,0
    3d3c:	02c59063          	bne	x11,x12,3d5c <_vfprintf_r+0x237c>
    3d40:	03000513          	addi	x10,x0,48
    3d44:	fea68fa3          	sb	x10,-1(x13)
    3d48:	0bc12683          	lw	x13,188(x2)
    3d4c:	fff68793          	addi	x15,x13,-1
    3d50:	0af12e23          	sw	x15,188(x2)
    3d54:	fff6c603          	lbu	x12,-1(x13)
    3d58:	fec586e3          	beq	x11,x12,3d44 <_vfprintf_r+0x2364>
    3d5c:	00160593          	addi	x11,x12,1
    3d60:	03900513          	addi	x10,x0,57
    3d64:	0ff5f593          	andi	x11,x11,255
    3d68:	0ca60c63          	beq	x12,x10,3e40 <_vfprintf_r+0x2460>
    3d6c:	feb68fa3          	sb	x11,-1(x13)
    3d70:	000c0793          	addi	x15,x24,0
    3d74:	0ac12703          	lw	x14,172(x2)
    3d78:	41a787b3          	sub	x15,x15,x26
    3d7c:	06100613          	addi	x12,x0,97
    3d80:	00e12c23          	sw	x14,24(x2)
    3d84:	fff70713          	addi	x14,x14,-1
    3d88:	00f12e23          	sw	x15,28(x2)
    3d8c:	0ae12623          	sw	x14,172(x2)
    3d90:	07000693          	addi	x13,x0,112
    3d94:	00c88663          	beq	x17,x12,3da0 <_vfprintf_r+0x23c0>
    3d98:	05000693          	addi	x13,x0,80
    3d9c:	04100893          	addi	x17,x0,65
    3da0:	00100613          	addi	x12,x0,1
    3da4:	aa8ff06f          	jal	x0,304c <_vfprintf_r+0x166c>
    3da8:	001b0693          	addi	x13,x22,1
    3dac:	00200613          	addi	x12,x0,2
    3db0:	00812503          	lw	x10,8(x2)
    3db4:	09010913          	addi	x18,x2,144
    3db8:	0ac10713          	addi	x14,x2,172
    3dbc:	00090593          	addi	x11,x18,0
    3dc0:	0bc10813          	addi	x16,x2,188
    3dc4:	0b010793          	addi	x15,x2,176
    3dc8:	05112623          	sw	x17,76(x2)
    3dcc:	02d12223          	sw	x13,36(x2)
    3dd0:	09f12823          	sw	x31,144(x2)
    3dd4:	03f12023          	sw	x31,32(x2)
    3dd8:	09e12a23          	sw	x30,148(x2)
    3ddc:	01e12e23          	sw	x30,28(x2)
    3de0:	09d12c23          	sw	x29,152(x2)
    3de4:	01d12c23          	sw	x29,24(x2)
    3de8:	09812e23          	sw	x24,156(x2)
    3dec:	3f9030ef          	jal	x1,79e4 <_ldtoa_r>
    3df0:	04c12883          	lw	x17,76(x2)
    3df4:	02412683          	lw	x13,36(x2)
    3df8:	04600593          	addi	x11,x0,70
    3dfc:	fdf8f613          	andi	x12,x17,-33
    3e00:	01812e83          	lw	x29,24(x2)
    3e04:	01c12f03          	lw	x30,28(x2)
    3e08:	02012f83          	lw	x31,32(x2)
    3e0c:	00050d13          	addi	x26,x10,0
    3e10:	00d50733          	add	x14,x10,x13
    3e14:	34b61c63          	bne	x12,x11,416c <_vfprintf_r+0x278c>
    3e18:	000d4503          	lbu	x10,0(x26)
    3e1c:	03000593          	addi	x11,x0,48
    3e20:	1eb50c63          	beq	x10,x11,4018 <_vfprintf_r+0x2638>
    3e24:	0ac12683          	lw	x13,172(x2)
    3e28:	08010593          	addi	x11,x2,128
    3e2c:	00d70733          	add	x14,x14,x13
    3e30:	b25ff06f          	jal	x0,3954 <_vfprintf_r+0x1f74>
    3e34:	000b0693          	addi	x13,x22,0
    3e38:	00300613          	addi	x12,x0,3
    3e3c:	f75ff06f          	jal	x0,3db0 <_vfprintf_r+0x23d0>
    3e40:	01812783          	lw	x15,24(x2)
    3e44:	00a7c583          	lbu	x11,10(x15)
    3e48:	feb68fa3          	sb	x11,-1(x13)
    3e4c:	f25ff06f          	jal	x0,3d70 <_vfprintf_r+0x2390>
    3e50:	0a714703          	lbu	x14,167(x2)
    3e54:	04812b83          	lw	x23,72(x2)
    3e58:	00000b13          	addi	x22,x0,0
    3e5c:	00070463          	beq	x14,x0,3e64 <_vfprintf_r+0x2484>
    3e60:	fe9fd06f          	jal	x0,1e48 <_vfprintf_r+0x468>
    3e64:	d95fd06f          	jal	x0,1bf8 <_vfprintf_r+0x218>
    3e68:	01c12783          	lw	x15,28(x2)
    3e6c:	01812703          	lw	x14,24(x2)
    3e70:	16f74663          	blt	x14,x15,3fdc <_vfprintf_r+0x25fc>
    3e74:	01812783          	lw	x15,24(x2)
    3e78:	001bf713          	andi	x14,x23,1
    3e7c:	00078913          	addi	x18,x15,0
    3e80:	00070663          	beq	x14,x0,3e8c <_vfprintf_r+0x24ac>
    3e84:	02812703          	lw	x14,40(x2)
    3e88:	00e78933          	add	x18,x15,x14
    3e8c:	400bfe13          	andi	x28,x23,1024
    3e90:	000e0663          	beq	x28,x0,3e9c <_vfprintf_r+0x24bc>
    3e94:	01812783          	lw	x15,24(x2)
    3e98:	2ef04063          	blt	x0,x15,4178 <_vfprintf_r+0x2798>
    3e9c:	fff94693          	xori	x13,x18,-1
    3ea0:	41f6d693          	srai	x13,x13,0x1f
    3ea4:	00d97db3          	and	x27,x18,x13
    3ea8:	06700893          	addi	x17,x0,103
    3eac:	02012223          	sw	x0,36(x2)
    3eb0:	02012023          	sw	x0,32(x2)
    3eb4:	a74ff06f          	jal	x0,3128 <_vfprintf_r+0x1748>
    3eb8:	0c410613          	addi	x12,x2,196
    3ebc:	00048593          	addi	x11,x9,0
    3ec0:	00090513          	addi	x10,x18,0
    3ec4:	638000ef          	jal	x1,44fc <__sprint_r>
    3ec8:	00050463          	beq	x10,x0,3ed0 <_vfprintf_r+0x24f0>
    3ecc:	9d5fe06f          	jal	x0,28a0 <_vfprintf_r+0xec0>
    3ed0:	000d4683          	lbu	x13,0(x26)
    3ed4:	0cc12603          	lw	x12,204(x2)
    3ed8:	00098593          	addi	x11,x19,0
    3edc:	01000713          	addi	x14,x0,16
    3ee0:	00700813          	addi	x16,x0,7
    3ee4:	00dc8cb3          	add	x25,x25,x13
    3ee8:	f78ff06f          	jal	x0,3660 <_vfprintf_r+0x1c80>
    3eec:	02d00793          	addi	x15,x0,45
    3ef0:	0af103a3          	sb	x15,167(x2)
    3ef4:	02d00713          	addi	x14,x0,45
    3ef8:	cf0ff06f          	jal	x0,33e8 <_vfprintf_r+0x1a08>
    3efc:	01812a23          	sw	x24,20(x2)
    3f00:	02012223          	sw	x0,36(x2)
    3f04:	02012023          	sw	x0,32(x2)
    3f08:	00012c23          	sw	x0,24(x2)
    3f0c:	000b0d93          	addi	x27,x22,0
    3f10:	000b0913          	addi	x18,x22,0
    3f14:	00000b13          	addi	x22,x0,0
    3f18:	00070463          	beq	x14,x0,3f20 <_vfprintf_r+0x2540>
    3f1c:	f2dfd06f          	jal	x0,1e48 <_vfprintf_r+0x468>
    3f20:	cd9fd06f          	jal	x0,1bf8 <_vfprintf_r+0x218>
    3f24:	00812503          	lw	x10,8(x2)
    3f28:	0c410613          	addi	x12,x2,196
    3f2c:	00048593          	addi	x11,x9,0
    3f30:	5cc000ef          	jal	x1,44fc <__sprint_r>
    3f34:	00050463          	beq	x10,x0,3f3c <_vfprintf_r+0x255c>
    3f38:	969fe06f          	jal	x0,28a0 <_vfprintf_r+0xec0>
    3f3c:	0ac12583          	lw	x11,172(x2)
    3f40:	01c12783          	lw	x15,28(x2)
    3f44:	0cc12603          	lw	x12,204(x2)
    3f48:	00098a13          	addi	x20,x19,0
    3f4c:	40b785b3          	sub	x11,x15,x11
    3f50:	c25fe06f          	jal	x0,2b74 <_vfprintf_r+0x1194>
    3f54:	0ac12783          	lw	x15,172(x2)
    3f58:	00f12c23          	sw	x15,24(x2)
    3f5c:	00070793          	addi	x15,x14,0
    3f60:	a61ff06f          	jal	x0,39c0 <_vfprintf_r+0x1fe0>
    3f64:	ff000513          	addi	x10,x0,-16
    3f68:	40b00933          	sub	x18,x0,x11
    3f6c:	0000e817          	auipc	x16,0xe
    3f70:	fb880813          	addi	x16,x16,-72 # 11f24 <zeroes.0>
    3f74:	16a5d263          	bge	x11,x10,40d8 <_vfprintf_r+0x26f8>
    3f78:	01512c23          	sw	x21,24(x2)
    3f7c:	01000b13          	addi	x22,x0,16
    3f80:	00700c13          	addi	x24,x0,7
    3f84:	00080a93          	addi	x21,x16,0
    3f88:	00c0006f          	jal	x0,3f94 <_vfprintf_r+0x25b4>
    3f8c:	ff090913          	addi	x18,x18,-16
    3f90:	152b5063          	bge	x22,x18,40d0 <_vfprintf_r+0x26f0>
    3f94:	01060613          	addi	x12,x12,16
    3f98:	00170713          	addi	x14,x14,1
    3f9c:	015a2023          	sw	x21,0(x20)
    3fa0:	016a2223          	sw	x22,4(x20)
    3fa4:	0cc12623          	sw	x12,204(x2)
    3fa8:	0ce12423          	sw	x14,200(x2)
    3fac:	008a0a13          	addi	x20,x20,8
    3fb0:	fcec5ee3          	bge	x24,x14,3f8c <_vfprintf_r+0x25ac>
    3fb4:	00812503          	lw	x10,8(x2)
    3fb8:	0c410613          	addi	x12,x2,196
    3fbc:	00048593          	addi	x11,x9,0
    3fc0:	53c000ef          	jal	x1,44fc <__sprint_r>
    3fc4:	00050463          	beq	x10,x0,3fcc <_vfprintf_r+0x25ec>
    3fc8:	8d9fe06f          	jal	x0,28a0 <_vfprintf_r+0xec0>
    3fcc:	0cc12603          	lw	x12,204(x2)
    3fd0:	0c812703          	lw	x14,200(x2)
    3fd4:	00098a13          	addi	x20,x19,0
    3fd8:	fb5ff06f          	jal	x0,3f8c <_vfprintf_r+0x25ac>
    3fdc:	01c12783          	lw	x15,28(x2)
    3fe0:	02812703          	lw	x14,40(x2)
    3fe4:	06700893          	addi	x17,x0,103
    3fe8:	00e78933          	add	x18,x15,x14
    3fec:	01812783          	lw	x15,24(x2)
    3ff0:	24f05e63          	bge	x0,x15,424c <_vfprintf_r+0x286c>
    3ff4:	400bfe13          	andi	x28,x23,1024
    3ff8:	180e1263          	bne	x28,x0,417c <_vfprintf_r+0x279c>
    3ffc:	fff94693          	xori	x13,x18,-1
    4000:	41f6d693          	srai	x13,x13,0x1f
    4004:	00d97db3          	and	x27,x18,x13
    4008:	ea5ff06f          	jal	x0,3eac <_vfprintf_r+0x24cc>
    400c:	01012383          	lw	x7,16(x2)
    4010:	000a0493          	addi	x9,x20,0
    4014:	891fe06f          	jal	x0,28a4 <_vfprintf_r+0xec4>
    4018:	08010593          	addi	x11,x2,128
    401c:	00090513          	addi	x10,x18,0
    4020:	04c12c23          	sw	x12,88(x2)
    4024:	04e12a23          	sw	x14,84(x2)
    4028:	05112823          	sw	x17,80(x2)
    402c:	04d12623          	sw	x13,76(x2)
    4030:	09f12823          	sw	x31,144(x2)
    4034:	03f12223          	sw	x31,36(x2)
    4038:	09e12a23          	sw	x30,148(x2)
    403c:	03e12023          	sw	x30,32(x2)
    4040:	09d12c23          	sw	x29,152(x2)
    4044:	01d12e23          	sw	x29,28(x2)
    4048:	00b12c23          	sw	x11,24(x2)
    404c:	09812e23          	sw	x24,156(x2)
    4050:	08012023          	sw	x0,128(x2)
    4054:	08012223          	sw	x0,132(x2)
    4058:	08012423          	sw	x0,136(x2)
    405c:	08012623          	sw	x0,140(x2)
    4060:	5240a0ef          	jal	x1,e584 <__eqtf2>
    4064:	01812583          	lw	x11,24(x2)
    4068:	01c12e83          	lw	x29,28(x2)
    406c:	02012f03          	lw	x30,32(x2)
    4070:	02412f83          	lw	x31,36(x2)
    4074:	04c12683          	lw	x13,76(x2)
    4078:	05012883          	lw	x17,80(x2)
    407c:	05412703          	lw	x14,84(x2)
    4080:	05812603          	lw	x12,88(x2)
    4084:	1e051063          	bne	x10,x0,4264 <_vfprintf_r+0x2884>
    4088:	0ac12783          	lw	x15,172(x2)
    408c:	00f70733          	add	x14,x14,x15
    4090:	00f12c23          	sw	x15,24(x2)
    4094:	41a707b3          	sub	x15,x14,x26
    4098:	00f12e23          	sw	x15,28(x2)
    409c:	01812783          	lw	x15,24(x2)
    40a0:	001bf713          	andi	x14,x23,1
    40a4:	01676733          	or	x14,x14,x22
    40a8:	1ef05a63          	bge	x0,x15,429c <_vfprintf_r+0x28bc>
    40ac:	18071663          	bne	x14,x0,4238 <_vfprintf_r+0x2858>
    40b0:	01812903          	lw	x18,24(x2)
    40b4:	06600893          	addi	x17,x0,102
    40b8:	f3dff06f          	jal	x0,3ff4 <_vfprintf_r+0x2614>
    40bc:	fff00793          	addi	x15,x0,-1
    40c0:	00f12623          	sw	x15,12(x2)
    40c4:	c95fd06f          	jal	x0,1d58 <_vfprintf_r+0x378>
    40c8:	000b8f93          	addi	x31,x23,0
    40cc:	a34fe06f          	jal	x0,2300 <_vfprintf_r+0x920>
    40d0:	000a8813          	addi	x16,x21,0
    40d4:	01812a83          	lw	x21,24(x2)
    40d8:	01260633          	add	x12,x12,x18
    40dc:	00170713          	addi	x14,x14,1
    40e0:	010a2023          	sw	x16,0(x20)
    40e4:	012a2223          	sw	x18,4(x20)
    40e8:	0cc12623          	sw	x12,204(x2)
    40ec:	0ce12423          	sw	x14,200(x2)
    40f0:	00700593          	addi	x11,x0,7
    40f4:	a6e5d263          	bge	x11,x14,3358 <_vfprintf_r+0x1978>
    40f8:	00812503          	lw	x10,8(x2)
    40fc:	0c410613          	addi	x12,x2,196
    4100:	00048593          	addi	x11,x9,0
    4104:	3f8000ef          	jal	x1,44fc <__sprint_r>
    4108:	00050463          	beq	x10,x0,4110 <_vfprintf_r+0x2730>
    410c:	f94fe06f          	jal	x0,28a0 <_vfprintf_r+0xec0>
    4110:	0cc12603          	lw	x12,204(x2)
    4114:	0c812703          	lw	x14,200(x2)
    4118:	00098a13          	addi	x20,x19,0
    411c:	b80ff06f          	jal	x0,349c <_vfprintf_r+0x1abc>
    4120:	0b610693          	addi	x13,x2,182
    4124:	00061863          	bne	x12,x0,4134 <_vfprintf_r+0x2754>
    4128:	03000693          	addi	x13,x0,48
    412c:	0ad10b23          	sb	x13,182(x2)
    4130:	0b710693          	addi	x13,x2,183
    4134:	19010793          	addi	x15,x2,400
    4138:	40f68633          	sub	x12,x13,x15
    413c:	03070713          	addi	x14,x14,48
    4140:	0dd60793          	addi	x15,x12,221
    4144:	00e68023          	sb	x14,0(x13)
    4148:	02f12c23          	sw	x15,56(x2)
    414c:	f99fe06f          	jal	x0,30e4 <_vfprintf_r+0x1704>
    4150:	00012823          	sw	x0,16(x2)
    4154:	00600b13          	addi	x22,x0,6
    4158:	e51fd06f          	jal	x0,1fa8 <_vfprintf_r+0x5c8>
    415c:	001bf713          	andi	x14,x23,1
    4160:	00071463          	bne	x14,x0,4168 <_vfprintf_r+0x2788>
    4164:	fa1fe06f          	jal	x0,3104 <_vfprintf_r+0x1724>
    4168:	f95fe06f          	jal	x0,30fc <_vfprintf_r+0x171c>
    416c:	04500613          	addi	x12,x0,69
    4170:	08010593          	addi	x11,x2,128
    4174:	fe0ff06f          	jal	x0,3954 <_vfprintf_r+0x1f74>
    4178:	06700893          	addi	x17,x0,103
    417c:	04012603          	lw	x12,64(x2)
    4180:	0ff00693          	addi	x13,x0,255
    4184:	00064703          	lbu	x14,0(x12)
    4188:	14d70a63          	beq	x14,x13,42dc <_vfprintf_r+0x28fc>
    418c:	01812783          	lw	x15,24(x2)
    4190:	00000513          	addi	x10,x0,0
    4194:	00000593          	addi	x11,x0,0
    4198:	00f75e63          	bge	x14,x15,41b4 <_vfprintf_r+0x27d4>
    419c:	40e787b3          	sub	x15,x15,x14
    41a0:	00164703          	lbu	x14,1(x12)
    41a4:	04070463          	beq	x14,x0,41ec <_vfprintf_r+0x280c>
    41a8:	00158593          	addi	x11,x11,1
    41ac:	00160613          	addi	x12,x12,1
    41b0:	fed714e3          	bne	x14,x13,4198 <_vfprintf_r+0x27b8>
    41b4:	04c12023          	sw	x12,64(x2)
    41b8:	02b12023          	sw	x11,32(x2)
    41bc:	02a12223          	sw	x10,36(x2)
    41c0:	00f12c23          	sw	x15,24(x2)
    41c4:	02412783          	lw	x15,36(x2)
    41c8:	02012703          	lw	x14,32(x2)
    41cc:	00e78733          	add	x14,x15,x14
    41d0:	04412783          	lw	x15,68(x2)
    41d4:	02f70733          	mul	x14,x14,x15
    41d8:	01270933          	add	x18,x14,x18
    41dc:	fff94693          	xori	x13,x18,-1
    41e0:	41f6d693          	srai	x13,x13,0x1f
    41e4:	00d97db3          	and	x27,x18,x13
    41e8:	f41fe06f          	jal	x0,3128 <_vfprintf_r+0x1748>
    41ec:	00064703          	lbu	x14,0(x12)
    41f0:	00150513          	addi	x10,x10,1
    41f4:	fbdff06f          	jal	x0,41b0 <_vfprintf_r+0x27d0>
    41f8:	000a0c13          	addi	x24,x20,0
    41fc:	001b0793          	addi	x15,x22,1
    4200:	03812a83          	lw	x21,56(x2)
    4204:	04812883          	lw	x17,72(x2)
    4208:	04c12b83          	lw	x23,76(x2)
    420c:	05012c83          	lw	x25,80(x2)
    4210:	05412a03          	lw	x20,84(x2)
    4214:	05812483          	lw	x9,88(x2)
    4218:	05c12d03          	lw	x26,92(x2)
    421c:	00fc07b3          	add	x15,x24,x15
    4220:	03000693          	addi	x13,x0,48
    4224:	b40b46e3          	blt	x22,x0,3d70 <_vfprintf_r+0x2390>
    4228:	001c0c13          	addi	x24,x24,1
    422c:	fedc0fa3          	sb	x13,-1(x24)
    4230:	ff879ce3          	bne	x15,x24,4228 <_vfprintf_r+0x2848>
    4234:	b41ff06f          	jal	x0,3d74 <_vfprintf_r+0x2394>
    4238:	02812703          	lw	x14,40(x2)
    423c:	06600893          	addi	x17,x0,102
    4240:	00eb0f33          	add	x30,x22,x14
    4244:	00ff0933          	add	x18,x30,x15
    4248:	dadff06f          	jal	x0,3ff4 <_vfprintf_r+0x2614>
    424c:	40f90f33          	sub	x30,x18,x15
    4250:	001f0913          	addi	x18,x30,1
    4254:	fff94693          	xori	x13,x18,-1
    4258:	41f6d693          	srai	x13,x13,0x1f
    425c:	00d97db3          	and	x27,x18,x13
    4260:	c4dff06f          	jal	x0,3eac <_vfprintf_r+0x24cc>
    4264:	00100513          	addi	x10,x0,1
    4268:	40d506b3          	sub	x13,x10,x13
    426c:	0ad12623          	sw	x13,172(x2)
    4270:	00d70733          	add	x14,x14,x13
    4274:	ee0ff06f          	jal	x0,3954 <_vfprintf_r+0x1f74>
    4278:	01412783          	lw	x15,20(x2)
    427c:	0007ab03          	lw	x22,0(x15)
    4280:	00478793          	addi	x15,x15,4
    4284:	000b5463          	bge	x22,x0,428c <_vfprintf_r+0x28ac>
    4288:	fff00b13          	addi	x22,x0,-1
    428c:	001ac883          	lbu	x17,1(x21)
    4290:	00f12a23          	sw	x15,20(x2)
    4294:	00068a93          	addi	x21,x13,0
    4298:	8d9fd06f          	jal	x0,1b70 <_vfprintf_r+0x190>
    429c:	00071a63          	bne	x14,x0,42b0 <_vfprintf_r+0x28d0>
    42a0:	00100d93          	addi	x27,x0,1
    42a4:	06600893          	addi	x17,x0,102
    42a8:	00100913          	addi	x18,x0,1
    42ac:	c01ff06f          	jal	x0,3eac <_vfprintf_r+0x24cc>
    42b0:	02812783          	lw	x15,40(x2)
    42b4:	06600893          	addi	x17,x0,102
    42b8:	00178f13          	addi	x30,x15,1
    42bc:	016f0933          	add	x18,x30,x22
    42c0:	fff94693          	xori	x13,x18,-1
    42c4:	41f6d693          	srai	x13,x13,0x1f
    42c8:	00d97db3          	and	x27,x18,x13
    42cc:	be1ff06f          	jal	x0,3eac <_vfprintf_r+0x24cc>
    42d0:	00200793          	addi	x15,x0,2
    42d4:	02f12c23          	sw	x15,56(x2)
    42d8:	e0dfe06f          	jal	x0,30e4 <_vfprintf_r+0x1704>
    42dc:	02012223          	sw	x0,36(x2)
    42e0:	02012023          	sw	x0,32(x2)
    42e4:	ee1ff06f          	jal	x0,41c4 <_vfprintf_r+0x27e4>
    42e8:	00c4d783          	lhu	x15,12(x9)
    42ec:	0407e793          	ori	x15,x15,64
    42f0:	00f49623          	sh	x15,12(x9)
    42f4:	a31fd06f          	jal	x0,1d24 <_vfprintf_r+0x344>

000042f8 <vfprintf>:
    42f8:	00060693          	addi	x13,x12,0
    42fc:	00058613          	addi	x12,x11,0
    4300:	00050593          	addi	x11,x10,0
    4304:	f041a503          	lw	x10,-252(x3) # 12bb4 <_impure_ptr>
    4308:	ed8fd06f          	jal	x0,19e0 <_vfprintf_r>

0000430c <__sbprintf>:
    430c:	b8010113          	addi	x2,x2,-1152
    4310:	00c59783          	lh	x15,12(x11)
    4314:	00e5d703          	lhu	x14,14(x11)
    4318:	0645ae03          	lw	x28,100(x11)
    431c:	01c5a303          	lw	x6,28(x11)
    4320:	0245a883          	lw	x17,36(x11)
    4324:	46812c23          	sw	x8,1144(x2)
    4328:	00058413          	addi	x8,x11,0
    432c:	000105b7          	lui	x11,0x10
    4330:	ffd58593          	addi	x11,x11,-3 # fffd <__subtf3+0x56d>
    4334:	01071713          	slli	x14,x14,0x10
    4338:	00b7f7b3          	and	x15,x15,x11
    433c:	00e7e7b3          	or	x15,x15,x14
    4340:	40000813          	addi	x16,x0,1024
    4344:	00f12a23          	sw	x15,20(x2)
    4348:	00810593          	addi	x11,x2,8
    434c:	07010793          	addi	x15,x2,112
    4350:	46912a23          	sw	x9,1140(x2)
    4354:	47212823          	sw	x18,1136(x2)
    4358:	46112e23          	sw	x1,1148(x2)
    435c:	00050913          	addi	x18,x10,0
    4360:	07c12623          	sw	x28,108(x2)
    4364:	02612223          	sw	x6,36(x2)
    4368:	03112623          	sw	x17,44(x2)
    436c:	00f12423          	sw	x15,8(x2)
    4370:	00f12c23          	sw	x15,24(x2)
    4374:	01012823          	sw	x16,16(x2)
    4378:	01012e23          	sw	x16,28(x2)
    437c:	02012023          	sw	x0,32(x2)
    4380:	e60fd0ef          	jal	x1,19e0 <_vfprintf_r>
    4384:	00050493          	addi	x9,x10,0
    4388:	02055c63          	bge	x10,x0,43c0 <__sbprintf+0xb4>
    438c:	01415783          	lhu	x15,20(x2)
    4390:	0407f793          	andi	x15,x15,64
    4394:	00078863          	beq	x15,x0,43a4 <__sbprintf+0x98>
    4398:	00c45783          	lhu	x15,12(x8)
    439c:	0407e793          	ori	x15,x15,64
    43a0:	00f41623          	sh	x15,12(x8)
    43a4:	47c12083          	lw	x1,1148(x2)
    43a8:	47812403          	lw	x8,1144(x2)
    43ac:	47012903          	lw	x18,1136(x2)
    43b0:	00048513          	addi	x10,x9,0
    43b4:	47412483          	lw	x9,1140(x2)
    43b8:	48010113          	addi	x2,x2,1152
    43bc:	00008067          	jalr	x0,0(x1)
    43c0:	00810593          	addi	x11,x2,8
    43c4:	00090513          	addi	x10,x18,0
    43c8:	291020ef          	jal	x1,6e58 <_fflush_r>
    43cc:	fc0500e3          	beq	x10,x0,438c <__sbprintf+0x80>
    43d0:	fff00493          	addi	x9,x0,-1
    43d4:	fb9ff06f          	jal	x0,438c <__sbprintf+0x80>

000043d8 <__sprint_r.part.0>:
    43d8:	0645a783          	lw	x15,100(x11)
    43dc:	fd010113          	addi	x2,x2,-48
    43e0:	01612823          	sw	x22,16(x2)
    43e4:	02112623          	sw	x1,44(x2)
    43e8:	01279713          	slli	x14,x15,0x12
    43ec:	00060b13          	addi	x22,x12,0
    43f0:	0e075863          	bge	x14,x0,44e0 <__sprint_r.part.0+0x108>
    43f4:	00862783          	lw	x15,8(x12)
    43f8:	03212023          	sw	x18,32(x2)
    43fc:	01312e23          	sw	x19,28(x2)
    4400:	01512a23          	sw	x21,20(x2)
    4404:	01712623          	sw	x23,12(x2)
    4408:	00058913          	addi	x18,x11,0
    440c:	00062b83          	lw	x23,0(x12)
    4410:	00050993          	addi	x19,x10,0
    4414:	fff00a93          	addi	x21,x0,-1
    4418:	0a078863          	beq	x15,x0,44c8 <__sprint_r.part.0+0xf0>
    441c:	02812423          	sw	x8,40(x2)
    4420:	02912223          	sw	x9,36(x2)
    4424:	01412c23          	sw	x20,24(x2)
    4428:	01812423          	sw	x24,8(x2)
    442c:	004bac03          	lw	x24,4(x23)
    4430:	000ba403          	lw	x8,0(x23)
    4434:	002c5a13          	srli	x20,x24,0x2
    4438:	060a0663          	beq	x20,x0,44a4 <__sprint_r.part.0+0xcc>
    443c:	00000493          	addi	x9,x0,0
    4440:	00c0006f          	jal	x0,444c <__sprint_r.part.0+0x74>
    4444:	00440413          	addi	x8,x8,4
    4448:	049a0c63          	beq	x20,x9,44a0 <__sprint_r.part.0+0xc8>
    444c:	00042583          	lw	x11,0(x8)
    4450:	00090613          	addi	x12,x18,0
    4454:	00098513          	addi	x10,x19,0
    4458:	4e4030ef          	jal	x1,793c <_fputwc_r>
    445c:	00148493          	addi	x9,x9,1
    4460:	ff5512e3          	bne	x10,x21,4444 <__sprint_r.part.0+0x6c>
    4464:	02812403          	lw	x8,40(x2)
    4468:	02412483          	lw	x9,36(x2)
    446c:	02012903          	lw	x18,32(x2)
    4470:	01c12983          	lw	x19,28(x2)
    4474:	01812a03          	lw	x20,24(x2)
    4478:	01412a83          	lw	x21,20(x2)
    447c:	00c12b83          	lw	x23,12(x2)
    4480:	00812c03          	lw	x24,8(x2)
    4484:	fff00513          	addi	x10,x0,-1
    4488:	02c12083          	lw	x1,44(x2)
    448c:	000b2423          	sw	x0,8(x22)
    4490:	000b2223          	sw	x0,4(x22)
    4494:	01012b03          	lw	x22,16(x2)
    4498:	03010113          	addi	x2,x2,48
    449c:	00008067          	jalr	x0,0(x1)
    44a0:	008b2783          	lw	x15,8(x22)
    44a4:	ffcc7c13          	andi	x24,x24,-4
    44a8:	418787b3          	sub	x15,x15,x24
    44ac:	00fb2423          	sw	x15,8(x22)
    44b0:	008b8b93          	addi	x23,x23,8
    44b4:	f6079ce3          	bne	x15,x0,442c <__sprint_r.part.0+0x54>
    44b8:	02812403          	lw	x8,40(x2)
    44bc:	02412483          	lw	x9,36(x2)
    44c0:	01812a03          	lw	x20,24(x2)
    44c4:	00812c03          	lw	x24,8(x2)
    44c8:	02012903          	lw	x18,32(x2)
    44cc:	01c12983          	lw	x19,28(x2)
    44d0:	01412a83          	lw	x21,20(x2)
    44d4:	00c12b83          	lw	x23,12(x2)
    44d8:	00000513          	addi	x10,x0,0
    44dc:	fadff06f          	jal	x0,4488 <__sprint_r.part.0+0xb0>
    44e0:	ef5fc0ef          	jal	x1,13d4 <__sfvwrite_r>
    44e4:	02c12083          	lw	x1,44(x2)
    44e8:	000b2423          	sw	x0,8(x22)
    44ec:	000b2223          	sw	x0,4(x22)
    44f0:	01012b03          	lw	x22,16(x2)
    44f4:	03010113          	addi	x2,x2,48
    44f8:	00008067          	jalr	x0,0(x1)

000044fc <__sprint_r>:
    44fc:	00862703          	lw	x14,8(x12)
    4500:	00070463          	beq	x14,x0,4508 <__sprint_r+0xc>
    4504:	ed5ff06f          	jal	x0,43d8 <__sprint_r.part.0>
    4508:	00062223          	sw	x0,4(x12)
    450c:	00000513          	addi	x10,x0,0
    4510:	00008067          	jalr	x0,0(x1)

00004514 <_vfiprintf_r>:
    4514:	ed010113          	addi	x2,x2,-304
    4518:	11312e23          	sw	x19,284(x2)
    451c:	11612823          	sw	x22,272(x2)
    4520:	11712623          	sw	x23,268(x2)
    4524:	11812423          	sw	x24,264(x2)
    4528:	12112623          	sw	x1,300(x2)
    452c:	0fb12e23          	sw	x27,252(x2)
    4530:	00050c13          	addi	x24,x10,0
    4534:	00058b13          	addi	x22,x11,0
    4538:	00060993          	addi	x19,x12,0
    453c:	00068b93          	addi	x23,x13,0
    4540:	00050863          	beq	x10,x0,4550 <_vfiprintf_r+0x3c>
    4544:	03452783          	lw	x15,52(x10)
    4548:	00079463          	bne	x15,x0,4550 <_vfiprintf_r+0x3c>
    454c:	1d40106f          	jal	x0,5720 <_vfiprintf_r+0x120c>
    4550:	00cb1783          	lh	x15,12(x22)
    4554:	01279713          	slli	x14,x15,0x12
    4558:	02074663          	blt	x14,x0,4584 <_vfiprintf_r+0x70>
    455c:	064b2703          	lw	x14,100(x22)
    4560:	000026b7          	lui	x13,0x2
    4564:	00d7e7b3          	or	x15,x15,x13
    4568:	ffffe6b7          	lui	x13,0xffffe
    456c:	01079793          	slli	x15,x15,0x10
    4570:	fff68693          	addi	x13,x13,-1 # ffffdfff <__heap_end+0xffbfdfff>
    4574:	4107d793          	srai	x15,x15,0x10
    4578:	00d77733          	and	x14,x14,x13
    457c:	00fb1623          	sh	x15,12(x22)
    4580:	06eb2223          	sw	x14,100(x22)
    4584:	0087f713          	andi	x14,x15,8
    4588:	38070863          	beq	x14,x0,4918 <_vfiprintf_r+0x404>
    458c:	010b2703          	lw	x14,16(x22)
    4590:	38070463          	beq	x14,x0,4918 <_vfiprintf_r+0x404>
    4594:	01a7f793          	andi	x15,x15,26
    4598:	00a00713          	addi	x14,x0,10
    459c:	38e78e63          	beq	x15,x14,4938 <_vfiprintf_r+0x424>
    45a0:	11512a23          	sw	x21,276(x2)
    45a4:	00000d93          	addi	x27,x0,0
    45a8:	04c10a93          	addi	x21,x2,76
    45ac:	12812423          	sw	x8,296(x2)
    45b0:	11412c23          	sw	x20,280(x2)
    45b4:	11912223          	sw	x25,260(x2)
    45b8:	11a12023          	sw	x26,256(x2)
    45bc:	01812223          	sw	x24,4(x2)
    45c0:	12912223          	sw	x9,292(x2)
    45c4:	13212023          	sw	x18,288(x2)
    45c8:	05512023          	sw	x21,64(x2)
    45cc:	04012423          	sw	x0,72(x2)
    45d0:	04012223          	sw	x0,68(x2)
    45d4:	000a8413          	addi	x8,x21,0
    45d8:	00012423          	sw	x0,8(x2)
    45dc:	00012e23          	sw	x0,28(x2)
    45e0:	00012c23          	sw	x0,24(x2)
    45e4:	02012023          	sw	x0,32(x2)
    45e8:	0000ed17          	auipc	x26,0xe
    45ec:	9b8d0d13          	addi	x26,x26,-1608 # 11fa0 <zeroes.0+0x7c>
    45f0:	01000a13          	addi	x20,x0,16
    45f4:	0000ec97          	auipc	x25,0xe
    45f8:	b28c8c93          	addi	x25,x25,-1240 # 1211c <zeroes.0>
    45fc:	000d8c13          	addi	x24,x27,0
    4600:	000b8813          	addi	x16,x23,0
    4604:	0009c783          	lbu	x15,0(x19)
    4608:	26078263          	beq	x15,x0,486c <_vfiprintf_r+0x358>
    460c:	00098493          	addi	x9,x19,0
    4610:	02500713          	addi	x14,x0,37
    4614:	3ce78463          	beq	x15,x14,49dc <_vfiprintf_r+0x4c8>
    4618:	0014c783          	lbu	x15,1(x9)
    461c:	00148493          	addi	x9,x9,1
    4620:	fe079ae3          	bne	x15,x0,4614 <_vfiprintf_r+0x100>
    4624:	41348933          	sub	x18,x9,x19
    4628:	25348263          	beq	x9,x19,486c <_vfiprintf_r+0x358>
    462c:	04812703          	lw	x14,72(x2)
    4630:	04412783          	lw	x15,68(x2)
    4634:	01342023          	sw	x19,0(x8)
    4638:	00e90733          	add	x14,x18,x14
    463c:	00178793          	addi	x15,x15,1
    4640:	01242223          	sw	x18,4(x8)
    4644:	04e12423          	sw	x14,72(x2)
    4648:	04f12223          	sw	x15,68(x2)
    464c:	00700693          	addi	x13,x0,7
    4650:	00840413          	addi	x8,x8,8
    4654:	02f6d463          	bge	x13,x15,467c <_vfiprintf_r+0x168>
    4658:	4e0706e3          	beq	x14,x0,5344 <_vfiprintf_r+0xe30>
    465c:	00412503          	lw	x10,4(x2)
    4660:	04010613          	addi	x12,x2,64
    4664:	000b0593          	addi	x11,x22,0
    4668:	01012623          	sw	x16,12(x2)
    466c:	d6dff0ef          	jal	x1,43d8 <__sprint_r.part.0>
    4670:	00c12803          	lw	x16,12(x2)
    4674:	30051c63          	bne	x10,x0,498c <_vfiprintf_r+0x478>
    4678:	000a8413          	addi	x8,x21,0
    467c:	0004c783          	lbu	x15,0(x9)
    4680:	012c0c33          	add	x24,x24,x18
    4684:	1e078463          	beq	x15,x0,486c <_vfiprintf_r+0x358>
    4688:	0014c703          	lbu	x14,1(x9)
    468c:	00148993          	addi	x19,x9,1
    4690:	02010da3          	sb	x0,59(x2)
    4694:	fff00493          	addi	x9,x0,-1
    4698:	00000b93          	addi	x23,x0,0
    469c:	00000d93          	addi	x27,x0,0
    46a0:	05a00913          	addi	x18,x0,90
    46a4:	00198993          	addi	x19,x19,1
    46a8:	fe070793          	addi	x15,x14,-32
    46ac:	04f96663          	bltu	x18,x15,46f8 <_vfiprintf_r+0x1e4>
    46b0:	00279793          	slli	x15,x15,0x2
    46b4:	01a787b3          	add	x15,x15,x26
    46b8:	0007a783          	lw	x15,0(x15)
    46bc:	01a787b3          	add	x15,x15,x26
    46c0:	00078067          	jalr	x0,0(x15)
    46c4:	00000b93          	addi	x23,x0,0
    46c8:	fd070793          	addi	x15,x14,-48
    46cc:	00900613          	addi	x12,x0,9
    46d0:	0009c703          	lbu	x14,0(x19)
    46d4:	002b9693          	slli	x13,x23,0x2
    46d8:	01768bb3          	add	x23,x13,x23
    46dc:	001b9b93          	slli	x23,x23,0x1
    46e0:	01778bb3          	add	x23,x15,x23
    46e4:	fd070793          	addi	x15,x14,-48
    46e8:	00198993          	addi	x19,x19,1
    46ec:	fef672e3          	bgeu	x12,x15,46d0 <_vfiprintf_r+0x1bc>
    46f0:	fe070793          	addi	x15,x14,-32
    46f4:	faf97ee3          	bgeu	x18,x15,46b0 <_vfiprintf_r+0x19c>
    46f8:	16070a63          	beq	x14,x0,486c <_vfiprintf_r+0x358>
    46fc:	08e10623          	sb	x14,140(x2)
    4700:	02010da3          	sb	x0,59(x2)
    4704:	00100693          	addi	x13,x0,1
    4708:	00100893          	addi	x17,x0,1
    470c:	08c10913          	addi	x18,x2,140
    4710:	00000493          	addi	x9,x0,0
    4714:	00000f13          	addi	x30,x0,0
    4718:	04412603          	lw	x12,68(x2)
    471c:	084dff93          	andi	x31,x27,132
    4720:	04812783          	lw	x15,72(x2)
    4724:	00160593          	addi	x11,x12,1
    4728:	00058e13          	addi	x28,x11,0
    472c:	000f9663          	bne	x31,x0,4738 <_vfiprintf_r+0x224>
    4730:	40db8733          	sub	x14,x23,x13
    4734:	2ae04ae3          	blt	x0,x14,51e8 <_vfiprintf_r+0xcd4>
    4738:	03b14703          	lbu	x14,59(x2)
    473c:	02070a63          	beq	x14,x0,4770 <_vfiprintf_r+0x25c>
    4740:	03b10713          	addi	x14,x2,59
    4744:	00178793          	addi	x15,x15,1
    4748:	00e42023          	sw	x14,0(x8)
    474c:	00100713          	addi	x14,x0,1
    4750:	00e42223          	sw	x14,4(x8)
    4754:	04f12423          	sw	x15,72(x2)
    4758:	05c12223          	sw	x28,68(x2)
    475c:	00700713          	addi	x14,x0,7
    4760:	1bc748e3          	blt	x14,x28,5110 <_vfiprintf_r+0xbfc>
    4764:	000e0613          	addi	x12,x28,0
    4768:	00840413          	addi	x8,x8,8
    476c:	001e0e13          	addi	x28,x28,1
    4770:	060f0863          	beq	x30,x0,47e0 <_vfiprintf_r+0x2cc>
    4774:	03c10713          	addi	x14,x2,60
    4778:	00278793          	addi	x15,x15,2
    477c:	00e42023          	sw	x14,0(x8)
    4780:	00200713          	addi	x14,x0,2
    4784:	00e42223          	sw	x14,4(x8)
    4788:	04f12423          	sw	x15,72(x2)
    478c:	05c12223          	sw	x28,68(x2)
    4790:	00700713          	addi	x14,x0,7
    4794:	1fc756e3          	bge	x14,x28,5180 <_vfiprintf_r+0xc6c>
    4798:	40078ae3          	beq	x15,x0,53ac <_vfiprintf_r+0xe98>
    479c:	00412503          	lw	x10,4(x2)
    47a0:	04010613          	addi	x12,x2,64
    47a4:	000b0593          	addi	x11,x22,0
    47a8:	03012223          	sw	x16,36(x2)
    47ac:	00d12a23          	sw	x13,20(x2)
    47b0:	01112823          	sw	x17,16(x2)
    47b4:	01f12623          	sw	x31,12(x2)
    47b8:	c21ff0ef          	jal	x1,43d8 <__sprint_r.part.0>
    47bc:	1c051863          	bne	x10,x0,498c <_vfiprintf_r+0x478>
    47c0:	04412603          	lw	x12,68(x2)
    47c4:	04812783          	lw	x15,72(x2)
    47c8:	02412803          	lw	x16,36(x2)
    47cc:	01412683          	lw	x13,20(x2)
    47d0:	01012883          	lw	x17,16(x2)
    47d4:	00c12f83          	lw	x31,12(x2)
    47d8:	000a8413          	addi	x8,x21,0
    47dc:	00160e13          	addi	x28,x12,1
    47e0:	08000713          	addi	x14,x0,128
    47e4:	70ef8a63          	beq	x31,x14,4ef8 <_vfiprintf_r+0x9e4>
    47e8:	411484b3          	sub	x9,x9,x17
    47ec:	02904ae3          	blt	x0,x9,5020 <_vfiprintf_r+0xb0c>
    47f0:	00f887b3          	add	x15,x17,x15
    47f4:	01242023          	sw	x18,0(x8)
    47f8:	01142223          	sw	x17,4(x8)
    47fc:	04f12423          	sw	x15,72(x2)
    4800:	05c12223          	sw	x28,68(x2)
    4804:	00700713          	addi	x14,x0,7
    4808:	21c75063          	bge	x14,x28,4a08 <_vfiprintf_r+0x4f4>
    480c:	20078263          	beq	x15,x0,4a10 <_vfiprintf_r+0x4fc>
    4810:	00412503          	lw	x10,4(x2)
    4814:	04010613          	addi	x12,x2,64
    4818:	000b0593          	addi	x11,x22,0
    481c:	01012823          	sw	x16,16(x2)
    4820:	00d12623          	sw	x13,12(x2)
    4824:	bb5ff0ef          	jal	x1,43d8 <__sprint_r.part.0>
    4828:	16051263          	bne	x10,x0,498c <_vfiprintf_r+0x478>
    482c:	04812783          	lw	x15,72(x2)
    4830:	01012803          	lw	x16,16(x2)
    4834:	00c12683          	lw	x13,12(x2)
    4838:	000a8413          	addi	x8,x21,0
    483c:	004dfd93          	andi	x27,x27,4
    4840:	000d8663          	beq	x27,x0,484c <_vfiprintf_r+0x338>
    4844:	40db84b3          	sub	x9,x23,x13
    4848:	1e904063          	blt	x0,x9,4a28 <_vfiprintf_r+0x514>
    484c:	00dbd463          	bge	x23,x13,4854 <_vfiprintf_r+0x340>
    4850:	00068b93          	addi	x23,x13,0
    4854:	017c0c33          	add	x24,x24,x23
    4858:	10079c63          	bne	x15,x0,4970 <_vfiprintf_r+0x45c>
    485c:	0009c783          	lbu	x15,0(x19)
    4860:	04012223          	sw	x0,68(x2)
    4864:	000a8413          	addi	x8,x21,0
    4868:	da0792e3          	bne	x15,x0,460c <_vfiprintf_r+0xf8>
    486c:	04812783          	lw	x15,72(x2)
    4870:	000c0d93          	addi	x27,x24,0
    4874:	00412c03          	lw	x24,4(x2)
    4878:	10078c63          	beq	x15,x0,4990 <_vfiprintf_r+0x47c>
    487c:	04010613          	addi	x12,x2,64
    4880:	000b0593          	addi	x11,x22,0
    4884:	000c0513          	addi	x10,x24,0
    4888:	b51ff0ef          	jal	x1,43d8 <__sprint_r.part.0>
    488c:	1040006f          	jal	x0,4990 <_vfiprintf_r+0x47c>
    4890:	00082b83          	lw	x23,0(x16)
    4894:	00480813          	addi	x16,x16,4
    4898:	380bca63          	blt	x23,x0,4c2c <_vfiprintf_r+0x718>
    489c:	0009c703          	lbu	x14,0(x19)
    48a0:	e05ff06f          	jal	x0,46a4 <_vfiprintf_r+0x190>
    48a4:	0009c703          	lbu	x14,0(x19)
    48a8:	020ded93          	ori	x27,x27,32
    48ac:	df9ff06f          	jal	x0,46a4 <_vfiprintf_r+0x190>
    48b0:	010ded93          	ori	x27,x27,16
    48b4:	020df793          	andi	x15,x27,32
    48b8:	26078263          	beq	x15,x0,4b1c <_vfiprintf_r+0x608>
    48bc:	00780813          	addi	x16,x16,7
    48c0:	ff887813          	andi	x16,x16,-8
    48c4:	00482703          	lw	x14,4(x16)
    48c8:	00082783          	lw	x15,0(x16)
    48cc:	00880813          	addi	x16,x16,8
    48d0:	00070893          	addi	x17,x14,0
    48d4:	26074a63          	blt	x14,x0,4b48 <_vfiprintf_r+0x634>
    48d8:	2804c863          	blt	x9,x0,4b68 <_vfiprintf_r+0x654>
    48dc:	0117e733          	or	x14,x15,x17
    48e0:	f7fdfd93          	andi	x27,x27,-129
    48e4:	28071263          	bne	x14,x0,4b68 <_vfiprintf_r+0x654>
    48e8:	70049ee3          	bne	x9,x0,5804 <_vfiprintf_r+0x12f0>
    48ec:	03b14783          	lbu	x15,59(x2)
    48f0:	00000693          	addi	x13,x0,0
    48f4:	00000893          	addi	x17,x0,0
    48f8:	0f010913          	addi	x18,x2,240
    48fc:	00078463          	beq	x15,x0,4904 <_vfiprintf_r+0x3f0>
    4900:	00168693          	addi	x13,x13,1
    4904:	002dff13          	andi	x30,x27,2
    4908:	e00f08e3          	beq	x30,x0,4718 <_vfiprintf_r+0x204>
    490c:	00268693          	addi	x13,x13,2
    4910:	00200f13          	addi	x30,x0,2
    4914:	e05ff06f          	jal	x0,4718 <_vfiprintf_r+0x204>
    4918:	000b0593          	addi	x11,x22,0
    491c:	000c0513          	addi	x10,x24,0
    4920:	5c9010ef          	jal	x1,66e8 <__swsetup_r>
    4924:	700514e3          	bne	x10,x0,582c <_vfiprintf_r+0x1318>
    4928:	00cb1783          	lh	x15,12(x22)
    492c:	00a00713          	addi	x14,x0,10
    4930:	01a7f793          	andi	x15,x15,26
    4934:	c6e796e3          	bne	x15,x14,45a0 <_vfiprintf_r+0x8c>
    4938:	00eb1783          	lh	x15,14(x22)
    493c:	c607c2e3          	blt	x15,x0,45a0 <_vfiprintf_r+0x8c>
    4940:	12c12083          	lw	x1,300(x2)
    4944:	0fc12d83          	lw	x27,252(x2)
    4948:	000b8693          	addi	x13,x23,0
    494c:	00098613          	addi	x12,x19,0
    4950:	10c12b83          	lw	x23,268(x2)
    4954:	11c12983          	lw	x19,284(x2)
    4958:	000b0593          	addi	x11,x22,0
    495c:	000c0513          	addi	x10,x24,0
    4960:	11012b03          	lw	x22,272(x2)
    4964:	10812c03          	lw	x24,264(x2)
    4968:	13010113          	addi	x2,x2,304
    496c:	7090006f          	jal	x0,5874 <__sbprintf>
    4970:	00412503          	lw	x10,4(x2)
    4974:	04010613          	addi	x12,x2,64
    4978:	000b0593          	addi	x11,x22,0
    497c:	01012623          	sw	x16,12(x2)
    4980:	a59ff0ef          	jal	x1,43d8 <__sprint_r.part.0>
    4984:	00c12803          	lw	x16,12(x2)
    4988:	ec050ae3          	beq	x10,x0,485c <_vfiprintf_r+0x348>
    498c:	000c0d93          	addi	x27,x24,0
    4990:	00cb5783          	lhu	x15,12(x22)
    4994:	12812403          	lw	x8,296(x2)
    4998:	12412483          	lw	x9,292(x2)
    499c:	0407f793          	andi	x15,x15,64
    49a0:	12012903          	lw	x18,288(x2)
    49a4:	11812a03          	lw	x20,280(x2)
    49a8:	11412a83          	lw	x21,276(x2)
    49ac:	10412c83          	lw	x25,260(x2)
    49b0:	10012d03          	lw	x26,256(x2)
    49b4:	66079ce3          	bne	x15,x0,582c <_vfiprintf_r+0x1318>
    49b8:	12c12083          	lw	x1,300(x2)
    49bc:	11c12983          	lw	x19,284(x2)
    49c0:	11012b03          	lw	x22,272(x2)
    49c4:	10c12b83          	lw	x23,268(x2)
    49c8:	10812c03          	lw	x24,264(x2)
    49cc:	000d8513          	addi	x10,x27,0
    49d0:	0fc12d83          	lw	x27,252(x2)
    49d4:	13010113          	addi	x2,x2,304
    49d8:	00008067          	jalr	x0,0(x1)
    49dc:	41348933          	sub	x18,x9,x19
    49e0:	c53496e3          	bne	x9,x19,462c <_vfiprintf_r+0x118>
    49e4:	0004c783          	lbu	x15,0(x9)
    49e8:	c9dff06f          	jal	x0,4684 <_vfiprintf_r+0x170>
    49ec:	00100713          	addi	x14,x0,1
    49f0:	00088793          	addi	x15,x17,0
    49f4:	05212623          	sw	x18,76(x2)
    49f8:	05112823          	sw	x17,80(x2)
    49fc:	05112423          	sw	x17,72(x2)
    4a00:	04e12223          	sw	x14,68(x2)
    4a04:	000a8413          	addi	x8,x21,0
    4a08:	00840413          	addi	x8,x8,8
    4a0c:	e31ff06f          	jal	x0,483c <_vfiprintf_r+0x328>
    4a10:	04012223          	sw	x0,68(x2)
    4a14:	004dfd93          	andi	x27,x27,4
    4a18:	0c0d8ce3          	beq	x27,x0,52f0 <_vfiprintf_r+0xddc>
    4a1c:	40db84b3          	sub	x9,x23,x13
    4a20:	0c9058e3          	bge	x0,x9,52f0 <_vfiprintf_r+0xddc>
    4a24:	000a8413          	addi	x8,x21,0
    4a28:	01000713          	addi	x14,x0,16
    4a2c:	04412603          	lw	x12,68(x2)
    4a30:	5e9756e3          	bge	x14,x9,581c <_vfiprintf_r+0x1308>
    4a34:	0000de17          	auipc	x28,0xd
    4a38:	6d8e0e13          	addi	x28,x28,1752 # 1210c <blanks.1>
    4a3c:	00d12623          	sw	x13,12(x2)
    4a40:	01000913          	addi	x18,x0,16
    4a44:	00040693          	addi	x13,x8,0
    4a48:	00700d93          	addi	x27,x0,7
    4a4c:	00048413          	addi	x8,x9,0
    4a50:	01012823          	sw	x16,16(x2)
    4a54:	000e0493          	addi	x9,x28,0
    4a58:	0180006f          	jal	x0,4a70 <_vfiprintf_r+0x55c>
    4a5c:	00260593          	addi	x11,x12,2
    4a60:	00868693          	addi	x13,x13,8
    4a64:	00070613          	addi	x12,x14,0
    4a68:	ff040413          	addi	x8,x8,-16
    4a6c:	04895863          	bge	x18,x8,4abc <_vfiprintf_r+0x5a8>
    4a70:	01078793          	addi	x15,x15,16
    4a74:	00160713          	addi	x14,x12,1
    4a78:	0096a023          	sw	x9,0(x13)
    4a7c:	0126a223          	sw	x18,4(x13)
    4a80:	04f12423          	sw	x15,72(x2)
    4a84:	04e12223          	sw	x14,68(x2)
    4a88:	fceddae3          	bge	x27,x14,4a5c <_vfiprintf_r+0x548>
    4a8c:	44078e63          	beq	x15,x0,4ee8 <_vfiprintf_r+0x9d4>
    4a90:	00412503          	lw	x10,4(x2)
    4a94:	04010613          	addi	x12,x2,64
    4a98:	000b0593          	addi	x11,x22,0
    4a9c:	93dff0ef          	jal	x1,43d8 <__sprint_r.part.0>
    4aa0:	ee0516e3          	bne	x10,x0,498c <_vfiprintf_r+0x478>
    4aa4:	04412603          	lw	x12,68(x2)
    4aa8:	ff040413          	addi	x8,x8,-16
    4aac:	04812783          	lw	x15,72(x2)
    4ab0:	000a8693          	addi	x13,x21,0
    4ab4:	00160593          	addi	x11,x12,1
    4ab8:	fa894ce3          	blt	x18,x8,4a70 <_vfiprintf_r+0x55c>
    4abc:	00048e13          	addi	x28,x9,0
    4ac0:	01012803          	lw	x16,16(x2)
